ARM GAS  C:\Users\okuntso\AppData\Local\Temp\ccSegaCM.s 			page 1


   1              		.syntax unified
   2              		.cpu cortex-m0
   3              		.fpu softvfp
   4              		.eabi_attribute 20, 1
   5              		.eabi_attribute 21, 1
   6              		.eabi_attribute 23, 3
   7              		.eabi_attribute 24, 1
   8              		.eabi_attribute 25, 1
   9              		.eabi_attribute 26, 1
  10              		.eabi_attribute 30, 6
  11              		.eabi_attribute 34, 0
  12              		.eabi_attribute 18, 4
  13              		.thumb
  14              		.syntax unified
  15              		.file	"RTC.c"
  16              		.text
  17              	.Ltext0:
  18              		.cfi_sections	.debug_frame
  19              		.section	.text.RTC_IsBitSet,"ax",%progbits
  20              		.align	2
  21              		.code	16
  22              		.thumb_func
  23              		.type	RTC_IsBitSet, %function
  24              	RTC_IsBitSet:
  25              	.LFB0:
  26              		.file 1 "Generated_Source\\PSoC4\\RTC.h"
   1:Generated_Source\PSoC4/RTC.h **** /***************************************************************************//**
   2:Generated_Source\PSoC4/RTC.h **** * \file Name: RTC.h
   3:Generated_Source\PSoC4/RTC.h **** * \version 1.10
   4:Generated_Source\PSoC4/RTC.h **** *
   5:Generated_Source\PSoC4/RTC.h **** * \brief
   6:Generated_Source\PSoC4/RTC.h **** *  This file provides constants and parameter values for the RTC_P4 Component.
   7:Generated_Source\PSoC4/RTC.h **** *
   8:Generated_Source\PSoC4/RTC.h **** ********************************************************************************
   9:Generated_Source\PSoC4/RTC.h **** * Copyright 2015-2016, Cypress Semiconductor Corporation.  All rights reserved.
  10:Generated_Source\PSoC4/RTC.h **** * You may use this file only in accordance with the license, terms, conditions,
  11:Generated_Source\PSoC4/RTC.h **** * disclaimers, and limitations in the end user license agreement accompanying
  12:Generated_Source\PSoC4/RTC.h **** * the software package with which this file was provided.
  13:Generated_Source\PSoC4/RTC.h **** *******************************************************************************/
  14:Generated_Source\PSoC4/RTC.h **** 
  15:Generated_Source\PSoC4/RTC.h **** #if !defined(CY_RTC_P4_RTC_H)
  16:Generated_Source\PSoC4/RTC.h **** #define CY_RTC_P4_RTC_H
  17:Generated_Source\PSoC4/RTC.h **** 
  18:Generated_Source\PSoC4/RTC.h **** #include <cytypes.h>
  19:Generated_Source\PSoC4/RTC.h **** #include <CyLib.h>
  20:Generated_Source\PSoC4/RTC.h **** 
  21:Generated_Source\PSoC4/RTC.h **** 
  22:Generated_Source\PSoC4/RTC.h **** /*******************************************************************************
  23:Generated_Source\PSoC4/RTC.h **** *    Data types definition
  24:Generated_Source\PSoC4/RTC.h **** *******************************************************************************/
  25:Generated_Source\PSoC4/RTC.h **** 
  26:Generated_Source\PSoC4/RTC.h **** typedef enum
  27:Generated_Source\PSoC4/RTC.h **** {
  28:Generated_Source\PSoC4/RTC.h ****     RTC_DST_DATE_RELATIVE = 0u,
  29:Generated_Source\PSoC4/RTC.h ****     RTC_DST_DATE_FIXED = 1u
  30:Generated_Source\PSoC4/RTC.h **** }RTC_DST_DATETYPE_ENUM;
  31:Generated_Source\PSoC4/RTC.h **** 
ARM GAS  C:\Users\okuntso\AppData\Local\Temp\ccSegaCM.s 			page 2


  32:Generated_Source\PSoC4/RTC.h **** /**
  33:Generated_Source\PSoC4/RTC.h **** * \addtogroup group_structures
  34:Generated_Source\PSoC4/RTC.h **** * @{
  35:Generated_Source\PSoC4/RTC.h **** */
  36:Generated_Source\PSoC4/RTC.h **** 
  37:Generated_Source\PSoC4/RTC.h **** /**
  38:Generated_Source\PSoC4/RTC.h **** * This is the data structure that is used to save the current time and date 
  39:Generated_Source\PSoC4/RTC.h **** * (RTC_currentTimeDate), and Alarm time and date (RTC_alarmCfgTimeDate).
  40:Generated_Source\PSoC4/RTC.h **** */
  41:Generated_Source\PSoC4/RTC.h **** typedef struct
  42:Generated_Source\PSoC4/RTC.h **** {
  43:Generated_Source\PSoC4/RTC.h ****     uint32 time;
  44:Generated_Source\PSoC4/RTC.h ****     uint32 date;
  45:Generated_Source\PSoC4/RTC.h ****     uint32 dayOfWeek;
  46:Generated_Source\PSoC4/RTC.h ****     uint32 status;
  47:Generated_Source\PSoC4/RTC.h **** }RTC_DATE_TIME;
  48:Generated_Source\PSoC4/RTC.h **** 
  49:Generated_Source\PSoC4/RTC.h **** /**
  50:Generated_Source\PSoC4/RTC.h **** * This is the data structure that is used to save time and date values for 
  51:Generated_Source\PSoC4/RTC.h **** * Daylight Savings Time Start and Stop (RTC_dstTimeDateStart and 
  52:Generated_Source\PSoC4/RTC.h **** * RTC_dstTimeDateStop).
  53:Generated_Source\PSoC4/RTC.h **** */
  54:Generated_Source\PSoC4/RTC.h **** typedef struct
  55:Generated_Source\PSoC4/RTC.h **** {
  56:Generated_Source\PSoC4/RTC.h ****     uint32 hour;
  57:Generated_Source\PSoC4/RTC.h ****     uint32 dayOfWeek;
  58:Generated_Source\PSoC4/RTC.h ****     uint32 dayOfMonth;
  59:Generated_Source\PSoC4/RTC.h ****     uint32 weekOfMonth;
  60:Generated_Source\PSoC4/RTC.h ****     uint32 month;
  61:Generated_Source\PSoC4/RTC.h ****     uint8  timeFormat;
  62:Generated_Source\PSoC4/RTC.h **** }RTC_DST_TIME;
  63:Generated_Source\PSoC4/RTC.h **** 
  64:Generated_Source\PSoC4/RTC.h **** /** @} structures */
  65:Generated_Source\PSoC4/RTC.h **** 
  66:Generated_Source\PSoC4/RTC.h **** /*******************************************************************************
  67:Generated_Source\PSoC4/RTC.h **** *    Enumerated Types and Parameters
  68:Generated_Source\PSoC4/RTC.h **** *******************************************************************************/
  69:Generated_Source\PSoC4/RTC.h **** /* Time Format setting constants */
  70:Generated_Source\PSoC4/RTC.h **** #define RTC__HOUR_12 1
  71:Generated_Source\PSoC4/RTC.h **** #define RTC__HOUR_24 0
  72:Generated_Source\PSoC4/RTC.h **** 
  73:Generated_Source\PSoC4/RTC.h **** /*  Date Format setting constants */
  74:Generated_Source\PSoC4/RTC.h **** #define RTC__MM_DD_YYYY 0
  75:Generated_Source\PSoC4/RTC.h **** #define RTC__DD_MM_YYYY 1
  76:Generated_Source\PSoC4/RTC.h **** #define RTC__YYYY_MM_DD 2
  77:Generated_Source\PSoC4/RTC.h **** 
  78:Generated_Source\PSoC4/RTC.h **** /* Date Type setting constants */
  79:Generated_Source\PSoC4/RTC.h **** #define RTC__RELATIVE 0
  80:Generated_Source\PSoC4/RTC.h **** #define RTC__FIXED 1
  81:Generated_Source\PSoC4/RTC.h **** 
  82:Generated_Source\PSoC4/RTC.h **** /* DST Hour setting constants */
  83:Generated_Source\PSoC4/RTC.h **** #define RTC__H0000 0
  84:Generated_Source\PSoC4/RTC.h **** #define RTC__H0100 1
  85:Generated_Source\PSoC4/RTC.h **** #define RTC__H0200 2
  86:Generated_Source\PSoC4/RTC.h **** #define RTC__H0300 3
  87:Generated_Source\PSoC4/RTC.h **** #define RTC__H0400 4
  88:Generated_Source\PSoC4/RTC.h **** #define RTC__H0500 5
ARM GAS  C:\Users\okuntso\AppData\Local\Temp\ccSegaCM.s 			page 3


  89:Generated_Source\PSoC4/RTC.h **** #define RTC__H0600 6
  90:Generated_Source\PSoC4/RTC.h **** #define RTC__H0700 7
  91:Generated_Source\PSoC4/RTC.h **** #define RTC__H0800 8
  92:Generated_Source\PSoC4/RTC.h **** #define RTC__H0900 9
  93:Generated_Source\PSoC4/RTC.h **** #define RTC__H1000 10
  94:Generated_Source\PSoC4/RTC.h **** #define RTC__H1100 11
  95:Generated_Source\PSoC4/RTC.h **** #define RTC__H1200 12
  96:Generated_Source\PSoC4/RTC.h **** #define RTC__H1300 13
  97:Generated_Source\PSoC4/RTC.h **** #define RTC__H1400 14
  98:Generated_Source\PSoC4/RTC.h **** #define RTC__H1500 15
  99:Generated_Source\PSoC4/RTC.h **** #define RTC__H1600 16
 100:Generated_Source\PSoC4/RTC.h **** #define RTC__H1700 17
 101:Generated_Source\PSoC4/RTC.h **** #define RTC__H1800 18
 102:Generated_Source\PSoC4/RTC.h **** #define RTC__H1900 19
 103:Generated_Source\PSoC4/RTC.h **** #define RTC__H2000 20
 104:Generated_Source\PSoC4/RTC.h **** #define RTC__H2100 21
 105:Generated_Source\PSoC4/RTC.h **** #define RTC__H2200 22
 106:Generated_Source\PSoC4/RTC.h **** #define RTC__H2300 23
 107:Generated_Source\PSoC4/RTC.h **** 
 108:Generated_Source\PSoC4/RTC.h **** /* DST DayOfWeek setting constants */
 109:Generated_Source\PSoC4/RTC.h **** #define RTC__SUNDAY 1
 110:Generated_Source\PSoC4/RTC.h **** #define RTC__MONDAY 2
 111:Generated_Source\PSoC4/RTC.h **** #define RTC__TUESDAY 3
 112:Generated_Source\PSoC4/RTC.h **** #define RTC__WEDNESDAY 4
 113:Generated_Source\PSoC4/RTC.h **** #define RTC__THURSDAY 5
 114:Generated_Source\PSoC4/RTC.h **** #define RTC__FRIDAY 6
 115:Generated_Source\PSoC4/RTC.h **** #define RTC__SATURDAY 7
 116:Generated_Source\PSoC4/RTC.h **** 
 117:Generated_Source\PSoC4/RTC.h **** /* DST Month setting constants */
 118:Generated_Source\PSoC4/RTC.h **** #define RTC__JAN 1
 119:Generated_Source\PSoC4/RTC.h **** #define RTC__FEB 2
 120:Generated_Source\PSoC4/RTC.h **** #define RTC__MAR 3
 121:Generated_Source\PSoC4/RTC.h **** #define RTC__APR 4
 122:Generated_Source\PSoC4/RTC.h **** #define RTC__MAY 5
 123:Generated_Source\PSoC4/RTC.h **** #define RTC__JUN 6
 124:Generated_Source\PSoC4/RTC.h **** #define RTC__JUL 7
 125:Generated_Source\PSoC4/RTC.h **** #define RTC__AUG 8
 126:Generated_Source\PSoC4/RTC.h **** #define RTC__SEP 9
 127:Generated_Source\PSoC4/RTC.h **** #define RTC__OCT 10
 128:Generated_Source\PSoC4/RTC.h **** #define RTC__NOV 11
 129:Generated_Source\PSoC4/RTC.h **** #define RTC__DEC 12
 130:Generated_Source\PSoC4/RTC.h **** 
 131:Generated_Source\PSoC4/RTC.h **** /* DST WeekOfMonth setting constants */
 132:Generated_Source\PSoC4/RTC.h **** #define RTC__FIRST 1
 133:Generated_Source\PSoC4/RTC.h **** #define RTC__SECOND 2
 134:Generated_Source\PSoC4/RTC.h **** #define RTC__THIRD 3
 135:Generated_Source\PSoC4/RTC.h **** #define RTC__FOURTH 4
 136:Generated_Source\PSoC4/RTC.h **** #define RTC__FIFTH 5
 137:Generated_Source\PSoC4/RTC.h **** #define RTC__LAST 6
 138:Generated_Source\PSoC4/RTC.h **** 
 139:Generated_Source\PSoC4/RTC.h **** 
 140:Generated_Source\PSoC4/RTC.h **** #define RTC_INITIAL_DATA_FORMAT     (0u)
 141:Generated_Source\PSoC4/RTC.h **** #define RTC_INITIAL_TIME_FORMAT     (0u)
 142:Generated_Source\PSoC4/RTC.h **** #define RTC_INITIAL_UPDATE_MODE     (0u)
 143:Generated_Source\PSoC4/RTC.h **** #define RTC_INITIAL_SECOND          (0u)
 144:Generated_Source\PSoC4/RTC.h **** #define RTC_INITIAL_MINUTE          (0u)
 145:Generated_Source\PSoC4/RTC.h **** #define RTC_INITIAL_HOUR            (0u)
ARM GAS  C:\Users\okuntso\AppData\Local\Temp\ccSegaCM.s 			page 4


 146:Generated_Source\PSoC4/RTC.h **** #define RTC_INITIAL_DAY             (1u)
 147:Generated_Source\PSoC4/RTC.h **** #define RTC_INITIAL_MONTH           (1u)
 148:Generated_Source\PSoC4/RTC.h **** #define RTC_INITIAL_YEAR            (1970u)
 149:Generated_Source\PSoC4/RTC.h **** 
 150:Generated_Source\PSoC4/RTC.h **** #define RTC_INITIAL_ALARM_STATUS    (0u)
 151:Generated_Source\PSoC4/RTC.h **** 
 152:Generated_Source\PSoC4/RTC.h **** #define RTC_INITIAL_DST_STATUS      (1u)
 153:Generated_Source\PSoC4/RTC.h **** #define RTC_INITIAL_DST_DATE_TYPE   (1u)
 154:Generated_Source\PSoC4/RTC.h **** #define RTC_INITIAL_DST_START_MONTH (3uL)
 155:Generated_Source\PSoC4/RTC.h **** #define RTC_INITIAL_DST_START_WOM   (6uL)
 156:Generated_Source\PSoC4/RTC.h **** #define RTC_INITIAL_DST_START_DOM   (22uL)
 157:Generated_Source\PSoC4/RTC.h **** #define RTC_INITIAL_DST_START_DOW   (1uL)
 158:Generated_Source\PSoC4/RTC.h **** #define RTC_INITIAL_DST_START_HRS   (3uL)
 159:Generated_Source\PSoC4/RTC.h **** #define RTC_INITIAL_DST_STOP_MONTH  (10uL)
 160:Generated_Source\PSoC4/RTC.h **** #define RTC_INITIAL_DST_STOP_DOM    (22uL)
 161:Generated_Source\PSoC4/RTC.h **** #define RTC_INITIAL_DST_STOP_DOW    (1uL)
 162:Generated_Source\PSoC4/RTC.h **** #define RTC_INITIAL_DST_STOP_WOM    (6uL)
 163:Generated_Source\PSoC4/RTC.h **** #define RTC_INITIAL_DST_STOP_HRS    (3uL)
 164:Generated_Source\PSoC4/RTC.h **** 
 165:Generated_Source\PSoC4/RTC.h **** /* Day of week definitions */
 166:Generated_Source\PSoC4/RTC.h **** #define RTC_SUNDAY     (RTC__SUNDAY)
 167:Generated_Source\PSoC4/RTC.h **** #define RTC_MONDAY     (RTC__MONDAY)
 168:Generated_Source\PSoC4/RTC.h **** #define RTC_TUESDAY    (RTC__TUESDAY)
 169:Generated_Source\PSoC4/RTC.h **** #define RTC_WEDNESDAY  (RTC__WEDNESDAY)
 170:Generated_Source\PSoC4/RTC.h **** #define RTC_THURSDAY   (RTC__THURSDAY)
 171:Generated_Source\PSoC4/RTC.h **** #define RTC_FRIDAY     (RTC__FRIDAY)
 172:Generated_Source\PSoC4/RTC.h **** #define RTC_SATURDAY   (RTC__SATURDAY)
 173:Generated_Source\PSoC4/RTC.h **** 
 174:Generated_Source\PSoC4/RTC.h **** /* DST WeekOfMonth setting constants definitions */
 175:Generated_Source\PSoC4/RTC.h **** #define RTC_FIRST      (RTC__FIRST)
 176:Generated_Source\PSoC4/RTC.h **** #define RTC_SECOND     (RTC__SECOND)
 177:Generated_Source\PSoC4/RTC.h **** #define RTC_THIRD      (RTC__THIRD)
 178:Generated_Source\PSoC4/RTC.h **** #define RTC_FOURTH     (RTC__FOURTH)
 179:Generated_Source\PSoC4/RTC.h **** #define RTC_FIFTH      (RTC__FIFTH)
 180:Generated_Source\PSoC4/RTC.h **** #define RTC_LAST       (RTC__LAST)
 181:Generated_Source\PSoC4/RTC.h **** 
 182:Generated_Source\PSoC4/RTC.h **** /* Month definitions */
 183:Generated_Source\PSoC4/RTC.h **** #define RTC_JANUARY    (RTC__JAN)
 184:Generated_Source\PSoC4/RTC.h **** #define RTC_FEBRUARY   (RTC__FEB)
 185:Generated_Source\PSoC4/RTC.h **** #define RTC_MARCH      (RTC__MAR)
 186:Generated_Source\PSoC4/RTC.h **** #define RTC_APRIL      (RTC__APR)
 187:Generated_Source\PSoC4/RTC.h **** #define RTC_MAY        (RTC__MAY)
 188:Generated_Source\PSoC4/RTC.h **** #define RTC_JUNE       (RTC__JUN)
 189:Generated_Source\PSoC4/RTC.h **** #define RTC_JULY       (RTC__JUL)
 190:Generated_Source\PSoC4/RTC.h **** #define RTC_AUGUST     (RTC__AUG)
 191:Generated_Source\PSoC4/RTC.h **** #define RTC_SEPTEMBER  (RTC__SEP)
 192:Generated_Source\PSoC4/RTC.h **** #define RTC_OCTOBER    (RTC__OCT)
 193:Generated_Source\PSoC4/RTC.h **** #define RTC_NOVEMBER   (RTC__NOV)
 194:Generated_Source\PSoC4/RTC.h **** #define RTC_DECEMBER   (RTC__DEC)
 195:Generated_Source\PSoC4/RTC.h **** 
 196:Generated_Source\PSoC4/RTC.h **** #define RTC_DAYS_PER_WEEK       (7u)
 197:Generated_Source\PSoC4/RTC.h **** 
 198:Generated_Source\PSoC4/RTC.h **** /* Number of days in month definitions */
 199:Generated_Source\PSoC4/RTC.h **** #define RTC_DAYS_IN_JANUARY     (31u)
 200:Generated_Source\PSoC4/RTC.h **** #define RTC_DAYS_IN_FEBRUARY    (28u)
 201:Generated_Source\PSoC4/RTC.h **** #define RTC_DAYS_IN_MARCH       (31u)
 202:Generated_Source\PSoC4/RTC.h **** #define RTC_DAYS_IN_APRIL       (30u)
ARM GAS  C:\Users\okuntso\AppData\Local\Temp\ccSegaCM.s 			page 5


 203:Generated_Source\PSoC4/RTC.h **** #define RTC_DAYS_IN_MAY         (31u)
 204:Generated_Source\PSoC4/RTC.h **** #define RTC_DAYS_IN_JUNE        (30u)
 205:Generated_Source\PSoC4/RTC.h **** #define RTC_DAYS_IN_JULY        (31u)
 206:Generated_Source\PSoC4/RTC.h **** #define RTC_DAYS_IN_AUGUST      (31u)
 207:Generated_Source\PSoC4/RTC.h **** #define RTC_DAYS_IN_SEPTEMBER   (30u)
 208:Generated_Source\PSoC4/RTC.h **** #define RTC_DAYS_IN_OCTOBER     (31u)
 209:Generated_Source\PSoC4/RTC.h **** #define RTC_DAYS_IN_NOVEMBER    (30u)
 210:Generated_Source\PSoC4/RTC.h **** #define RTC_DAYS_IN_DECEMBER    (31u)
 211:Generated_Source\PSoC4/RTC.h **** 
 212:Generated_Source\PSoC4/RTC.h **** #define RTC_MONTHS_PER_YEAR     (12uL)
 213:Generated_Source\PSoC4/RTC.h **** 
 214:Generated_Source\PSoC4/RTC.h **** #define RTC_HOURS_PER_DAY       (24uL)
 215:Generated_Source\PSoC4/RTC.h **** #define RTC_HOURS_PER_HALF_DAY  (12uL)
 216:Generated_Source\PSoC4/RTC.h **** 
 217:Generated_Source\PSoC4/RTC.h **** #define RTC_SECONDS_PER_MINUTE  (60uL)
 218:Generated_Source\PSoC4/RTC.h **** #define RTC_SECONDS_PER_HOUR    (3600uL)
 219:Generated_Source\PSoC4/RTC.h **** #define RTC_SECONDS_PER_DAY     (24uL * 3600uL)
 220:Generated_Source\PSoC4/RTC.h **** 
 221:Generated_Source\PSoC4/RTC.h **** #define RTC_SECONDS_PER_LEAP_YEAR    (366uL * 24uL * 3600uL)
 222:Generated_Source\PSoC4/RTC.h **** #define RTC_SECONDS_PER_NONLEAP_YEAR (365uL * 24uL * 3600uL)
 223:Generated_Source\PSoC4/RTC.h **** 
 224:Generated_Source\PSoC4/RTC.h **** #define RTC_UNIX_TIME_PM   ((12uL * 3600uL) + 1uL)
 225:Generated_Source\PSoC4/RTC.h **** 
 226:Generated_Source\PSoC4/RTC.h **** /* AM/PM status definitions */
 227:Generated_Source\PSoC4/RTC.h **** #define RTC_AM                 (0u)
 228:Generated_Source\PSoC4/RTC.h **** #define RTC_PM                 (1u)
 229:Generated_Source\PSoC4/RTC.h **** 
 230:Generated_Source\PSoC4/RTC.h **** /* Time format definitions */
 231:Generated_Source\PSoC4/RTC.h **** #define RTC_12_HOURS_FORMAT    (RTC__HOUR_12)
 232:Generated_Source\PSoC4/RTC.h **** #define RTC_24_HOURS_FORMAT    (RTC__HOUR_24)
 233:Generated_Source\PSoC4/RTC.h **** 
 234:Generated_Source\PSoC4/RTC.h **** /* UNIX time begins in 1970 year.  */
 235:Generated_Source\PSoC4/RTC.h **** #define RTC_YEAR_0             (1970u)
 236:Generated_Source\PSoC4/RTC.h **** 
 237:Generated_Source\PSoC4/RTC.h **** /* Definition of date register fields */
 238:Generated_Source\PSoC4/RTC.h **** #if(RTC_INITIAL_DATA_FORMAT == RTC__MM_DD_YYYY)
 239:Generated_Source\PSoC4/RTC.h ****     #define RTC_10_MONTH_OFFSET   (28u)
 240:Generated_Source\PSoC4/RTC.h ****     #define RTC_MONTH_OFFSET      (24u)
 241:Generated_Source\PSoC4/RTC.h ****     #define RTC_10_DAY_OFFSET     (20u)
 242:Generated_Source\PSoC4/RTC.h ****     #define RTC_DAY_OFFSET        (16u)
 243:Generated_Source\PSoC4/RTC.h ****     #define RTC_1000_YEAR_OFFSET  (12u)
 244:Generated_Source\PSoC4/RTC.h ****     #define RTC_100_YEAR_OFFSET   (8u)
 245:Generated_Source\PSoC4/RTC.h ****     #define RTC_10_YEAR_OFFSET    (4u)
 246:Generated_Source\PSoC4/RTC.h ****     #define RTC_YEAR_OFFSET       (0u)
 247:Generated_Source\PSoC4/RTC.h **** #elif(RTC_INITIAL_DATA_FORMAT == RTC__DD_MM_YYYY)
 248:Generated_Source\PSoC4/RTC.h ****     #define RTC_10_MONTH_OFFSET   (20u)
 249:Generated_Source\PSoC4/RTC.h ****     #define RTC_MONTH_OFFSET      (16u)
 250:Generated_Source\PSoC4/RTC.h ****     #define RTC_10_DAY_OFFSET     (28u)
 251:Generated_Source\PSoC4/RTC.h ****     #define RTC_DAY_OFFSET        (24u)
 252:Generated_Source\PSoC4/RTC.h ****     #define RTC_1000_YEAR_OFFSET  (12u)
 253:Generated_Source\PSoC4/RTC.h ****     #define RTC_100_YEAR_OFFSET   (8u)
 254:Generated_Source\PSoC4/RTC.h ****     #define RTC_10_YEAR_OFFSET    (4u)
 255:Generated_Source\PSoC4/RTC.h ****     #define RTC_YEAR_OFFSET       (0u)
 256:Generated_Source\PSoC4/RTC.h **** #else
 257:Generated_Source\PSoC4/RTC.h ****     #define RTC_10_MONTH_OFFSET   (12u)
 258:Generated_Source\PSoC4/RTC.h ****     #define RTC_MONTH_OFFSET      (8u)
 259:Generated_Source\PSoC4/RTC.h ****     #define RTC_10_DAY_OFFSET     (4u)
ARM GAS  C:\Users\okuntso\AppData\Local\Temp\ccSegaCM.s 			page 6


 260:Generated_Source\PSoC4/RTC.h ****     #define RTC_DAY_OFFSET        (0u)
 261:Generated_Source\PSoC4/RTC.h ****     #define RTC_1000_YEAR_OFFSET  (28u)
 262:Generated_Source\PSoC4/RTC.h ****     #define RTC_100_YEAR_OFFSET   (24u)
 263:Generated_Source\PSoC4/RTC.h ****     #define RTC_10_YEAR_OFFSET    (20u)
 264:Generated_Source\PSoC4/RTC.h ****     #define RTC_YEAR_OFFSET       (16u)
 265:Generated_Source\PSoC4/RTC.h **** #endif /* (RTC_INITIAL_DATA_FORMAT == RTC__MM_DD_YYYY) */
 266:Generated_Source\PSoC4/RTC.h **** 
 267:Generated_Source\PSoC4/RTC.h **** #define RTC_10_MONTH_MASK          (0x00000001uL << RTC_10_MONTH_OFFSET)
 268:Generated_Source\PSoC4/RTC.h **** #define RTC_MONTH_MASK             (0x0000000FuL << RTC_MONTH_OFFSET)
 269:Generated_Source\PSoC4/RTC.h **** #define RTC_10_DAY_MASK            (0x00000003uL << RTC_10_DAY_OFFSET)
 270:Generated_Source\PSoC4/RTC.h **** #define RTC_DAY_MASK               (0x0000000FuL << RTC_DAY_OFFSET)
 271:Generated_Source\PSoC4/RTC.h **** #define RTC_1000_YEAR_MASK         (0x00000003uL << RTC_1000_YEAR_OFFSET)
 272:Generated_Source\PSoC4/RTC.h **** #define RTC_100_YEAR_MASK          (0x0000000FuL << RTC_100_YEAR_OFFSET)
 273:Generated_Source\PSoC4/RTC.h **** #define RTC_10_YEAR_MASK           (0x0000000FuL << RTC_10_YEAR_OFFSET)
 274:Generated_Source\PSoC4/RTC.h **** #define RTC_YEAR_MASK              (0x0000000FuL << RTC_YEAR_OFFSET)
 275:Generated_Source\PSoC4/RTC.h **** 
 276:Generated_Source\PSoC4/RTC.h **** #define  RTC_MONTH_FULL_MASK       (RTC_10_MONTH_MASK  | RTC_MONTH_MASK)
 277:Generated_Source\PSoC4/RTC.h **** #define  RTC_DAY_FULL_MASK         (RTC_10_DAY_MASK    | RTC_DAY_MASK)
 278:Generated_Source\PSoC4/RTC.h **** #define  RTC_YEAR_FULL_MASK        (RTC_1000_YEAR_MASK | RTC_100_YEAR_MASK |\
 279:Generated_Source\PSoC4/RTC.h ****                                                  RTC_10_YEAR_MASK   | RTC_YEAR_MASK)
 280:Generated_Source\PSoC4/RTC.h **** 
 281:Generated_Source\PSoC4/RTC.h **** 
 282:Generated_Source\PSoC4/RTC.h **** /* Definition of time register fields */
 283:Generated_Source\PSoC4/RTC.h **** #define RTC_TIME_FORMAT_OFFSET     (23u)
 284:Generated_Source\PSoC4/RTC.h **** #define RTC_PERIOD_OF_DAY_OFFSET   (22u)
 285:Generated_Source\PSoC4/RTC.h **** #define RTC_10_HOURS_OFFSET        (20u)
 286:Generated_Source\PSoC4/RTC.h **** #define RTC_HOURS_OFFSET           (16u)
 287:Generated_Source\PSoC4/RTC.h **** #define RTC_10_MINUTES_OFFSET      (12u)
 288:Generated_Source\PSoC4/RTC.h **** #define RTC_MINUTES_OFFSET         (8u)
 289:Generated_Source\PSoC4/RTC.h **** #define RTC_10_SECONDS_OFFSET      (4u)
 290:Generated_Source\PSoC4/RTC.h **** #define RTC_SECONDS_OFFSET         (0u)
 291:Generated_Source\PSoC4/RTC.h **** 
 292:Generated_Source\PSoC4/RTC.h **** #define RTC_TIME_FORMAT_MASK       (0x00000001uL << RTC_TIME_FORMAT_OFFSET)
 293:Generated_Source\PSoC4/RTC.h **** #define RTC_PERIOD_OF_DAY_MASK     (0x00000001uL << RTC_PERIOD_OF_DAY_OFFSET)
 294:Generated_Source\PSoC4/RTC.h **** #define RTC_10_HOURS_MASK          (0x00000003uL << RTC_10_HOURS_OFFSET)
 295:Generated_Source\PSoC4/RTC.h **** #define RTC_HOURS_MASK             (0x0000000FuL << RTC_HOURS_OFFSET)
 296:Generated_Source\PSoC4/RTC.h **** #define RTC_10_MINUTES_MASK        (0x00000007uL << RTC_10_MINUTES_OFFSET)
 297:Generated_Source\PSoC4/RTC.h **** #define RTC_MINUTES_MASK           (0x0000000FuL << RTC_MINUTES_OFFSET)
 298:Generated_Source\PSoC4/RTC.h **** #define RTC_10_SECONDS_MASK        (0x00000007uL << RTC_10_SECONDS_OFFSET)
 299:Generated_Source\PSoC4/RTC.h **** #define RTC_SECONDS_MASK           (0x0000000FuL << RTC_SECONDS_OFFSET)
 300:Generated_Source\PSoC4/RTC.h **** 
 301:Generated_Source\PSoC4/RTC.h **** #define RTC_HOURS_FULL_MASK        (RTC_10_HOURS_MASK   | RTC_HOURS_MASK)
 302:Generated_Source\PSoC4/RTC.h **** #define RTC_MINUTES_FULL_MASK      (RTC_10_MINUTES_MASK | RTC_MINUTES_MASK)
 303:Generated_Source\PSoC4/RTC.h **** #define RTC_SECONDS_FULL_MASK      (RTC_10_SECONDS_MASK | RTC_SECONDS_MASK)
 304:Generated_Source\PSoC4/RTC.h **** 
 305:Generated_Source\PSoC4/RTC.h **** #define RTC_ALARM_SEC_MASK         (0x00000001uL)
 306:Generated_Source\PSoC4/RTC.h **** #define RTC_ALARM_MIN_MASK         (0x00000002uL)
 307:Generated_Source\PSoC4/RTC.h **** #define RTC_ALARM_HOUR_MASK        (0x00000004uL)
 308:Generated_Source\PSoC4/RTC.h **** #define RTC_ALARM_DAYOFWEEK_MASK   (0x00000008uL)
 309:Generated_Source\PSoC4/RTC.h **** #define RTC_ALARM_DAYOFMONTH_MASK  (0x00000010uL)
 310:Generated_Source\PSoC4/RTC.h **** #define RTC_ALARM_MONTH_MASK       (0x00000020uL)
 311:Generated_Source\PSoC4/RTC.h **** #define RTC_ALARM_YEAR_MASK        (0x00000040uL)
 312:Generated_Source\PSoC4/RTC.h **** 
 313:Generated_Source\PSoC4/RTC.h **** #define RTC_STATUS_DST_OFFSET      (1u)
 314:Generated_Source\PSoC4/RTC.h **** #define RTC_STATUS_ALARM_OFFSET    (2u)
 315:Generated_Source\PSoC4/RTC.h **** #define RTC_STATUS_LY_OFFSET       (3u)
 316:Generated_Source\PSoC4/RTC.h **** #define RTC_STATUS_AM_PM_OFFSET    (4u)
ARM GAS  C:\Users\okuntso\AppData\Local\Temp\ccSegaCM.s 			page 7


 317:Generated_Source\PSoC4/RTC.h **** 
 318:Generated_Source\PSoC4/RTC.h **** /* Definition of the RTC status values. */
 319:Generated_Source\PSoC4/RTC.h **** #define RTC_STATUS_DST             (1uL << RTC_STATUS_DST_OFFSET)
 320:Generated_Source\PSoC4/RTC.h **** #define RTC_STATUS_LY              (1uL << RTC_STATUS_LY_OFFSET)
 321:Generated_Source\PSoC4/RTC.h **** #define RTC_STATUS_AM_PM           (1uL << RTC_STATUS_AM_PM_OFFSET)
 322:Generated_Source\PSoC4/RTC.h **** 
 323:Generated_Source\PSoC4/RTC.h **** /* Number of bits per one BCD digit. */
 324:Generated_Source\PSoC4/RTC.h **** #define RTC_BCD_NUMBER_SIZE        (4u)
 325:Generated_Source\PSoC4/RTC.h **** #define RTC_BCD_ONE_DIGIT_MASK     (0x0000000FuL)
 326:Generated_Source\PSoC4/RTC.h **** 
 327:Generated_Source\PSoC4/RTC.h **** /*******************************************************************************
 328:Generated_Source\PSoC4/RTC.h **** *    Function Prototypes
 329:Generated_Source\PSoC4/RTC.h **** *******************************************************************************/
 330:Generated_Source\PSoC4/RTC.h **** /**
 331:Generated_Source\PSoC4/RTC.h **** * \addtogroup group_api
 332:Generated_Source\PSoC4/RTC.h **** * @{
 333:Generated_Source\PSoC4/RTC.h **** */
 334:Generated_Source\PSoC4/RTC.h **** void   RTC_Start(void);
 335:Generated_Source\PSoC4/RTC.h **** void   RTC_Stop(void);
 336:Generated_Source\PSoC4/RTC.h **** void   RTC_Init(void);
 337:Generated_Source\PSoC4/RTC.h **** void   RTC_SetUnixTime(uint64 unixTime);
 338:Generated_Source\PSoC4/RTC.h **** uint64 RTC_GetUnixTime(void);
 339:Generated_Source\PSoC4/RTC.h **** void   RTC_SetPeriod(uint32 ticks, uint32 refOneSecTicks);
 340:Generated_Source\PSoC4/RTC.h **** uint32 RTC_GetPeriod(void);
 341:Generated_Source\PSoC4/RTC.h **** uint32 RTC_GetRefOneSec(void);
 342:Generated_Source\PSoC4/RTC.h **** void   RTC_SetDateAndTime(uint32 inputTime, uint32 inputDate);
 343:Generated_Source\PSoC4/RTC.h **** void   RTC_GetDateAndTime(RTC_DATE_TIME* dateTime);
 344:Generated_Source\PSoC4/RTC.h **** uint32 RTC_GetTime(void);
 345:Generated_Source\PSoC4/RTC.h **** uint32 RTC_GetDate(void);
 346:Generated_Source\PSoC4/RTC.h **** void   RTC_SetAlarmDateAndTime(const RTC_DATE_TIME* alarmTime);
 347:Generated_Source\PSoC4/RTC.h **** void   RTC_GetAlarmDateAndTime(RTC_DATE_TIME* alarmTimeDate);
 348:Generated_Source\PSoC4/RTC.h **** void   RTC_SetAlarmMask(uint32 mask);
 349:Generated_Source\PSoC4/RTC.h **** uint32 RTC_GetAlarmMask(void);
 350:Generated_Source\PSoC4/RTC.h **** uint32 RTC_ReadStatus(void);
 351:Generated_Source\PSoC4/RTC.h **** uint32 RTC_GetAlarmStatus(void);
 352:Generated_Source\PSoC4/RTC.h **** void   RTC_ClearAlarmStatus(void);
 353:Generated_Source\PSoC4/RTC.h **** void   RTC_SetDSTStartTime(const RTC_DST_TIME* dstStartTime,
 354:Generated_Source\PSoC4/RTC.h ****                                               RTC_DST_DATETYPE_ENUM type);
 355:Generated_Source\PSoC4/RTC.h **** void   RTC_SetDSTStopTime(const RTC_DST_TIME* dstStopTime,
 356:Generated_Source\PSoC4/RTC.h ****                                              RTC_DST_DATETYPE_ENUM type);
 357:Generated_Source\PSoC4/RTC.h **** uint32 RTC_ConvertBCDToDec(uint32 bcdNum);
 358:Generated_Source\PSoC4/RTC.h **** uint32 RTC_ConvertDecToBCD(uint32 decNum);
 359:Generated_Source\PSoC4/RTC.h **** void   RTC_Update(void);
 360:Generated_Source\PSoC4/RTC.h **** void*  RTC_SetAlarmHandler(void (*CallbackFunction)(void));
 361:Generated_Source\PSoC4/RTC.h **** 
 362:Generated_Source\PSoC4/RTC.h **** static uint32 RTC_ConstructDate(uint32 month, uint32 day, uint32 year);
 363:Generated_Source\PSoC4/RTC.h **** static uint32 RTC_ConstructTime(uint32 timeFormat, uint32 stateAmPm, uint32 hour, uint32 min, uint3
 364:Generated_Source\PSoC4/RTC.h **** /** @} api */
 365:Generated_Source\PSoC4/RTC.h **** 
 366:Generated_Source\PSoC4/RTC.h **** static uint32 RTC_GetTimeFormat(uint32 inputTime);
 367:Generated_Source\PSoC4/RTC.h **** static uint32 RTC_SetTimeFormat(uint32 inputTime, uint32 timeFormat);
 368:Generated_Source\PSoC4/RTC.h **** 
 369:Generated_Source\PSoC4/RTC.h **** /**
 370:Generated_Source\PSoC4/RTC.h **** * \addtogroup group_api
 371:Generated_Source\PSoC4/RTC.h **** * @{
 372:Generated_Source\PSoC4/RTC.h **** */
 373:Generated_Source\PSoC4/RTC.h **** static uint32 RTC_LeapYear(uint32 year);
ARM GAS  C:\Users\okuntso\AppData\Local\Temp\ccSegaCM.s 			page 8


 374:Generated_Source\PSoC4/RTC.h **** static uint32 RTC_IsBitSet(uint32 var, uint32 mask);
 375:Generated_Source\PSoC4/RTC.h **** static uint32 RTC_GetSecond(uint32 inputTime);
 376:Generated_Source\PSoC4/RTC.h **** static uint32 RTC_GetMinutes(uint32 inputTime);
 377:Generated_Source\PSoC4/RTC.h **** static uint32 RTC_GetHours(uint32 inputTime);
 378:Generated_Source\PSoC4/RTC.h **** static uint32 RTC_GetAmPm(uint32 inputTime);
 379:Generated_Source\PSoC4/RTC.h **** static uint32 RTC_GetDay(uint32 date);
 380:Generated_Source\PSoC4/RTC.h **** static uint32 RTC_GetMonth(uint32 date);
 381:Generated_Source\PSoC4/RTC.h **** static uint32 RTC_GetYear(uint32 date);
 382:Generated_Source\PSoC4/RTC.h **** /** @} api */
 383:Generated_Source\PSoC4/RTC.h **** 
 384:Generated_Source\PSoC4/RTC.h **** static uint32 RTC_SetSecond(uint32 inputTime, uint32 inputSecond);
 385:Generated_Source\PSoC4/RTC.h **** static uint32 RTC_SetMinutes(uint32 inputTime, uint32 inputMinute);
 386:Generated_Source\PSoC4/RTC.h **** static uint32 RTC_SetHours(uint32 inputTime, uint32 inputHours);
 387:Generated_Source\PSoC4/RTC.h **** static uint32 RTC_SetAmPm(uint32 inputTime, uint32 periodOfDay);
 388:Generated_Source\PSoC4/RTC.h **** static uint32 RTC_SetDay(uint32 inputDate, uint32 inputDay);
 389:Generated_Source\PSoC4/RTC.h **** static uint32 RTC_SetMonth(uint32 inputDate, uint32 inputMonth);
 390:Generated_Source\PSoC4/RTC.h **** static uint32 RTC_SetYear(uint32 inputDate, uint32 inputYear);
 391:Generated_Source\PSoC4/RTC.h **** 
 392:Generated_Source\PSoC4/RTC.h **** uint64 RTC_ConstructUnixAlarmTime(const RTC_DATE_TIME* alarmTime, uint8 alarmCfgMask);
 393:Generated_Source\PSoC4/RTC.h **** uint64 RTC_GetDstUnixTime(const RTC_DST_TIME* dstTime);
 394:Generated_Source\PSoC4/RTC.h **** uint64 RTC_GetNexAlarmTime(uint64 curUnixTime, uint8 alarmCfgMask);
 395:Generated_Source\PSoC4/RTC.h **** 
 396:Generated_Source\PSoC4/RTC.h **** static uint32 RTC_GetNextMinSec(uint32 curVal);
 397:Generated_Source\PSoC4/RTC.h **** static uint32 RTC_GetNextHour(uint32 curVal);
 398:Generated_Source\PSoC4/RTC.h **** static uint32 RTC_GetNextDay(uint32 curYear, uint32 curMonth, uint32 curDay, uint32 alarmCfgMask);
 399:Generated_Source\PSoC4/RTC.h **** static uint32 RTC_GetNextMonth(uint32 curMonth);
 400:Generated_Source\PSoC4/RTC.h **** static uint32 RTC_GetNextYear(uint32 curYear);
 401:Generated_Source\PSoC4/RTC.h **** static uint32 RTC_GetDayOfWeek(uint32 day, uint32 month, uint32 year);
 402:Generated_Source\PSoC4/RTC.h **** 
 403:Generated_Source\PSoC4/RTC.h **** uint32 RTC_DaysInMonth(uint32 month, uint32 year);
 404:Generated_Source\PSoC4/RTC.h **** uint32 RTC_DaysBeforeMonth(uint32 month, uint32 year);
 405:Generated_Source\PSoC4/RTC.h **** 
 406:Generated_Source\PSoC4/RTC.h **** /**
 407:Generated_Source\PSoC4/RTC.h **** * \addtogroup group_api
 408:Generated_Source\PSoC4/RTC.h **** * @{
 409:Generated_Source\PSoC4/RTC.h **** */
 410:Generated_Source\PSoC4/RTC.h **** void   RTC_UnixToDateTime(RTC_DATE_TIME* dateTime, uint64 unixTime, uint32 timeFormat);
 411:Generated_Source\PSoC4/RTC.h **** uint64 RTC_DateTimeToUnix(uint32 inputDate, uint32 inputTime);
 412:Generated_Source\PSoC4/RTC.h **** /** @} api */
 413:Generated_Source\PSoC4/RTC.h **** 
 414:Generated_Source\PSoC4/RTC.h **** uint32 RTC_RelativeToFixed(uint32 dayOfWeek, uint32 weekOfMonth, uint32 month, uint32 year);
 415:Generated_Source\PSoC4/RTC.h **** 
 416:Generated_Source\PSoC4/RTC.h **** 
 417:Generated_Source\PSoC4/RTC.h **** #if defined(CYDEV_RTC_SOURCE_WDT)
 418:Generated_Source\PSoC4/RTC.h ****     #if((0u != CYDEV_WDT_GENERATE_ISR) && (0u == RTC_INITIAL_UPDATE_MODE))
 419:Generated_Source\PSoC4/RTC.h ****         static void RTC_CySysRtcSetCallback(uint32 wdtNumber);
 420:Generated_Source\PSoC4/RTC.h ****         static void RTC_CySysRtcResetCallback(uint32 wdtNumber);
 421:Generated_Source\PSoC4/RTC.h ****     #endif /* ((0u != CYDEV_WDT_GENERATE_ISR) && (0u == RTC_INITIAL_UPDATE_MODE)) */
 422:Generated_Source\PSoC4/RTC.h **** #endif /* (CYDEV_RTC_SOURCE_WDT) */
 423:Generated_Source\PSoC4/RTC.h **** 
 424:Generated_Source\PSoC4/RTC.h **** /*******************************************************************************
 425:Generated_Source\PSoC4/RTC.h **** * Function Name: RTC_IsBitSet
 426:Generated_Source\PSoC4/RTC.h **** ****************************************************************************//**
 427:Generated_Source\PSoC4/RTC.h **** *
 428:Generated_Source\PSoC4/RTC.h **** * \brief
 429:Generated_Source\PSoC4/RTC.h **** *  Checks the state of a bit passed through parameter.
 430:Generated_Source\PSoC4/RTC.h **** *
ARM GAS  C:\Users\okuntso\AppData\Local\Temp\ccSegaCM.s 			page 9


 431:Generated_Source\PSoC4/RTC.h **** * \param
 432:Generated_Source\PSoC4/RTC.h **** *  var The variable to be checked.
 433:Generated_Source\PSoC4/RTC.h **** * \param
 434:Generated_Source\PSoC4/RTC.h **** *  mask The mask for a bit to be checked.
 435:Generated_Source\PSoC4/RTC.h **** *
 436:Generated_Source\PSoC4/RTC.h **** * \return
 437:Generated_Source\PSoC4/RTC.h **** *  0u - Bit is not set.
 438:Generated_Source\PSoC4/RTC.h **** * \return
 439:Generated_Source\PSoC4/RTC.h **** *  1u - Bit is set.
 440:Generated_Source\PSoC4/RTC.h **** *
 441:Generated_Source\PSoC4/RTC.h **** *******************************************************************************/
 442:Generated_Source\PSoC4/RTC.h **** static CY_INLINE uint32 RTC_IsBitSet(uint32 var, uint32 mask)
 443:Generated_Source\PSoC4/RTC.h **** {
  27              		.loc 1 443 0
  28              		.cfi_startproc
  29              		@ args = 0, pretend = 0, frame = 8
  30              		@ frame_needed = 1, uses_anonymous_args = 0
  31 0000 80B5     		push	{r7, lr}
  32              		.cfi_def_cfa_offset 8
  33              		.cfi_offset 7, -8
  34              		.cfi_offset 14, -4
  35 0002 82B0     		sub	sp, sp, #8
  36              		.cfi_def_cfa_offset 16
  37 0004 00AF     		add	r7, sp, #0
  38              		.cfi_def_cfa_register 7
  39 0006 7860     		str	r0, [r7, #4]
  40 0008 3960     		str	r1, [r7]
 444:Generated_Source\PSoC4/RTC.h ****     return ((mask == (var & mask)) ? 1Lu : 0Lu);
  41              		.loc 1 444 0
  42 000a 7B68     		ldr	r3, [r7, #4]
  43 000c 3A68     		ldr	r2, [r7]
  44 000e 1A40     		ands	r2, r3
  45 0010 3B68     		ldr	r3, [r7]
  46 0012 9A42     		cmp	r2, r3
  47 0014 01D1     		bne	.L2
  48              		.loc 1 444 0 is_stmt 0 discriminator 1
  49 0016 0123     		movs	r3, #1
  50 0018 00E0     		b	.L4
  51              	.L2:
  52              		.loc 1 444 0 discriminator 2
  53 001a 0023     		movs	r3, #0
  54              	.L4:
 445:Generated_Source\PSoC4/RTC.h **** }
  55              		.loc 1 445 0 is_stmt 1 discriminator 5
  56 001c 1800     		movs	r0, r3
  57 001e BD46     		mov	sp, r7
  58 0020 02B0     		add	sp, sp, #8
  59              		@ sp needed
  60 0022 80BD     		pop	{r7, pc}
  61              		.cfi_endproc
  62              	.LFE0:
  63              		.size	RTC_IsBitSet, .-RTC_IsBitSet
  64              		.global	__aeabi_uidivmod
  65              		.section	.text.RTC_LeapYear,"ax",%progbits
  66              		.align	2
  67              		.code	16
  68              		.thumb_func
ARM GAS  C:\Users\okuntso\AppData\Local\Temp\ccSegaCM.s 			page 10


  69              		.type	RTC_LeapYear, %function
  70              	RTC_LeapYear:
  71              	.LFB1:
 446:Generated_Source\PSoC4/RTC.h **** 
 447:Generated_Source\PSoC4/RTC.h **** 
 448:Generated_Source\PSoC4/RTC.h **** /*******************************************************************************
 449:Generated_Source\PSoC4/RTC.h **** * Function Name: RTC_LeapYear
 450:Generated_Source\PSoC4/RTC.h **** ****************************************************************************//**
 451:Generated_Source\PSoC4/RTC.h **** *
 452:Generated_Source\PSoC4/RTC.h **** * \brief
 453:Generated_Source\PSoC4/RTC.h **** * Checks whether the year passed through the parameter is
 454:Generated_Source\PSoC4/RTC.h **** * leap or no.
 455:Generated_Source\PSoC4/RTC.h **** *
 456:Generated_Source\PSoC4/RTC.h **** * \param
 457:Generated_Source\PSoC4/RTC.h **** *  year The year to be checked.
 458:Generated_Source\PSoC4/RTC.h **** *
 459:Generated_Source\PSoC4/RTC.h **** *
 460:Generated_Source\PSoC4/RTC.h **** * \return
 461:Generated_Source\PSoC4/RTC.h **** *  0u - The year is not leap.
 462:Generated_Source\PSoC4/RTC.h **** * \return
 463:Generated_Source\PSoC4/RTC.h **** *  1u - The year is leap.
 464:Generated_Source\PSoC4/RTC.h **** *
 465:Generated_Source\PSoC4/RTC.h **** *******************************************************************************/
 466:Generated_Source\PSoC4/RTC.h **** static CY_INLINE uint32 RTC_LeapYear(uint32 year)
 467:Generated_Source\PSoC4/RTC.h **** {
  72              		.loc 1 467 0
  73              		.cfi_startproc
  74              		@ args = 0, pretend = 0, frame = 16
  75              		@ frame_needed = 1, uses_anonymous_args = 0
  76 0000 80B5     		push	{r7, lr}
  77              		.cfi_def_cfa_offset 8
  78              		.cfi_offset 7, -8
  79              		.cfi_offset 14, -4
  80 0002 84B0     		sub	sp, sp, #16
  81              		.cfi_def_cfa_offset 24
  82 0004 00AF     		add	r7, sp, #0
  83              		.cfi_def_cfa_register 7
  84 0006 7860     		str	r0, [r7, #4]
 468:Generated_Source\PSoC4/RTC.h ****     uint32 retVal;
 469:Generated_Source\PSoC4/RTC.h **** 
 470:Generated_Source\PSoC4/RTC.h ****     if(((0u == (year % 4Lu)) && (0u != (year % 100Lu))) || (0u == (year % 400Lu)))
  85              		.loc 1 470 0
  86 0008 7B68     		ldr	r3, [r7, #4]
  87 000a 0322     		movs	r2, #3
  88 000c 1340     		ands	r3, r2
  89 000e 06D1     		bne	.L6
  90              		.loc 1 470 0 is_stmt 0 discriminator 1
  91 0010 7B68     		ldr	r3, [r7, #4]
  92 0012 6421     		movs	r1, #100
  93 0014 1800     		movs	r0, r3
  94 0016 FFF7FEFF 		bl	__aeabi_uidivmod
  95 001a 0B1E     		subs	r3, r1, #0
  96 001c 07D1     		bne	.L7
  97              	.L6:
  98              		.loc 1 470 0 discriminator 3
  99 001e 7A68     		ldr	r2, [r7, #4]
 100 0020 C823     		movs	r3, #200
ARM GAS  C:\Users\okuntso\AppData\Local\Temp\ccSegaCM.s 			page 11


 101 0022 5900     		lsls	r1, r3, #1
 102 0024 1000     		movs	r0, r2
 103 0026 FFF7FEFF 		bl	__aeabi_uidivmod
 104 002a 0B1E     		subs	r3, r1, #0
 105 002c 02D1     		bne	.L8
 106              	.L7:
 471:Generated_Source\PSoC4/RTC.h ****     {
 472:Generated_Source\PSoC4/RTC.h ****         retVal = 1uL;
 107              		.loc 1 472 0 is_stmt 1
 108 002e 0123     		movs	r3, #1
 109 0030 FB60     		str	r3, [r7, #12]
 110 0032 01E0     		b	.L9
 111              	.L8:
 473:Generated_Source\PSoC4/RTC.h ****     }
 474:Generated_Source\PSoC4/RTC.h ****     else
 475:Generated_Source\PSoC4/RTC.h ****     {
 476:Generated_Source\PSoC4/RTC.h ****         retVal = 0uL;
 112              		.loc 1 476 0
 113 0034 0023     		movs	r3, #0
 114 0036 FB60     		str	r3, [r7, #12]
 115              	.L9:
 477:Generated_Source\PSoC4/RTC.h ****     }
 478:Generated_Source\PSoC4/RTC.h **** 
 479:Generated_Source\PSoC4/RTC.h ****     return(retVal);
 116              		.loc 1 479 0
 117 0038 FB68     		ldr	r3, [r7, #12]
 480:Generated_Source\PSoC4/RTC.h **** }
 118              		.loc 1 480 0
 119 003a 1800     		movs	r0, r3
 120 003c BD46     		mov	sp, r7
 121 003e 04B0     		add	sp, sp, #16
 122              		@ sp needed
 123 0040 80BD     		pop	{r7, pc}
 124              		.cfi_endproc
 125              	.LFE1:
 126              		.size	RTC_LeapYear, .-RTC_LeapYear
 127 0042 C046     		.section	.text.RTC_GetSecond,"ax",%progbits
 128              		.align	2
 129              		.code	16
 130              		.thumb_func
 131              		.type	RTC_GetSecond, %function
 132              	RTC_GetSecond:
 133              	.LFB2:
 481:Generated_Source\PSoC4/RTC.h **** 
 482:Generated_Source\PSoC4/RTC.h **** 
 483:Generated_Source\PSoC4/RTC.h **** /*******************************************************************************
 484:Generated_Source\PSoC4/RTC.h **** * Function Name: RTC_GetSecond
 485:Generated_Source\PSoC4/RTC.h **** ****************************************************************************//**
 486:Generated_Source\PSoC4/RTC.h **** *
 487:Generated_Source\PSoC4/RTC.h **** * \brief
 488:Generated_Source\PSoC4/RTC.h **** *  Returns the seconds value from the time value that is passed as a/the parameter.
 489:Generated_Source\PSoC4/RTC.h **** *
 490:Generated_Source\PSoC4/RTC.h **** * \param
 491:Generated_Source\PSoC4/RTC.h **** *  time The time value.
 492:Generated_Source\PSoC4/RTC.h **** *
 493:Generated_Source\PSoC4/RTC.h **** * \return
 494:Generated_Source\PSoC4/RTC.h **** *  The seconds value.
ARM GAS  C:\Users\okuntso\AppData\Local\Temp\ccSegaCM.s 			page 12


 495:Generated_Source\PSoC4/RTC.h **** *
 496:Generated_Source\PSoC4/RTC.h **** *******************************************************************************/
 497:Generated_Source\PSoC4/RTC.h **** static CY_INLINE uint32 RTC_GetSecond(uint32 inputTime)
 498:Generated_Source\PSoC4/RTC.h **** {
 134              		.loc 1 498 0
 135              		.cfi_startproc
 136              		@ args = 0, pretend = 0, frame = 16
 137              		@ frame_needed = 1, uses_anonymous_args = 0
 138 0000 80B5     		push	{r7, lr}
 139              		.cfi_def_cfa_offset 8
 140              		.cfi_offset 7, -8
 141              		.cfi_offset 14, -4
 142 0002 84B0     		sub	sp, sp, #16
 143              		.cfi_def_cfa_offset 24
 144 0004 00AF     		add	r7, sp, #0
 145              		.cfi_def_cfa_register 7
 146 0006 7860     		str	r0, [r7, #4]
 499:Generated_Source\PSoC4/RTC.h ****     uint32 retVal;
 500:Generated_Source\PSoC4/RTC.h **** 
 501:Generated_Source\PSoC4/RTC.h ****     retVal  = ((inputTime & RTC_10_SECONDS_MASK) >> RTC_10_SECONDS_OFFSET) * 10u;
 147              		.loc 1 501 0
 148 0008 7B68     		ldr	r3, [r7, #4]
 149 000a 1B09     		lsrs	r3, r3, #4
 150 000c 0722     		movs	r2, #7
 151 000e 1A40     		ands	r2, r3
 152 0010 1300     		movs	r3, r2
 153 0012 9B00     		lsls	r3, r3, #2
 154 0014 9B18     		adds	r3, r3, r2
 155 0016 5B00     		lsls	r3, r3, #1
 156 0018 FB60     		str	r3, [r7, #12]
 502:Generated_Source\PSoC4/RTC.h ****     retVal += (inputTime & RTC_SECONDS_MASK) >> RTC_SECONDS_OFFSET;
 157              		.loc 1 502 0
 158 001a 7B68     		ldr	r3, [r7, #4]
 159 001c 0F22     		movs	r2, #15
 160 001e 1340     		ands	r3, r2
 161 0020 FA68     		ldr	r2, [r7, #12]
 162 0022 D318     		adds	r3, r2, r3
 163 0024 FB60     		str	r3, [r7, #12]
 503:Generated_Source\PSoC4/RTC.h **** 
 504:Generated_Source\PSoC4/RTC.h ****     return (retVal);
 164              		.loc 1 504 0
 165 0026 FB68     		ldr	r3, [r7, #12]
 505:Generated_Source\PSoC4/RTC.h **** }
 166              		.loc 1 505 0
 167 0028 1800     		movs	r0, r3
 168 002a BD46     		mov	sp, r7
 169 002c 04B0     		add	sp, sp, #16
 170              		@ sp needed
 171 002e 80BD     		pop	{r7, pc}
 172              		.cfi_endproc
 173              	.LFE2:
 174              		.size	RTC_GetSecond, .-RTC_GetSecond
 175              		.section	.text.RTC_GetMinutes,"ax",%progbits
 176              		.align	2
 177              		.code	16
 178              		.thumb_func
 179              		.type	RTC_GetMinutes, %function
ARM GAS  C:\Users\okuntso\AppData\Local\Temp\ccSegaCM.s 			page 13


 180              	RTC_GetMinutes:
 181              	.LFB3:
 506:Generated_Source\PSoC4/RTC.h **** 
 507:Generated_Source\PSoC4/RTC.h **** 
 508:Generated_Source\PSoC4/RTC.h **** /*******************************************************************************
 509:Generated_Source\PSoC4/RTC.h **** * Function Name: RTC_GetMinutes
 510:Generated_Source\PSoC4/RTC.h **** ****************************************************************************//**
 511:Generated_Source\PSoC4/RTC.h **** *
 512:Generated_Source\PSoC4/RTC.h **** * \brief
 513:Generated_Source\PSoC4/RTC.h **** *  Returns the minutes value from the time value that is passed as a/the 
 514:Generated_Source\PSoC4/RTC.h **** * parameter.
 515:Generated_Source\PSoC4/RTC.h **** *
 516:Generated_Source\PSoC4/RTC.h **** * \param
 517:Generated_Source\PSoC4/RTC.h **** *  time The time value.
 518:Generated_Source\PSoC4/RTC.h **** *
 519:Generated_Source\PSoC4/RTC.h **** * \return
 520:Generated_Source\PSoC4/RTC.h **** *  The minutes value.
 521:Generated_Source\PSoC4/RTC.h **** *
 522:Generated_Source\PSoC4/RTC.h **** *******************************************************************************/
 523:Generated_Source\PSoC4/RTC.h **** static CY_INLINE uint32 RTC_GetMinutes(uint32 inputTime)
 524:Generated_Source\PSoC4/RTC.h **** {
 182              		.loc 1 524 0
 183              		.cfi_startproc
 184              		@ args = 0, pretend = 0, frame = 16
 185              		@ frame_needed = 1, uses_anonymous_args = 0
 186 0000 80B5     		push	{r7, lr}
 187              		.cfi_def_cfa_offset 8
 188              		.cfi_offset 7, -8
 189              		.cfi_offset 14, -4
 190 0002 84B0     		sub	sp, sp, #16
 191              		.cfi_def_cfa_offset 24
 192 0004 00AF     		add	r7, sp, #0
 193              		.cfi_def_cfa_register 7
 194 0006 7860     		str	r0, [r7, #4]
 525:Generated_Source\PSoC4/RTC.h ****     uint32 retVal;
 526:Generated_Source\PSoC4/RTC.h **** 
 527:Generated_Source\PSoC4/RTC.h ****     retVal  = ((inputTime & RTC_10_MINUTES_MASK) >> RTC_10_MINUTES_OFFSET) * 10u;
 195              		.loc 1 527 0
 196 0008 7B68     		ldr	r3, [r7, #4]
 197 000a 1B0B     		lsrs	r3, r3, #12
 198 000c 0722     		movs	r2, #7
 199 000e 1A40     		ands	r2, r3
 200 0010 1300     		movs	r3, r2
 201 0012 9B00     		lsls	r3, r3, #2
 202 0014 9B18     		adds	r3, r3, r2
 203 0016 5B00     		lsls	r3, r3, #1
 204 0018 FB60     		str	r3, [r7, #12]
 528:Generated_Source\PSoC4/RTC.h ****     retVal += (inputTime & RTC_MINUTES_MASK) >> RTC_MINUTES_OFFSET;
 205              		.loc 1 528 0
 206 001a 7B68     		ldr	r3, [r7, #4]
 207 001c 1B0A     		lsrs	r3, r3, #8
 208 001e 0F22     		movs	r2, #15
 209 0020 1340     		ands	r3, r2
 210 0022 FA68     		ldr	r2, [r7, #12]
 211 0024 D318     		adds	r3, r2, r3
 212 0026 FB60     		str	r3, [r7, #12]
 529:Generated_Source\PSoC4/RTC.h **** 
ARM GAS  C:\Users\okuntso\AppData\Local\Temp\ccSegaCM.s 			page 14


 530:Generated_Source\PSoC4/RTC.h ****     return (retVal);
 213              		.loc 1 530 0
 214 0028 FB68     		ldr	r3, [r7, #12]
 531:Generated_Source\PSoC4/RTC.h **** }
 215              		.loc 1 531 0
 216 002a 1800     		movs	r0, r3
 217 002c BD46     		mov	sp, r7
 218 002e 04B0     		add	sp, sp, #16
 219              		@ sp needed
 220 0030 80BD     		pop	{r7, pc}
 221              		.cfi_endproc
 222              	.LFE3:
 223              		.size	RTC_GetMinutes, .-RTC_GetMinutes
 224 0032 C046     		.section	.text.RTC_GetHours,"ax",%progbits
 225              		.align	2
 226              		.code	16
 227              		.thumb_func
 228              		.type	RTC_GetHours, %function
 229              	RTC_GetHours:
 230              	.LFB4:
 532:Generated_Source\PSoC4/RTC.h **** 
 533:Generated_Source\PSoC4/RTC.h **** 
 534:Generated_Source\PSoC4/RTC.h **** /*******************************************************************************
 535:Generated_Source\PSoC4/RTC.h **** * Function Name: RTC_GetHours
 536:Generated_Source\PSoC4/RTC.h **** ****************************************************************************//**
 537:Generated_Source\PSoC4/RTC.h **** *
 538:Generated_Source\PSoC4/RTC.h **** * \brief
 539:Generated_Source\PSoC4/RTC.h **** *  Returns the hours value from the time value that is passed as a/the parameter.
 540:Generated_Source\PSoC4/RTC.h **** *
 541:Generated_Source\PSoC4/RTC.h **** * \param
 542:Generated_Source\PSoC4/RTC.h **** *  time The time value.
 543:Generated_Source\PSoC4/RTC.h **** *
 544:Generated_Source\PSoC4/RTC.h **** * \return
 545:Generated_Source\PSoC4/RTC.h **** *  The hours value.
 546:Generated_Source\PSoC4/RTC.h **** *
 547:Generated_Source\PSoC4/RTC.h **** *******************************************************************************/
 548:Generated_Source\PSoC4/RTC.h **** static CY_INLINE uint32 RTC_GetHours(uint32 inputTime)
 549:Generated_Source\PSoC4/RTC.h **** {
 231              		.loc 1 549 0
 232              		.cfi_startproc
 233              		@ args = 0, pretend = 0, frame = 16
 234              		@ frame_needed = 1, uses_anonymous_args = 0
 235 0000 80B5     		push	{r7, lr}
 236              		.cfi_def_cfa_offset 8
 237              		.cfi_offset 7, -8
 238              		.cfi_offset 14, -4
 239 0002 84B0     		sub	sp, sp, #16
 240              		.cfi_def_cfa_offset 24
 241 0004 00AF     		add	r7, sp, #0
 242              		.cfi_def_cfa_register 7
 243 0006 7860     		str	r0, [r7, #4]
 550:Generated_Source\PSoC4/RTC.h ****     uint32 retVal;
 551:Generated_Source\PSoC4/RTC.h **** 
 552:Generated_Source\PSoC4/RTC.h ****     retVal  = ((inputTime & RTC_10_HOURS_MASK) >> RTC_10_HOURS_OFFSET) * 10u;
 244              		.loc 1 552 0
 245 0008 7B68     		ldr	r3, [r7, #4]
 246 000a 1B0D     		lsrs	r3, r3, #20
ARM GAS  C:\Users\okuntso\AppData\Local\Temp\ccSegaCM.s 			page 15


 247 000c 0322     		movs	r2, #3
 248 000e 1A40     		ands	r2, r3
 249 0010 1300     		movs	r3, r2
 250 0012 9B00     		lsls	r3, r3, #2
 251 0014 9B18     		adds	r3, r3, r2
 252 0016 5B00     		lsls	r3, r3, #1
 253 0018 FB60     		str	r3, [r7, #12]
 553:Generated_Source\PSoC4/RTC.h ****     retVal += (inputTime & RTC_HOURS_MASK) >> RTC_HOURS_OFFSET;
 254              		.loc 1 553 0
 255 001a 7B68     		ldr	r3, [r7, #4]
 256 001c 1B0C     		lsrs	r3, r3, #16
 257 001e 0F22     		movs	r2, #15
 258 0020 1340     		ands	r3, r2
 259 0022 FA68     		ldr	r2, [r7, #12]
 260 0024 D318     		adds	r3, r2, r3
 261 0026 FB60     		str	r3, [r7, #12]
 554:Generated_Source\PSoC4/RTC.h **** 
 555:Generated_Source\PSoC4/RTC.h ****     return (retVal);
 262              		.loc 1 555 0
 263 0028 FB68     		ldr	r3, [r7, #12]
 556:Generated_Source\PSoC4/RTC.h **** }
 264              		.loc 1 556 0
 265 002a 1800     		movs	r0, r3
 266 002c BD46     		mov	sp, r7
 267 002e 04B0     		add	sp, sp, #16
 268              		@ sp needed
 269 0030 80BD     		pop	{r7, pc}
 270              		.cfi_endproc
 271              	.LFE4:
 272              		.size	RTC_GetHours, .-RTC_GetHours
 273 0032 C046     		.section	.text.RTC_GetAmPm,"ax",%progbits
 274              		.align	2
 275              		.code	16
 276              		.thumb_func
 277              		.type	RTC_GetAmPm, %function
 278              	RTC_GetAmPm:
 279              	.LFB5:
 557:Generated_Source\PSoC4/RTC.h **** 
 558:Generated_Source\PSoC4/RTC.h **** 
 559:Generated_Source\PSoC4/RTC.h **** /*******************************************************************************
 560:Generated_Source\PSoC4/RTC.h **** * Function Name: RTC_GetAmPm
 561:Generated_Source\PSoC4/RTC.h **** ****************************************************************************//**
 562:Generated_Source\PSoC4/RTC.h **** *
 563:Generated_Source\PSoC4/RTC.h **** * \brief
 564:Generated_Source\PSoC4/RTC.h **** *  Returns the AM/PM status from the time value that is passed as parameter.
 565:Generated_Source\PSoC4/RTC.h **** *
 566:Generated_Source\PSoC4/RTC.h **** * \param
 567:Generated_Source\PSoC4/RTC.h **** *  time The time value.
 568:Generated_Source\PSoC4/RTC.h **** *
 569:Generated_Source\PSoC4/RTC.h **** * \return
 570:Generated_Source\PSoC4/RTC.h **** *  RTC_AM - AM.
 571:Generated_Source\PSoC4/RTC.h **** * \return
 572:Generated_Source\PSoC4/RTC.h **** *  RTC_PM - PM.
 573:Generated_Source\PSoC4/RTC.h **** *
 574:Generated_Source\PSoC4/RTC.h **** *******************************************************************************/
 575:Generated_Source\PSoC4/RTC.h **** static CY_INLINE uint32 RTC_GetAmPm(uint32 inputTime)
 576:Generated_Source\PSoC4/RTC.h **** {
ARM GAS  C:\Users\okuntso\AppData\Local\Temp\ccSegaCM.s 			page 16


 280              		.loc 1 576 0
 281              		.cfi_startproc
 282              		@ args = 0, pretend = 0, frame = 8
 283              		@ frame_needed = 1, uses_anonymous_args = 0
 284 0000 80B5     		push	{r7, lr}
 285              		.cfi_def_cfa_offset 8
 286              		.cfi_offset 7, -8
 287              		.cfi_offset 14, -4
 288 0002 82B0     		sub	sp, sp, #8
 289              		.cfi_def_cfa_offset 16
 290 0004 00AF     		add	r7, sp, #0
 291              		.cfi_def_cfa_register 7
 292 0006 7860     		str	r0, [r7, #4]
 577:Generated_Source\PSoC4/RTC.h ****     return (RTC_IsBitSet(inputTime, RTC_PERIOD_OF_DAY_MASK));
 293              		.loc 1 577 0
 294 0008 8023     		movs	r3, #128
 295 000a DA03     		lsls	r2, r3, #15
 296 000c 7B68     		ldr	r3, [r7, #4]
 297 000e 1100     		movs	r1, r2
 298 0010 1800     		movs	r0, r3
 299 0012 FFF7FEFF 		bl	RTC_IsBitSet
 300 0016 0300     		movs	r3, r0
 578:Generated_Source\PSoC4/RTC.h **** }
 301              		.loc 1 578 0
 302 0018 1800     		movs	r0, r3
 303 001a BD46     		mov	sp, r7
 304 001c 02B0     		add	sp, sp, #8
 305              		@ sp needed
 306 001e 80BD     		pop	{r7, pc}
 307              		.cfi_endproc
 308              	.LFE5:
 309              		.size	RTC_GetAmPm, .-RTC_GetAmPm
 310              		.section	.text.RTC_GetDay,"ax",%progbits
 311              		.align	2
 312              		.code	16
 313              		.thumb_func
 314              		.type	RTC_GetDay, %function
 315              	RTC_GetDay:
 316              	.LFB6:
 579:Generated_Source\PSoC4/RTC.h **** 
 580:Generated_Source\PSoC4/RTC.h **** 
 581:Generated_Source\PSoC4/RTC.h **** /*******************************************************************************
 582:Generated_Source\PSoC4/RTC.h **** * Function Name: RTC_GetDay
 583:Generated_Source\PSoC4/RTC.h **** ****************************************************************************//**
 584:Generated_Source\PSoC4/RTC.h **** *
 585:Generated_Source\PSoC4/RTC.h **** * \brief
 586:Generated_Source\PSoC4/RTC.h **** *  Returns the day value from the date value that is passed as parameter.
 587:Generated_Source\PSoC4/RTC.h **** *
 588:Generated_Source\PSoC4/RTC.h **** * \param
 589:Generated_Source\PSoC4/RTC.h **** *  date The date value.
 590:Generated_Source\PSoC4/RTC.h **** *
 591:Generated_Source\PSoC4/RTC.h **** * \return
 592:Generated_Source\PSoC4/RTC.h **** *  The day value.
 593:Generated_Source\PSoC4/RTC.h **** *
 594:Generated_Source\PSoC4/RTC.h **** *******************************************************************************/
 595:Generated_Source\PSoC4/RTC.h **** static CY_INLINE uint32 RTC_GetDay(uint32 date)
 596:Generated_Source\PSoC4/RTC.h **** {
ARM GAS  C:\Users\okuntso\AppData\Local\Temp\ccSegaCM.s 			page 17


 317              		.loc 1 596 0
 318              		.cfi_startproc
 319              		@ args = 0, pretend = 0, frame = 16
 320              		@ frame_needed = 1, uses_anonymous_args = 0
 321 0000 80B5     		push	{r7, lr}
 322              		.cfi_def_cfa_offset 8
 323              		.cfi_offset 7, -8
 324              		.cfi_offset 14, -4
 325 0002 84B0     		sub	sp, sp, #16
 326              		.cfi_def_cfa_offset 24
 327 0004 00AF     		add	r7, sp, #0
 328              		.cfi_def_cfa_register 7
 329 0006 7860     		str	r0, [r7, #4]
 597:Generated_Source\PSoC4/RTC.h ****     uint32 retVal;
 598:Generated_Source\PSoC4/RTC.h **** 
 599:Generated_Source\PSoC4/RTC.h ****     retVal  = ((date & RTC_10_DAY_MASK) >> RTC_10_DAY_OFFSET) * 10u;
 330              		.loc 1 599 0
 331 0008 7B68     		ldr	r3, [r7, #4]
 332 000a 1B0D     		lsrs	r3, r3, #20
 333 000c 0322     		movs	r2, #3
 334 000e 1A40     		ands	r2, r3
 335 0010 1300     		movs	r3, r2
 336 0012 9B00     		lsls	r3, r3, #2
 337 0014 9B18     		adds	r3, r3, r2
 338 0016 5B00     		lsls	r3, r3, #1
 339 0018 FB60     		str	r3, [r7, #12]
 600:Generated_Source\PSoC4/RTC.h ****     retVal += (date & RTC_DAY_MASK) >> RTC_DAY_OFFSET;
 340              		.loc 1 600 0
 341 001a 7B68     		ldr	r3, [r7, #4]
 342 001c 1B0C     		lsrs	r3, r3, #16
 343 001e 0F22     		movs	r2, #15
 344 0020 1340     		ands	r3, r2
 345 0022 FA68     		ldr	r2, [r7, #12]
 346 0024 D318     		adds	r3, r2, r3
 347 0026 FB60     		str	r3, [r7, #12]
 601:Generated_Source\PSoC4/RTC.h **** 
 602:Generated_Source\PSoC4/RTC.h ****     return (retVal);
 348              		.loc 1 602 0
 349 0028 FB68     		ldr	r3, [r7, #12]
 603:Generated_Source\PSoC4/RTC.h **** }
 350              		.loc 1 603 0
 351 002a 1800     		movs	r0, r3
 352 002c BD46     		mov	sp, r7
 353 002e 04B0     		add	sp, sp, #16
 354              		@ sp needed
 355 0030 80BD     		pop	{r7, pc}
 356              		.cfi_endproc
 357              	.LFE6:
 358              		.size	RTC_GetDay, .-RTC_GetDay
 359 0032 C046     		.section	.text.RTC_GetMonth,"ax",%progbits
 360              		.align	2
 361              		.code	16
 362              		.thumb_func
 363              		.type	RTC_GetMonth, %function
 364              	RTC_GetMonth:
 365              	.LFB7:
 604:Generated_Source\PSoC4/RTC.h **** 
ARM GAS  C:\Users\okuntso\AppData\Local\Temp\ccSegaCM.s 			page 18


 605:Generated_Source\PSoC4/RTC.h **** 
 606:Generated_Source\PSoC4/RTC.h **** /*******************************************************************************
 607:Generated_Source\PSoC4/RTC.h **** * Function Name: RTC_GetMonth
 608:Generated_Source\PSoC4/RTC.h **** ****************************************************************************//**
 609:Generated_Source\PSoC4/RTC.h **** *
 610:Generated_Source\PSoC4/RTC.h **** * \brief
 611:Generated_Source\PSoC4/RTC.h **** *  Returns the month value from the date value that is passed as parameter.
 612:Generated_Source\PSoC4/RTC.h **** *
 613:Generated_Source\PSoC4/RTC.h **** * \param
 614:Generated_Source\PSoC4/RTC.h **** *  date The date value.
 615:Generated_Source\PSoC4/RTC.h **** *
 616:Generated_Source\PSoC4/RTC.h **** * \return
 617:Generated_Source\PSoC4/RTC.h **** *  The month value.
 618:Generated_Source\PSoC4/RTC.h **** *
 619:Generated_Source\PSoC4/RTC.h **** *******************************************************************************/
 620:Generated_Source\PSoC4/RTC.h **** static CY_INLINE uint32 RTC_GetMonth(uint32 date)
 621:Generated_Source\PSoC4/RTC.h **** {
 366              		.loc 1 621 0
 367              		.cfi_startproc
 368              		@ args = 0, pretend = 0, frame = 16
 369              		@ frame_needed = 1, uses_anonymous_args = 0
 370 0000 80B5     		push	{r7, lr}
 371              		.cfi_def_cfa_offset 8
 372              		.cfi_offset 7, -8
 373              		.cfi_offset 14, -4
 374 0002 84B0     		sub	sp, sp, #16
 375              		.cfi_def_cfa_offset 24
 376 0004 00AF     		add	r7, sp, #0
 377              		.cfi_def_cfa_register 7
 378 0006 7860     		str	r0, [r7, #4]
 622:Generated_Source\PSoC4/RTC.h ****     uint32 retVal;
 623:Generated_Source\PSoC4/RTC.h **** 
 624:Generated_Source\PSoC4/RTC.h ****     retVal  = ((date & RTC_10_MONTH_MASK) >> RTC_10_MONTH_OFFSET) * 10u;
 379              		.loc 1 624 0
 380 0008 7B68     		ldr	r3, [r7, #4]
 381 000a 1B0F     		lsrs	r3, r3, #28
 382 000c 0122     		movs	r2, #1
 383 000e 1A40     		ands	r2, r3
 384 0010 1300     		movs	r3, r2
 385 0012 9B00     		lsls	r3, r3, #2
 386 0014 9B18     		adds	r3, r3, r2
 387 0016 5B00     		lsls	r3, r3, #1
 388 0018 FB60     		str	r3, [r7, #12]
 625:Generated_Source\PSoC4/RTC.h ****     retVal += (date & RTC_MONTH_MASK) >> RTC_MONTH_OFFSET;
 389              		.loc 1 625 0
 390 001a 7B68     		ldr	r3, [r7, #4]
 391 001c 1B0E     		lsrs	r3, r3, #24
 392 001e 0F22     		movs	r2, #15
 393 0020 1340     		ands	r3, r2
 394 0022 FA68     		ldr	r2, [r7, #12]
 395 0024 D318     		adds	r3, r2, r3
 396 0026 FB60     		str	r3, [r7, #12]
 626:Generated_Source\PSoC4/RTC.h **** 
 627:Generated_Source\PSoC4/RTC.h ****     return (retVal);
 397              		.loc 1 627 0
 398 0028 FB68     		ldr	r3, [r7, #12]
 628:Generated_Source\PSoC4/RTC.h **** }
ARM GAS  C:\Users\okuntso\AppData\Local\Temp\ccSegaCM.s 			page 19


 399              		.loc 1 628 0
 400 002a 1800     		movs	r0, r3
 401 002c BD46     		mov	sp, r7
 402 002e 04B0     		add	sp, sp, #16
 403              		@ sp needed
 404 0030 80BD     		pop	{r7, pc}
 405              		.cfi_endproc
 406              	.LFE7:
 407              		.size	RTC_GetMonth, .-RTC_GetMonth
 408 0032 C046     		.section	.text.RTC_GetYear,"ax",%progbits
 409              		.align	2
 410              		.code	16
 411              		.thumb_func
 412              		.type	RTC_GetYear, %function
 413              	RTC_GetYear:
 414              	.LFB8:
 629:Generated_Source\PSoC4/RTC.h **** 
 630:Generated_Source\PSoC4/RTC.h **** 
 631:Generated_Source\PSoC4/RTC.h **** /*******************************************************************************
 632:Generated_Source\PSoC4/RTC.h **** * Function Name: RTC_GetYear
 633:Generated_Source\PSoC4/RTC.h **** ****************************************************************************//**
 634:Generated_Source\PSoC4/RTC.h **** *
 635:Generated_Source\PSoC4/RTC.h **** * \brief
 636:Generated_Source\PSoC4/RTC.h **** *  Returns the year value from the date value that is passed as parameter.
 637:Generated_Source\PSoC4/RTC.h **** *
 638:Generated_Source\PSoC4/RTC.h **** * \param
 639:Generated_Source\PSoC4/RTC.h **** *  date The date value.
 640:Generated_Source\PSoC4/RTC.h **** *
 641:Generated_Source\PSoC4/RTC.h **** * \return
 642:Generated_Source\PSoC4/RTC.h **** *  The year value.
 643:Generated_Source\PSoC4/RTC.h **** *
 644:Generated_Source\PSoC4/RTC.h **** *******************************************************************************/
 645:Generated_Source\PSoC4/RTC.h **** static CY_INLINE uint32 RTC_GetYear(uint32 date)
 646:Generated_Source\PSoC4/RTC.h **** {
 415              		.loc 1 646 0
 416              		.cfi_startproc
 417              		@ args = 0, pretend = 0, frame = 16
 418              		@ frame_needed = 1, uses_anonymous_args = 0
 419 0000 80B5     		push	{r7, lr}
 420              		.cfi_def_cfa_offset 8
 421              		.cfi_offset 7, -8
 422              		.cfi_offset 14, -4
 423 0002 84B0     		sub	sp, sp, #16
 424              		.cfi_def_cfa_offset 24
 425 0004 00AF     		add	r7, sp, #0
 426              		.cfi_def_cfa_register 7
 427 0006 7860     		str	r0, [r7, #4]
 647:Generated_Source\PSoC4/RTC.h ****     uint32 retVal;
 648:Generated_Source\PSoC4/RTC.h **** 
 649:Generated_Source\PSoC4/RTC.h ****     retVal  = ((date & RTC_1000_YEAR_MASK) >> RTC_1000_YEAR_OFFSET) * 1000u;
 428              		.loc 1 649 0
 429 0008 7B68     		ldr	r3, [r7, #4]
 430 000a 1B0B     		lsrs	r3, r3, #12
 431 000c 0322     		movs	r2, #3
 432 000e 1340     		ands	r3, r2
 433 0010 FA22     		movs	r2, #250
 434 0012 9200     		lsls	r2, r2, #2
ARM GAS  C:\Users\okuntso\AppData\Local\Temp\ccSegaCM.s 			page 20


 435 0014 5343     		muls	r3, r2
 436 0016 FB60     		str	r3, [r7, #12]
 650:Generated_Source\PSoC4/RTC.h ****     retVal += ((date & RTC_100_YEAR_MASK) >> RTC_100_YEAR_OFFSET) * 100u;
 437              		.loc 1 650 0
 438 0018 7B68     		ldr	r3, [r7, #4]
 439 001a 1B0A     		lsrs	r3, r3, #8
 440 001c 0F22     		movs	r2, #15
 441 001e 1340     		ands	r3, r2
 442 0020 6422     		movs	r2, #100
 443 0022 5343     		muls	r3, r2
 444 0024 FA68     		ldr	r2, [r7, #12]
 445 0026 D318     		adds	r3, r2, r3
 446 0028 FB60     		str	r3, [r7, #12]
 651:Generated_Source\PSoC4/RTC.h ****     retVal += ((date & RTC_10_YEAR_MASK) >> RTC_10_YEAR_OFFSET) * 10u;
 447              		.loc 1 651 0
 448 002a 7B68     		ldr	r3, [r7, #4]
 449 002c 1B09     		lsrs	r3, r3, #4
 450 002e 0F22     		movs	r2, #15
 451 0030 1A40     		ands	r2, r3
 452 0032 1300     		movs	r3, r2
 453 0034 9B00     		lsls	r3, r3, #2
 454 0036 9B18     		adds	r3, r3, r2
 455 0038 5B00     		lsls	r3, r3, #1
 456 003a 1A00     		movs	r2, r3
 457 003c FB68     		ldr	r3, [r7, #12]
 458 003e 9B18     		adds	r3, r3, r2
 459 0040 FB60     		str	r3, [r7, #12]
 652:Generated_Source\PSoC4/RTC.h ****     retVal += (date & RTC_YEAR_MASK) >> RTC_YEAR_OFFSET;
 460              		.loc 1 652 0
 461 0042 7B68     		ldr	r3, [r7, #4]
 462 0044 0F22     		movs	r2, #15
 463 0046 1340     		ands	r3, r2
 464 0048 FA68     		ldr	r2, [r7, #12]
 465 004a D318     		adds	r3, r2, r3
 466 004c FB60     		str	r3, [r7, #12]
 653:Generated_Source\PSoC4/RTC.h **** 
 654:Generated_Source\PSoC4/RTC.h ****     return (retVal);
 467              		.loc 1 654 0
 468 004e FB68     		ldr	r3, [r7, #12]
 655:Generated_Source\PSoC4/RTC.h **** }
 469              		.loc 1 655 0
 470 0050 1800     		movs	r0, r3
 471 0052 BD46     		mov	sp, r7
 472 0054 04B0     		add	sp, sp, #16
 473              		@ sp needed
 474 0056 80BD     		pop	{r7, pc}
 475              		.cfi_endproc
 476              	.LFE8:
 477              		.size	RTC_GetYear, .-RTC_GetYear
 478              		.section	.text.RTC_GetTimeFormat,"ax",%progbits
 479              		.align	2
 480              		.code	16
 481              		.thumb_func
 482              		.type	RTC_GetTimeFormat, %function
 483              	RTC_GetTimeFormat:
 484              	.LFB22:
 656:Generated_Source\PSoC4/RTC.h **** 
ARM GAS  C:\Users\okuntso\AppData\Local\Temp\ccSegaCM.s 			page 21


 657:Generated_Source\PSoC4/RTC.h **** 
 658:Generated_Source\PSoC4/RTC.h **** /*******************************************************************************
 659:Generated_Source\PSoC4/RTC.h **** * Function Name: RTC_SetSecond
 660:Generated_Source\PSoC4/RTC.h **** ****************************************************************************//**
 661:Generated_Source\PSoC4/RTC.h **** *\internal
 662:Generated_Source\PSoC4/RTC.h **** * \brief
 663:Generated_Source\PSoC4/RTC.h **** *  Updates the time with the new second value.
 664:Generated_Source\PSoC4/RTC.h **** *
 665:Generated_Source\PSoC4/RTC.h **** * \param
 666:Generated_Source\PSoC4/RTC.h **** * time The current date.
 667:Generated_Source\PSoC4/RTC.h **** * \param
 668:Generated_Source\PSoC4/RTC.h **** * second The seconds value to be set to the time variable.
 669:Generated_Source\PSoC4/RTC.h **** *
 670:Generated_Source\PSoC4/RTC.h **** * \return
 671:Generated_Source\PSoC4/RTC.h **** *  The updated time variable.
 672:Generated_Source\PSoC4/RTC.h **** *\endinternal
 673:Generated_Source\PSoC4/RTC.h **** *******************************************************************************/
 674:Generated_Source\PSoC4/RTC.h **** static CY_INLINE uint32 RTC_SetSecond(uint32 inputTime, uint32 inputSecond)
 675:Generated_Source\PSoC4/RTC.h **** {
 676:Generated_Source\PSoC4/RTC.h ****     inputTime &= ~(RTC_SECONDS_FULL_MASK);
 677:Generated_Source\PSoC4/RTC.h **** 
 678:Generated_Source\PSoC4/RTC.h ****     inputTime |= (inputSecond / 10u) << RTC_10_SECONDS_OFFSET;
 679:Generated_Source\PSoC4/RTC.h ****     inputTime |= (inputSecond % 10u) << RTC_SECONDS_OFFSET;
 680:Generated_Source\PSoC4/RTC.h **** 
 681:Generated_Source\PSoC4/RTC.h ****     return(inputTime);
 682:Generated_Source\PSoC4/RTC.h **** }
 683:Generated_Source\PSoC4/RTC.h **** 
 684:Generated_Source\PSoC4/RTC.h **** 
 685:Generated_Source\PSoC4/RTC.h **** /*******************************************************************************
 686:Generated_Source\PSoC4/RTC.h **** * Function Name: RTC_SetMinutes
 687:Generated_Source\PSoC4/RTC.h **** ****************************************************************************//**
 688:Generated_Source\PSoC4/RTC.h **** *\internal
 689:Generated_Source\PSoC4/RTC.h **** * \brief
 690:Generated_Source\PSoC4/RTC.h **** *  Updates the time with the new minute value.
 691:Generated_Source\PSoC4/RTC.h **** *
 692:Generated_Source\PSoC4/RTC.h **** * \param
 693:Generated_Source\PSoC4/RTC.h **** *  time The current date.
 694:Generated_Source\PSoC4/RTC.h **** * \param
 695:Generated_Source\PSoC4/RTC.h **** *  minutes The minutes value to be set to the time variable.
 696:Generated_Source\PSoC4/RTC.h **** *
 697:Generated_Source\PSoC4/RTC.h **** * \return
 698:Generated_Source\PSoC4/RTC.h **** *  The updated time variable.
 699:Generated_Source\PSoC4/RTC.h **** * \endinternal
 700:Generated_Source\PSoC4/RTC.h **** *******************************************************************************/
 701:Generated_Source\PSoC4/RTC.h **** static CY_INLINE uint32 RTC_SetMinutes(uint32 inputTime, uint32 inputMinute)
 702:Generated_Source\PSoC4/RTC.h **** {
 703:Generated_Source\PSoC4/RTC.h ****     inputTime &= ~(RTC_MINUTES_FULL_MASK);
 704:Generated_Source\PSoC4/RTC.h **** 
 705:Generated_Source\PSoC4/RTC.h ****     inputTime |= (inputMinute / 10u) << RTC_10_MINUTES_OFFSET;
 706:Generated_Source\PSoC4/RTC.h ****     inputTime |= (inputMinute % 10u) << RTC_MINUTES_OFFSET;
 707:Generated_Source\PSoC4/RTC.h **** 
 708:Generated_Source\PSoC4/RTC.h ****     return(inputTime);
 709:Generated_Source\PSoC4/RTC.h **** }
 710:Generated_Source\PSoC4/RTC.h **** 
 711:Generated_Source\PSoC4/RTC.h **** 
 712:Generated_Source\PSoC4/RTC.h **** /*******************************************************************************
 713:Generated_Source\PSoC4/RTC.h **** * Function Name: RTC_SetHours
ARM GAS  C:\Users\okuntso\AppData\Local\Temp\ccSegaCM.s 			page 22


 714:Generated_Source\PSoC4/RTC.h **** ****************************************************************************//**
 715:Generated_Source\PSoC4/RTC.h **** *\internal
 716:Generated_Source\PSoC4/RTC.h **** * \brief
 717:Generated_Source\PSoC4/RTC.h **** *  Updates the time with the new hour value.
 718:Generated_Source\PSoC4/RTC.h **** *
 719:Generated_Source\PSoC4/RTC.h **** * \param
 720:Generated_Source\PSoC4/RTC.h **** * time The current date.
 721:Generated_Source\PSoC4/RTC.h **** * \param
 722:Generated_Source\PSoC4/RTC.h **** * hours The hours value to be set to the time variable.
 723:Generated_Source\PSoC4/RTC.h **** *
 724:Generated_Source\PSoC4/RTC.h **** * \return
 725:Generated_Source\PSoC4/RTC.h **** *  The updated time variable.
 726:Generated_Source\PSoC4/RTC.h **** *\endinternal
 727:Generated_Source\PSoC4/RTC.h **** *******************************************************************************/
 728:Generated_Source\PSoC4/RTC.h **** static CY_INLINE uint32 RTC_SetHours(uint32 inputTime, uint32 inputHours)
 729:Generated_Source\PSoC4/RTC.h **** {
 730:Generated_Source\PSoC4/RTC.h ****     inputTime &= ~(RTC_HOURS_FULL_MASK);
 731:Generated_Source\PSoC4/RTC.h **** 
 732:Generated_Source\PSoC4/RTC.h ****     inputTime |= (inputHours / 10u) << RTC_10_HOURS_OFFSET;
 733:Generated_Source\PSoC4/RTC.h ****     inputTime |= (inputHours % 10u) << RTC_HOURS_OFFSET;
 734:Generated_Source\PSoC4/RTC.h **** 
 735:Generated_Source\PSoC4/RTC.h ****     return(inputTime);
 736:Generated_Source\PSoC4/RTC.h **** }
 737:Generated_Source\PSoC4/RTC.h **** 
 738:Generated_Source\PSoC4/RTC.h **** 
 739:Generated_Source\PSoC4/RTC.h **** /*******************************************************************************
 740:Generated_Source\PSoC4/RTC.h **** * Function Name: RTC_SetAmPm
 741:Generated_Source\PSoC4/RTC.h **** ****************************************************************************//**
 742:Generated_Source\PSoC4/RTC.h **** *\internal
 743:Generated_Source\PSoC4/RTC.h **** * \brief
 744:Generated_Source\PSoC4/RTC.h **** *  Updates the time variable with the AmPm status.
 745:Generated_Source\PSoC4/RTC.h **** *
 746:Generated_Source\PSoC4/RTC.h **** * \param
 747:Generated_Source\PSoC4/RTC.h **** * time The current date.
 748:Generated_Source\PSoC4/RTC.h **** * \param
 749:Generated_Source\PSoC4/RTC.h **** * periodOfDay The AmPm status to be set to the time variable.
 750:Generated_Source\PSoC4/RTC.h **** *
 751:Generated_Source\PSoC4/RTC.h **** * \return
 752:Generated_Source\PSoC4/RTC.h **** *  The updated time variable.
 753:Generated_Source\PSoC4/RTC.h **** * \endinternal
 754:Generated_Source\PSoC4/RTC.h **** *******************************************************************************/
 755:Generated_Source\PSoC4/RTC.h **** static CY_INLINE uint32 RTC_SetAmPm(uint32 inputTime, uint32 periodOfDay)
 756:Generated_Source\PSoC4/RTC.h **** {
 757:Generated_Source\PSoC4/RTC.h ****     if(0u != periodOfDay)
 758:Generated_Source\PSoC4/RTC.h ****     {
 759:Generated_Source\PSoC4/RTC.h ****         inputTime &= ~(RTC_PERIOD_OF_DAY_MASK);
 760:Generated_Source\PSoC4/RTC.h ****     }
 761:Generated_Source\PSoC4/RTC.h ****     else
 762:Generated_Source\PSoC4/RTC.h ****     {
 763:Generated_Source\PSoC4/RTC.h ****         inputTime |= RTC_PERIOD_OF_DAY_MASK;
 764:Generated_Source\PSoC4/RTC.h ****     }
 765:Generated_Source\PSoC4/RTC.h **** 
 766:Generated_Source\PSoC4/RTC.h ****     return(inputTime);
 767:Generated_Source\PSoC4/RTC.h **** }
 768:Generated_Source\PSoC4/RTC.h **** 
 769:Generated_Source\PSoC4/RTC.h **** 
 770:Generated_Source\PSoC4/RTC.h **** /*******************************************************************************
ARM GAS  C:\Users\okuntso\AppData\Local\Temp\ccSegaCM.s 			page 23


 771:Generated_Source\PSoC4/RTC.h **** * Function Name: RTC_SetDay
 772:Generated_Source\PSoC4/RTC.h **** ****************************************************************************//**
 773:Generated_Source\PSoC4/RTC.h **** *\internal
 774:Generated_Source\PSoC4/RTC.h **** * \brief
 775:Generated_Source\PSoC4/RTC.h **** *  Updates the date variable with the new day value.
 776:Generated_Source\PSoC4/RTC.h **** *
 777:Generated_Source\PSoC4/RTC.h **** * \param
 778:Generated_Source\PSoC4/RTC.h **** * date The current date.
 779:Generated_Source\PSoC4/RTC.h **** * \param
 780:Generated_Source\PSoC4/RTC.h **** * day The month to be set to the date variable.
 781:Generated_Source\PSoC4/RTC.h **** *
 782:Generated_Source\PSoC4/RTC.h **** * \return
 783:Generated_Source\PSoC4/RTC.h **** *  The updated date variable.
 784:Generated_Source\PSoC4/RTC.h **** *\endinternal
 785:Generated_Source\PSoC4/RTC.h **** *******************************************************************************/
 786:Generated_Source\PSoC4/RTC.h **** static CY_INLINE uint32 RTC_SetDay(uint32 inputDate, uint32 inputDay)
 787:Generated_Source\PSoC4/RTC.h **** {
 788:Generated_Source\PSoC4/RTC.h ****     inputDate &= ~(RTC_DAY_FULL_MASK);
 789:Generated_Source\PSoC4/RTC.h **** 
 790:Generated_Source\PSoC4/RTC.h ****     inputDate |= (inputDay / 10u) << RTC_10_DAY_OFFSET;
 791:Generated_Source\PSoC4/RTC.h ****     inputDate |= (inputDay % 10u) << RTC_DAY_OFFSET;
 792:Generated_Source\PSoC4/RTC.h **** 
 793:Generated_Source\PSoC4/RTC.h ****     return(inputDate);
 794:Generated_Source\PSoC4/RTC.h **** }
 795:Generated_Source\PSoC4/RTC.h **** 
 796:Generated_Source\PSoC4/RTC.h **** 
 797:Generated_Source\PSoC4/RTC.h **** /*******************************************************************************
 798:Generated_Source\PSoC4/RTC.h **** * Function Name: RTC_SetMonth
 799:Generated_Source\PSoC4/RTC.h **** ****************************************************************************//**
 800:Generated_Source\PSoC4/RTC.h **** *\internal
 801:Generated_Source\PSoC4/RTC.h **** * \brief
 802:Generated_Source\PSoC4/RTC.h **** *  Updates the date variable with the new month value.
 803:Generated_Source\PSoC4/RTC.h **** *
 804:Generated_Source\PSoC4/RTC.h **** * \param
 805:Generated_Source\PSoC4/RTC.h **** * date The current date.
 806:Generated_Source\PSoC4/RTC.h **** * \param
 807:Generated_Source\PSoC4/RTC.h **** * month The month that to be set to the date variable.
 808:Generated_Source\PSoC4/RTC.h **** *
 809:Generated_Source\PSoC4/RTC.h **** * \return
 810:Generated_Source\PSoC4/RTC.h **** *  The updated date variable.
 811:Generated_Source\PSoC4/RTC.h **** *\endinternal
 812:Generated_Source\PSoC4/RTC.h **** *******************************************************************************/
 813:Generated_Source\PSoC4/RTC.h **** static CY_INLINE uint32 RTC_SetMonth(uint32 inputDate, uint32 inputMonth)
 814:Generated_Source\PSoC4/RTC.h **** {
 815:Generated_Source\PSoC4/RTC.h ****     inputDate &= ~(RTC_MONTH_FULL_MASK);
 816:Generated_Source\PSoC4/RTC.h **** 
 817:Generated_Source\PSoC4/RTC.h ****     inputDate |= (inputMonth / 10u) << RTC_10_MONTH_OFFSET;
 818:Generated_Source\PSoC4/RTC.h ****     inputDate |= (inputMonth % 10u) << RTC_MONTH_OFFSET;
 819:Generated_Source\PSoC4/RTC.h **** 
 820:Generated_Source\PSoC4/RTC.h ****     return(inputDate);
 821:Generated_Source\PSoC4/RTC.h **** }
 822:Generated_Source\PSoC4/RTC.h **** 
 823:Generated_Source\PSoC4/RTC.h **** 
 824:Generated_Source\PSoC4/RTC.h **** /*******************************************************************************
 825:Generated_Source\PSoC4/RTC.h **** * Function Name: RTC_SetYear
 826:Generated_Source\PSoC4/RTC.h **** ****************************************************************************//**
 827:Generated_Source\PSoC4/RTC.h **** *\internal
ARM GAS  C:\Users\okuntso\AppData\Local\Temp\ccSegaCM.s 			page 24


 828:Generated_Source\PSoC4/RTC.h **** * \brief
 829:Generated_Source\PSoC4/RTC.h **** *  Updates the date variable with the new year value.
 830:Generated_Source\PSoC4/RTC.h **** *
 831:Generated_Source\PSoC4/RTC.h **** * \param
 832:Generated_Source\PSoC4/RTC.h **** * date The current date.
 833:Generated_Source\PSoC4/RTC.h **** * \param
 834:Generated_Source\PSoC4/RTC.h **** * year The year to be set to the date variable.
 835:Generated_Source\PSoC4/RTC.h **** *
 836:Generated_Source\PSoC4/RTC.h **** * \return
 837:Generated_Source\PSoC4/RTC.h **** * The updated date variable.
 838:Generated_Source\PSoC4/RTC.h **** *\endinternal
 839:Generated_Source\PSoC4/RTC.h **** *******************************************************************************/
 840:Generated_Source\PSoC4/RTC.h **** static CY_INLINE uint32 RTC_SetYear(uint32 inputDate, uint32 inputYear)
 841:Generated_Source\PSoC4/RTC.h **** {
 842:Generated_Source\PSoC4/RTC.h ****     inputDate  &= ~(RTC_YEAR_FULL_MASK);
 843:Generated_Source\PSoC4/RTC.h **** 
 844:Generated_Source\PSoC4/RTC.h ****     inputDate |= (inputYear / 1000u) << RTC_1000_YEAR_OFFSET;
 845:Generated_Source\PSoC4/RTC.h ****     inputYear %= 1000u;
 846:Generated_Source\PSoC4/RTC.h **** 
 847:Generated_Source\PSoC4/RTC.h ****     inputDate |= (inputYear / 100u) << RTC_100_YEAR_OFFSET;
 848:Generated_Source\PSoC4/RTC.h ****     inputYear %= 100u;
 849:Generated_Source\PSoC4/RTC.h **** 
 850:Generated_Source\PSoC4/RTC.h ****     inputDate |= (inputYear / 10u) << RTC_10_YEAR_OFFSET;
 851:Generated_Source\PSoC4/RTC.h ****     inputDate |= (inputYear % 10u) << RTC_YEAR_OFFSET;
 852:Generated_Source\PSoC4/RTC.h **** 
 853:Generated_Source\PSoC4/RTC.h ****     return(inputDate);
 854:Generated_Source\PSoC4/RTC.h **** }
 855:Generated_Source\PSoC4/RTC.h **** 
 856:Generated_Source\PSoC4/RTC.h **** 
 857:Generated_Source\PSoC4/RTC.h **** /*******************************************************************************
 858:Generated_Source\PSoC4/RTC.h **** * Function Name: RTC_GetNextMinSec
 859:Generated_Source\PSoC4/RTC.h **** ****************************************************************************//**
 860:Generated_Source\PSoC4/RTC.h **** *\internal
 861:Generated_Source\PSoC4/RTC.h **** * \brief
 862:Generated_Source\PSoC4/RTC.h **** * This is an internal function that calculates the value of the next Second/Minute
 863:Generated_Source\PSoC4/RTC.h **** * that follows after the current Minute/Second.
 864:Generated_Source\PSoC4/RTC.h **** *
 865:Generated_Source\PSoC4/RTC.h **** * \param
 866:Generated_Source\PSoC4/RTC.h **** * curVal The current Second/Minute value.
 867:Generated_Source\PSoC4/RTC.h **** *
 868:Generated_Source\PSoC4/RTC.h **** * \return
 869:Generated_Source\PSoC4/RTC.h **** * Returns the Second/Minute which follows after the current Second/Minute.
 870:Generated_Source\PSoC4/RTC.h **** *\endinternal
 871:Generated_Source\PSoC4/RTC.h **** *******************************************************************************/
 872:Generated_Source\PSoC4/RTC.h **** static CY_INLINE uint32 RTC_GetNextMinSec(uint32 curVal)
 873:Generated_Source\PSoC4/RTC.h **** {
 874:Generated_Source\PSoC4/RTC.h ****     return((curVal < 59u) ? (curVal + 1u) : 0u);
 875:Generated_Source\PSoC4/RTC.h **** }
 876:Generated_Source\PSoC4/RTC.h **** 
 877:Generated_Source\PSoC4/RTC.h **** 
 878:Generated_Source\PSoC4/RTC.h **** /*******************************************************************************
 879:Generated_Source\PSoC4/RTC.h **** * Function Name: RTC_GetNextHour
 880:Generated_Source\PSoC4/RTC.h **** ****************************************************************************//**
 881:Generated_Source\PSoC4/RTC.h **** *\internal
 882:Generated_Source\PSoC4/RTC.h **** * \brief
 883:Generated_Source\PSoC4/RTC.h **** *  This is an internal function that calculates the value of the next Hour
 884:Generated_Source\PSoC4/RTC.h **** *  that follows after the current Hour.
ARM GAS  C:\Users\okuntso\AppData\Local\Temp\ccSegaCM.s 			page 25


 885:Generated_Source\PSoC4/RTC.h **** *
 886:Generated_Source\PSoC4/RTC.h **** * \param
 887:Generated_Source\PSoC4/RTC.h **** * curVal The current Hour value.
 888:Generated_Source\PSoC4/RTC.h **** *
 889:Generated_Source\PSoC4/RTC.h **** * \return
 890:Generated_Source\PSoC4/RTC.h **** *  Returns the Hour which follows after the current Hour.
 891:Generated_Source\PSoC4/RTC.h **** * \endinternal
 892:Generated_Source\PSoC4/RTC.h **** *******************************************************************************/
 893:Generated_Source\PSoC4/RTC.h **** static CY_INLINE uint32 RTC_GetNextHour(uint32 curVal)
 894:Generated_Source\PSoC4/RTC.h **** {
 895:Generated_Source\PSoC4/RTC.h ****     return((curVal < 23u) ? (curVal + 1u) : 0u);
 896:Generated_Source\PSoC4/RTC.h **** }
 897:Generated_Source\PSoC4/RTC.h **** 
 898:Generated_Source\PSoC4/RTC.h **** 
 899:Generated_Source\PSoC4/RTC.h **** /*******************************************************************************
 900:Generated_Source\PSoC4/RTC.h **** * Function Name: RTC_GetNextDay
 901:Generated_Source\PSoC4/RTC.h **** ****************************************************************************//**
 902:Generated_Source\PSoC4/RTC.h **** * \internal
 903:Generated_Source\PSoC4/RTC.h **** * \brief
 904:Generated_Source\PSoC4/RTC.h **** *  This is an internal function that calculates the value of the next Day
 905:Generated_Source\PSoC4/RTC.h **** *  that follows after the current Day.
 906:Generated_Source\PSoC4/RTC.h **** *
 907:Generated_Source\PSoC4/RTC.h **** * \param
 908:Generated_Source\PSoC4/RTC.h **** *  curYear The current year.
 909:Generated_Source\PSoC4/RTC.h **** * \param
 910:Generated_Source\PSoC4/RTC.h **** *  curMonth The current month.
 911:Generated_Source\PSoC4/RTC.h **** * \param
 912:Generated_Source\PSoC4/RTC.h **** *  curDay The current day.
 913:Generated_Source\PSoC4/RTC.h **** * \param
 914:Generated_Source\PSoC4/RTC.h **** *  alarmCfgMask Alarm Config Mask.
 915:Generated_Source\PSoC4/RTC.h **** *
 916:Generated_Source\PSoC4/RTC.h **** * \return
 917:Generated_Source\PSoC4/RTC.h **** *  Returns the day which follows after the current Day.
 918:Generated_Source\PSoC4/RTC.h **** * \endinternal
 919:Generated_Source\PSoC4/RTC.h **** *******************************************************************************/
 920:Generated_Source\PSoC4/RTC.h **** static CY_INLINE uint32 RTC_GetNextDay(uint32 curYear, uint32 curMonth, uint32 curDay, uint32 alarm
 921:Generated_Source\PSoC4/RTC.h **** {
 922:Generated_Source\PSoC4/RTC.h ****     uint32 daysInMonth;
 923:Generated_Source\PSoC4/RTC.h ****     uint32 tmpVal;
 924:Generated_Source\PSoC4/RTC.h **** 
 925:Generated_Source\PSoC4/RTC.h ****     daysInMonth = RTC_DaysInMonth(curMonth, curYear);
 926:Generated_Source\PSoC4/RTC.h **** 
 927:Generated_Source\PSoC4/RTC.h ****     if(0u != (alarmCfgMask & RTC_ALARM_DAYOFWEEK_MASK))
 928:Generated_Source\PSoC4/RTC.h ****     {
 929:Generated_Source\PSoC4/RTC.h ****         tmpVal = curDay + RTC_DAYS_PER_WEEK;
 930:Generated_Source\PSoC4/RTC.h ****         tmpVal = (tmpVal > daysInMonth) ? (tmpVal - daysInMonth) : tmpVal;
 931:Generated_Source\PSoC4/RTC.h ****     }
 932:Generated_Source\PSoC4/RTC.h ****     else
 933:Generated_Source\PSoC4/RTC.h ****     {
 934:Generated_Source\PSoC4/RTC.h ****         tmpVal = (curDay < daysInMonth) ? (curDay + 1u) : 1u;
 935:Generated_Source\PSoC4/RTC.h ****     }
 936:Generated_Source\PSoC4/RTC.h **** 
 937:Generated_Source\PSoC4/RTC.h ****     return(tmpVal);
 938:Generated_Source\PSoC4/RTC.h **** }
 939:Generated_Source\PSoC4/RTC.h **** 
 940:Generated_Source\PSoC4/RTC.h **** 
 941:Generated_Source\PSoC4/RTC.h **** /*******************************************************************************
ARM GAS  C:\Users\okuntso\AppData\Local\Temp\ccSegaCM.s 			page 26


 942:Generated_Source\PSoC4/RTC.h **** * Function Name: RTC_GetNextMonth
 943:Generated_Source\PSoC4/RTC.h **** ****************************************************************************//**
 944:Generated_Source\PSoC4/RTC.h **** * \internal
 945:Generated_Source\PSoC4/RTC.h **** * \brief
 946:Generated_Source\PSoC4/RTC.h **** *  This is an internal function that calculates the value of the next month
 947:Generated_Source\PSoC4/RTC.h **** *  that follows after the current month.
 948:Generated_Source\PSoC4/RTC.h **** *
 949:Generated_Source\PSoC4/RTC.h **** * \param
 950:Generated_Source\PSoC4/RTC.h **** *  curMonth The current month.
 951:Generated_Source\PSoC4/RTC.h **** *
 952:Generated_Source\PSoC4/RTC.h **** * \return
 953:Generated_Source\PSoC4/RTC.h **** *  Returns the month which follows after the current month.
 954:Generated_Source\PSoC4/RTC.h **** * \endinternal
 955:Generated_Source\PSoC4/RTC.h **** *******************************************************************************/
 956:Generated_Source\PSoC4/RTC.h **** static CY_INLINE uint32 RTC_GetNextMonth(uint32 curMonth)
 957:Generated_Source\PSoC4/RTC.h **** {
 958:Generated_Source\PSoC4/RTC.h ****     return((curMonth < 12u) ? (curMonth + 1u) : 1u);
 959:Generated_Source\PSoC4/RTC.h **** }
 960:Generated_Source\PSoC4/RTC.h **** 
 961:Generated_Source\PSoC4/RTC.h **** 
 962:Generated_Source\PSoC4/RTC.h **** /*******************************************************************************
 963:Generated_Source\PSoC4/RTC.h **** * Function Name: RTC_GetNextYear
 964:Generated_Source\PSoC4/RTC.h **** ****************************************************************************//**
 965:Generated_Source\PSoC4/RTC.h **** * \internal
 966:Generated_Source\PSoC4/RTC.h **** * \brief
 967:Generated_Source\PSoC4/RTC.h **** *  This is an internal function that calculates the value of the next year
 968:Generated_Source\PSoC4/RTC.h **** *  that follows after the current year.
 969:Generated_Source\PSoC4/RTC.h **** *
 970:Generated_Source\PSoC4/RTC.h **** * \param
 971:Generated_Source\PSoC4/RTC.h **** *  curYear The current year.
 972:Generated_Source\PSoC4/RTC.h **** *
 973:Generated_Source\PSoC4/RTC.h **** * \return
 974:Generated_Source\PSoC4/RTC.h **** *  Returns the year which follows after the current year.
 975:Generated_Source\PSoC4/RTC.h **** * \endinternal
 976:Generated_Source\PSoC4/RTC.h **** *******************************************************************************/
 977:Generated_Source\PSoC4/RTC.h **** static CY_INLINE uint32 RTC_GetNextYear(uint32 curYear)
 978:Generated_Source\PSoC4/RTC.h **** {
 979:Generated_Source\PSoC4/RTC.h ****     return(curYear + 1u);
 980:Generated_Source\PSoC4/RTC.h **** }
 981:Generated_Source\PSoC4/RTC.h **** 
 982:Generated_Source\PSoC4/RTC.h **** 
 983:Generated_Source\PSoC4/RTC.h **** /*******************************************************************************
 984:Generated_Source\PSoC4/RTC.h **** * Function Name: RTC_SetTimeFormat
 985:Generated_Source\PSoC4/RTC.h **** ****************************************************************************//**
 986:Generated_Source\PSoC4/RTC.h **** * \internal
 987:Generated_Source\PSoC4/RTC.h **** * \brief
 988:Generated_Source\PSoC4/RTC.h **** *  Updates the "Time Format" value in the variable that contains time in the
 989:Generated_Source\PSoC4/RTC.h **** *  "HH:MM:SS" format.
 990:Generated_Source\PSoC4/RTC.h **** *
 991:Generated_Source\PSoC4/RTC.h **** * \param
 992:Generated_Source\PSoC4/RTC.h **** *  inputTime The current value of the time in the "HH:MM:SS" format.
 993:Generated_Source\PSoC4/RTC.h **** *
 994:Generated_Source\PSoC4/RTC.h **** * \return
 995:Generated_Source\PSoC4/RTC.h **** *  Returns the updated value of the time in the "HH:MM:SS" format.
 996:Generated_Source\PSoC4/RTC.h **** * \endinternal
 997:Generated_Source\PSoC4/RTC.h **** *******************************************************************************/
 998:Generated_Source\PSoC4/RTC.h **** static CY_INLINE uint32 RTC_SetTimeFormat(uint32 inputTime, uint32 timeFormat)
ARM GAS  C:\Users\okuntso\AppData\Local\Temp\ccSegaCM.s 			page 27


 999:Generated_Source\PSoC4/RTC.h **** {
1000:Generated_Source\PSoC4/RTC.h ****     inputTime &= ~(RTC_TIME_FORMAT_MASK);
1001:Generated_Source\PSoC4/RTC.h **** 
1002:Generated_Source\PSoC4/RTC.h ****     if((uint32)RTC_12_HOURS_FORMAT != timeFormat)
1003:Generated_Source\PSoC4/RTC.h ****     {
1004:Generated_Source\PSoC4/RTC.h ****         inputTime |= RTC_TIME_FORMAT_MASK;
1005:Generated_Source\PSoC4/RTC.h ****     }
1006:Generated_Source\PSoC4/RTC.h **** 
1007:Generated_Source\PSoC4/RTC.h ****     return(inputTime);
1008:Generated_Source\PSoC4/RTC.h **** }
1009:Generated_Source\PSoC4/RTC.h **** 
1010:Generated_Source\PSoC4/RTC.h **** 
1011:Generated_Source\PSoC4/RTC.h **** /*******************************************************************************
1012:Generated_Source\PSoC4/RTC.h **** * Function Name: RTC_GetTimeFormat
1013:Generated_Source\PSoC4/RTC.h **** ****************************************************************************//**
1014:Generated_Source\PSoC4/RTC.h **** * \internal
1015:Generated_Source\PSoC4/RTC.h **** * \brief
1016:Generated_Source\PSoC4/RTC.h **** *  Reads the time format from the variable that contains time in the
1017:Generated_Source\PSoC4/RTC.h **** *  "HH:MM:SS" format.
1018:Generated_Source\PSoC4/RTC.h **** *
1019:Generated_Source\PSoC4/RTC.h **** * \param
1020:Generated_Source\PSoC4/RTC.h **** *  inputTime The current value of the time in the "HH:MM:SS" format.
1021:Generated_Source\PSoC4/RTC.h **** *
1022:Generated_Source\PSoC4/RTC.h **** * \return
1023:Generated_Source\PSoC4/RTC.h **** *  Returns the time format that is stored in the variable that contains time
1024:Generated_Source\PSoC4/RTC.h **** *  in the "HH:MM:SS" format.
1025:Generated_Source\PSoC4/RTC.h **** * \endinternal
1026:Generated_Source\PSoC4/RTC.h **** *******************************************************************************/
1027:Generated_Source\PSoC4/RTC.h **** static CY_INLINE uint32 RTC_GetTimeFormat(uint32 inputTime)
1028:Generated_Source\PSoC4/RTC.h **** {
 485              		.loc 1 1028 0
 486              		.cfi_startproc
 487              		@ args = 0, pretend = 0, frame = 8
 488              		@ frame_needed = 1, uses_anonymous_args = 0
 489 0000 80B5     		push	{r7, lr}
 490              		.cfi_def_cfa_offset 8
 491              		.cfi_offset 7, -8
 492              		.cfi_offset 14, -4
 493 0002 82B0     		sub	sp, sp, #8
 494              		.cfi_def_cfa_offset 16
 495 0004 00AF     		add	r7, sp, #0
 496              		.cfi_def_cfa_register 7
 497 0006 7860     		str	r0, [r7, #4]
1029:Generated_Source\PSoC4/RTC.h ****     return ((0uL != (inputTime & (1uL << RTC_TIME_FORMAT_OFFSET))) ? (uint32)RTC_12_HOURS_FORMAT :
 498              		.loc 1 1029 0
 499 0008 7A68     		ldr	r2, [r7, #4]
 500 000a 8023     		movs	r3, #128
 501 000c 1B04     		lsls	r3, r3, #16
 502 000e 1340     		ands	r3, r2
 503 0010 01D0     		beq	.L26
 504              		.loc 1 1029 0 is_stmt 0 discriminator 1
 505 0012 0123     		movs	r3, #1
 506 0014 00E0     		b	.L28
 507              	.L26:
 508              		.loc 1 1029 0 discriminator 2
 509 0016 0023     		movs	r3, #0
 510              	.L28:
ARM GAS  C:\Users\okuntso\AppData\Local\Temp\ccSegaCM.s 			page 28


1030:Generated_Source\PSoC4/RTC.h ****                                                                                   (uint32)RTC_24_HO
1031:Generated_Source\PSoC4/RTC.h **** }
 511              		.loc 1 1031 0 is_stmt 1 discriminator 5
 512 0018 1800     		movs	r0, r3
 513 001a BD46     		mov	sp, r7
 514 001c 02B0     		add	sp, sp, #8
 515              		@ sp needed
 516 001e 80BD     		pop	{r7, pc}
 517              		.cfi_endproc
 518              	.LFE22:
 519              		.size	RTC_GetTimeFormat, .-RTC_GetTimeFormat
 520              		.global	__aeabi_uidiv
 521              		.section	.text.RTC_ConstructTime,"ax",%progbits
 522              		.align	2
 523              		.code	16
 524              		.thumb_func
 525              		.type	RTC_ConstructTime, %function
 526              	RTC_ConstructTime:
 527              	.LFB23:
1032:Generated_Source\PSoC4/RTC.h **** 
1033:Generated_Source\PSoC4/RTC.h **** 
1034:Generated_Source\PSoC4/RTC.h **** /*******************************************************************************
1035:Generated_Source\PSoC4/RTC.h **** * Function Name: RTC_ConstructTime
1036:Generated_Source\PSoC4/RTC.h **** ****************************************************************************//**
1037:Generated_Source\PSoC4/RTC.h **** *
1038:Generated_Source\PSoC4/RTC.h **** * \brief
1039:Generated_Source\PSoC4/RTC.h **** *  Returns the time in the format used in APIs from individual elements
1040:Generated_Source\PSoC4/RTC.h **** *  passed (hour, min, sec etc)
1041:Generated_Source\PSoC4/RTC.h **** *
1042:Generated_Source\PSoC4/RTC.h **** * \param
1043:Generated_Source\PSoC4/RTC.h **** * timeFormat The 12/24 hours time format <br>
1044:Generated_Source\PSoC4/RTC.h **** * RTC_24_HOURS_FORMAT - The 24 hours format. <br>
1045:Generated_Source\PSoC4/RTC.h **** * RTC_12_HOURS_FORMAT - The 12 hours format.
1046:Generated_Source\PSoC4/RTC.h **** *
1047:Generated_Source\PSoC4/RTC.h **** * \param
1048:Generated_Source\PSoC4/RTC.h **** * stateAmPm  The AM/PM status <br>
1049:Generated_Source\PSoC4/RTC.h **** * RTC_AM - AM. <br>
1050:Generated_Source\PSoC4/RTC.h **** * RTC_PM - PM.
1051:Generated_Source\PSoC4/RTC.h **** *
1052:Generated_Source\PSoC4/RTC.h **** * \param
1053:Generated_Source\PSoC4/RTC.h **** *  hour The hour.
1054:Generated_Source\PSoC4/RTC.h **** *
1055:Generated_Source\PSoC4/RTC.h **** * \param
1056:Generated_Source\PSoC4/RTC.h **** *  min The minute.
1057:Generated_Source\PSoC4/RTC.h **** *
1058:Generated_Source\PSoC4/RTC.h **** * \param
1059:Generated_Source\PSoC4/RTC.h **** *  sec The second.
1060:Generated_Source\PSoC4/RTC.h **** *
1061:Generated_Source\PSoC4/RTC.h **** * \return
1062:Generated_Source\PSoC4/RTC.h **** *  Time in the format used in API.
1063:Generated_Source\PSoC4/RTC.h **** *
1064:Generated_Source\PSoC4/RTC.h **** *******************************************************************************/
1065:Generated_Source\PSoC4/RTC.h **** static CY_INLINE uint32 RTC_ConstructTime(uint32 timeFormat, uint32 stateAmPm, uint32 hour, uint32 
1066:Generated_Source\PSoC4/RTC.h **** {
 528              		.loc 1 1066 0
 529              		.cfi_startproc
 530              		@ args = 4, pretend = 0, frame = 24
ARM GAS  C:\Users\okuntso\AppData\Local\Temp\ccSegaCM.s 			page 29


 531              		@ frame_needed = 1, uses_anonymous_args = 0
 532 0000 80B5     		push	{r7, lr}
 533              		.cfi_def_cfa_offset 8
 534              		.cfi_offset 7, -8
 535              		.cfi_offset 14, -4
 536 0002 86B0     		sub	sp, sp, #24
 537              		.cfi_def_cfa_offset 32
 538 0004 00AF     		add	r7, sp, #0
 539              		.cfi_def_cfa_register 7
 540 0006 F860     		str	r0, [r7, #12]
 541 0008 B960     		str	r1, [r7, #8]
 542 000a 7A60     		str	r2, [r7, #4]
 543 000c 3B60     		str	r3, [r7]
1067:Generated_Source\PSoC4/RTC.h ****     uint32 retVal;
1068:Generated_Source\PSoC4/RTC.h **** 
1069:Generated_Source\PSoC4/RTC.h ****     retVal  = timeFormat << RTC_TIME_FORMAT_OFFSET;
 544              		.loc 1 1069 0
 545 000e FB68     		ldr	r3, [r7, #12]
 546 0010 DB05     		lsls	r3, r3, #23
 547 0012 7B61     		str	r3, [r7, #20]
1070:Generated_Source\PSoC4/RTC.h ****     retVal |= stateAmPm << RTC_PERIOD_OF_DAY_OFFSET;
 548              		.loc 1 1070 0
 549 0014 BB68     		ldr	r3, [r7, #8]
 550 0016 9B05     		lsls	r3, r3, #22
 551 0018 7A69     		ldr	r2, [r7, #20]
 552 001a 1343     		orrs	r3, r2
 553 001c 7B61     		str	r3, [r7, #20]
1071:Generated_Source\PSoC4/RTC.h **** 
1072:Generated_Source\PSoC4/RTC.h ****     retVal |= (hour / 10u) << RTC_10_HOURS_OFFSET;
 554              		.loc 1 1072 0
 555 001e 7B68     		ldr	r3, [r7, #4]
 556 0020 0A21     		movs	r1, #10
 557 0022 1800     		movs	r0, r3
 558 0024 FFF7FEFF 		bl	__aeabi_uidiv
 559 0028 0300     		movs	r3, r0
 560 002a 1B05     		lsls	r3, r3, #20
 561 002c 7A69     		ldr	r2, [r7, #20]
 562 002e 1343     		orrs	r3, r2
 563 0030 7B61     		str	r3, [r7, #20]
1073:Generated_Source\PSoC4/RTC.h ****     retVal |= (hour % 10u) << RTC_HOURS_OFFSET;
 564              		.loc 1 1073 0
 565 0032 7B68     		ldr	r3, [r7, #4]
 566 0034 0A21     		movs	r1, #10
 567 0036 1800     		movs	r0, r3
 568 0038 FFF7FEFF 		bl	__aeabi_uidivmod
 569 003c 0B00     		movs	r3, r1
 570 003e 1B04     		lsls	r3, r3, #16
 571 0040 7A69     		ldr	r2, [r7, #20]
 572 0042 1343     		orrs	r3, r2
 573 0044 7B61     		str	r3, [r7, #20]
1074:Generated_Source\PSoC4/RTC.h **** 
1075:Generated_Source\PSoC4/RTC.h ****     retVal |= (min / 10u) << RTC_10_MINUTES_OFFSET;
 574              		.loc 1 1075 0
 575 0046 3B68     		ldr	r3, [r7]
 576 0048 0A21     		movs	r1, #10
 577 004a 1800     		movs	r0, r3
 578 004c FFF7FEFF 		bl	__aeabi_uidiv
ARM GAS  C:\Users\okuntso\AppData\Local\Temp\ccSegaCM.s 			page 30


 579 0050 0300     		movs	r3, r0
 580 0052 1B03     		lsls	r3, r3, #12
 581 0054 7A69     		ldr	r2, [r7, #20]
 582 0056 1343     		orrs	r3, r2
 583 0058 7B61     		str	r3, [r7, #20]
1076:Generated_Source\PSoC4/RTC.h ****     retVal |= (min % 10u) << RTC_MINUTES_OFFSET;
 584              		.loc 1 1076 0
 585 005a 3B68     		ldr	r3, [r7]
 586 005c 0A21     		movs	r1, #10
 587 005e 1800     		movs	r0, r3
 588 0060 FFF7FEFF 		bl	__aeabi_uidivmod
 589 0064 0B00     		movs	r3, r1
 590 0066 1B02     		lsls	r3, r3, #8
 591 0068 7A69     		ldr	r2, [r7, #20]
 592 006a 1343     		orrs	r3, r2
 593 006c 7B61     		str	r3, [r7, #20]
1077:Generated_Source\PSoC4/RTC.h **** 
1078:Generated_Source\PSoC4/RTC.h ****     retVal |= (sec / 10u) << RTC_10_SECONDS_OFFSET;
 594              		.loc 1 1078 0
 595 006e 3B6A     		ldr	r3, [r7, #32]
 596 0070 0A21     		movs	r1, #10
 597 0072 1800     		movs	r0, r3
 598 0074 FFF7FEFF 		bl	__aeabi_uidiv
 599 0078 0300     		movs	r3, r0
 600 007a 1B01     		lsls	r3, r3, #4
 601 007c 7A69     		ldr	r2, [r7, #20]
 602 007e 1343     		orrs	r3, r2
 603 0080 7B61     		str	r3, [r7, #20]
1079:Generated_Source\PSoC4/RTC.h ****     retVal |= (sec % 10u) << RTC_SECONDS_OFFSET;
 604              		.loc 1 1079 0
 605 0082 3B6A     		ldr	r3, [r7, #32]
 606 0084 0A21     		movs	r1, #10
 607 0086 1800     		movs	r0, r3
 608 0088 FFF7FEFF 		bl	__aeabi_uidivmod
 609 008c 0B00     		movs	r3, r1
 610 008e 1A00     		movs	r2, r3
 611 0090 7B69     		ldr	r3, [r7, #20]
 612 0092 1343     		orrs	r3, r2
 613 0094 7B61     		str	r3, [r7, #20]
1080:Generated_Source\PSoC4/RTC.h **** 
1081:Generated_Source\PSoC4/RTC.h ****     return (retVal);
 614              		.loc 1 1081 0
 615 0096 7B69     		ldr	r3, [r7, #20]
1082:Generated_Source\PSoC4/RTC.h **** }
 616              		.loc 1 1082 0
 617 0098 1800     		movs	r0, r3
 618 009a BD46     		mov	sp, r7
 619 009c 06B0     		add	sp, sp, #24
 620              		@ sp needed
 621 009e 80BD     		pop	{r7, pc}
 622              		.cfi_endproc
 623              	.LFE23:
 624              		.size	RTC_ConstructTime, .-RTC_ConstructTime
 625              		.section	.text.RTC_ConstructDate,"ax",%progbits
 626              		.align	2
 627              		.code	16
 628              		.thumb_func
ARM GAS  C:\Users\okuntso\AppData\Local\Temp\ccSegaCM.s 			page 31


 629              		.type	RTC_ConstructDate, %function
 630              	RTC_ConstructDate:
 631              	.LFB24:
1083:Generated_Source\PSoC4/RTC.h **** 
1084:Generated_Source\PSoC4/RTC.h **** 
1085:Generated_Source\PSoC4/RTC.h **** /*******************************************************************************
1086:Generated_Source\PSoC4/RTC.h **** * Function Name: RTC_ConstructDate
1087:Generated_Source\PSoC4/RTC.h **** ****************************************************************************//**
1088:Generated_Source\PSoC4/RTC.h **** *
1089:Generated_Source\PSoC4/RTC.h **** * \brief
1090:Generated_Source\PSoC4/RTC.h **** *  Returns the date in the format used in APIs from individual elements
1091:Generated_Source\PSoC4/RTC.h **** *  passed (day. Month and year)
1092:Generated_Source\PSoC4/RTC.h **** *
1093:Generated_Source\PSoC4/RTC.h **** * \param
1094:Generated_Source\PSoC4/RTC.h **** *  month The month.
1095:Generated_Source\PSoC4/RTC.h **** *
1096:Generated_Source\PSoC4/RTC.h **** * \param
1097:Generated_Source\PSoC4/RTC.h **** *  day The day.
1098:Generated_Source\PSoC4/RTC.h **** *
1099:Generated_Source\PSoC4/RTC.h **** * \param
1100:Generated_Source\PSoC4/RTC.h **** *  year The year.
1101:Generated_Source\PSoC4/RTC.h **** *
1102:Generated_Source\PSoC4/RTC.h **** * \return
1103:Generated_Source\PSoC4/RTC.h **** *  The date in the format used in API.
1104:Generated_Source\PSoC4/RTC.h **** *
1105:Generated_Source\PSoC4/RTC.h **** *******************************************************************************/
1106:Generated_Source\PSoC4/RTC.h **** static CY_INLINE uint32 RTC_ConstructDate(uint32 month, uint32 day, uint32 year)
1107:Generated_Source\PSoC4/RTC.h **** {
 632              		.loc 1 1107 0
 633              		.cfi_startproc
 634              		@ args = 0, pretend = 0, frame = 24
 635              		@ frame_needed = 1, uses_anonymous_args = 0
 636 0000 80B5     		push	{r7, lr}
 637              		.cfi_def_cfa_offset 8
 638              		.cfi_offset 7, -8
 639              		.cfi_offset 14, -4
 640 0002 86B0     		sub	sp, sp, #24
 641              		.cfi_def_cfa_offset 32
 642 0004 00AF     		add	r7, sp, #0
 643              		.cfi_def_cfa_register 7
 644 0006 F860     		str	r0, [r7, #12]
 645 0008 B960     		str	r1, [r7, #8]
 646 000a 7A60     		str	r2, [r7, #4]
1108:Generated_Source\PSoC4/RTC.h ****     uint32 retVal;
1109:Generated_Source\PSoC4/RTC.h ****     uint32 tmpVal = year;
 647              		.loc 1 1109 0
 648 000c 7B68     		ldr	r3, [r7, #4]
 649 000e 7B61     		str	r3, [r7, #20]
1110:Generated_Source\PSoC4/RTC.h **** 
1111:Generated_Source\PSoC4/RTC.h ****     retVal  = (month / 10u) << RTC_10_MONTH_OFFSET;
 650              		.loc 1 1111 0
 651 0010 FB68     		ldr	r3, [r7, #12]
 652 0012 0A21     		movs	r1, #10
 653 0014 1800     		movs	r0, r3
 654 0016 FFF7FEFF 		bl	__aeabi_uidiv
 655 001a 0300     		movs	r3, r0
 656 001c 1B07     		lsls	r3, r3, #28
ARM GAS  C:\Users\okuntso\AppData\Local\Temp\ccSegaCM.s 			page 32


 657 001e 3B61     		str	r3, [r7, #16]
1112:Generated_Source\PSoC4/RTC.h ****     retVal |= (month % 10u) << RTC_MONTH_OFFSET;
 658              		.loc 1 1112 0
 659 0020 FB68     		ldr	r3, [r7, #12]
 660 0022 0A21     		movs	r1, #10
 661 0024 1800     		movs	r0, r3
 662 0026 FFF7FEFF 		bl	__aeabi_uidivmod
 663 002a 0B00     		movs	r3, r1
 664 002c 1B06     		lsls	r3, r3, #24
 665 002e 3A69     		ldr	r2, [r7, #16]
 666 0030 1343     		orrs	r3, r2
 667 0032 3B61     		str	r3, [r7, #16]
1113:Generated_Source\PSoC4/RTC.h **** 
1114:Generated_Source\PSoC4/RTC.h ****     retVal |= (day / 10u) << RTC_10_DAY_OFFSET;
 668              		.loc 1 1114 0
 669 0034 BB68     		ldr	r3, [r7, #8]
 670 0036 0A21     		movs	r1, #10
 671 0038 1800     		movs	r0, r3
 672 003a FFF7FEFF 		bl	__aeabi_uidiv
 673 003e 0300     		movs	r3, r0
 674 0040 1B05     		lsls	r3, r3, #20
 675 0042 3A69     		ldr	r2, [r7, #16]
 676 0044 1343     		orrs	r3, r2
 677 0046 3B61     		str	r3, [r7, #16]
1115:Generated_Source\PSoC4/RTC.h ****     retVal |= (day % 10u) << RTC_DAY_OFFSET;
 678              		.loc 1 1115 0
 679 0048 BB68     		ldr	r3, [r7, #8]
 680 004a 0A21     		movs	r1, #10
 681 004c 1800     		movs	r0, r3
 682 004e FFF7FEFF 		bl	__aeabi_uidivmod
 683 0052 0B00     		movs	r3, r1
 684 0054 1B04     		lsls	r3, r3, #16
 685 0056 3A69     		ldr	r2, [r7, #16]
 686 0058 1343     		orrs	r3, r2
 687 005a 3B61     		str	r3, [r7, #16]
1116:Generated_Source\PSoC4/RTC.h **** 
1117:Generated_Source\PSoC4/RTC.h ****     retVal |= (year / 1000u) << RTC_1000_YEAR_OFFSET;
 688              		.loc 1 1117 0
 689 005c 7A68     		ldr	r2, [r7, #4]
 690 005e FA23     		movs	r3, #250
 691 0060 9900     		lsls	r1, r3, #2
 692 0062 1000     		movs	r0, r2
 693 0064 FFF7FEFF 		bl	__aeabi_uidiv
 694 0068 0300     		movs	r3, r0
 695 006a 1B03     		lsls	r3, r3, #12
 696 006c 3A69     		ldr	r2, [r7, #16]
 697 006e 1343     		orrs	r3, r2
 698 0070 3B61     		str	r3, [r7, #16]
1118:Generated_Source\PSoC4/RTC.h ****     tmpVal %= 1000u;
 699              		.loc 1 1118 0
 700 0072 7A69     		ldr	r2, [r7, #20]
 701 0074 FA23     		movs	r3, #250
 702 0076 9900     		lsls	r1, r3, #2
 703 0078 1000     		movs	r0, r2
 704 007a FFF7FEFF 		bl	__aeabi_uidivmod
 705 007e 0B00     		movs	r3, r1
 706 0080 7B61     		str	r3, [r7, #20]
ARM GAS  C:\Users\okuntso\AppData\Local\Temp\ccSegaCM.s 			page 33


1119:Generated_Source\PSoC4/RTC.h **** 
1120:Generated_Source\PSoC4/RTC.h ****     retVal |= (tmpVal / 100u) << RTC_100_YEAR_OFFSET;
 707              		.loc 1 1120 0
 708 0082 7B69     		ldr	r3, [r7, #20]
 709 0084 6421     		movs	r1, #100
 710 0086 1800     		movs	r0, r3
 711 0088 FFF7FEFF 		bl	__aeabi_uidiv
 712 008c 0300     		movs	r3, r0
 713 008e 1B02     		lsls	r3, r3, #8
 714 0090 3A69     		ldr	r2, [r7, #16]
 715 0092 1343     		orrs	r3, r2
 716 0094 3B61     		str	r3, [r7, #16]
1121:Generated_Source\PSoC4/RTC.h ****     tmpVal %= 100u;
 717              		.loc 1 1121 0
 718 0096 7B69     		ldr	r3, [r7, #20]
 719 0098 6421     		movs	r1, #100
 720 009a 1800     		movs	r0, r3
 721 009c FFF7FEFF 		bl	__aeabi_uidivmod
 722 00a0 0B00     		movs	r3, r1
 723 00a2 7B61     		str	r3, [r7, #20]
1122:Generated_Source\PSoC4/RTC.h **** 
1123:Generated_Source\PSoC4/RTC.h ****     retVal |= (tmpVal / 10u) << RTC_10_YEAR_OFFSET;
 724              		.loc 1 1123 0
 725 00a4 7B69     		ldr	r3, [r7, #20]
 726 00a6 0A21     		movs	r1, #10
 727 00a8 1800     		movs	r0, r3
 728 00aa FFF7FEFF 		bl	__aeabi_uidiv
 729 00ae 0300     		movs	r3, r0
 730 00b0 1B01     		lsls	r3, r3, #4
 731 00b2 3A69     		ldr	r2, [r7, #16]
 732 00b4 1343     		orrs	r3, r2
 733 00b6 3B61     		str	r3, [r7, #16]
1124:Generated_Source\PSoC4/RTC.h ****     retVal |= (tmpVal % 10u) << RTC_YEAR_OFFSET;
 734              		.loc 1 1124 0
 735 00b8 7B69     		ldr	r3, [r7, #20]
 736 00ba 0A21     		movs	r1, #10
 737 00bc 1800     		movs	r0, r3
 738 00be FFF7FEFF 		bl	__aeabi_uidivmod
 739 00c2 0B00     		movs	r3, r1
 740 00c4 1A00     		movs	r2, r3
 741 00c6 3B69     		ldr	r3, [r7, #16]
 742 00c8 1343     		orrs	r3, r2
 743 00ca 3B61     		str	r3, [r7, #16]
1125:Generated_Source\PSoC4/RTC.h **** 
1126:Generated_Source\PSoC4/RTC.h ****     return (retVal);
 744              		.loc 1 1126 0
 745 00cc 3B69     		ldr	r3, [r7, #16]
1127:Generated_Source\PSoC4/RTC.h **** }
 746              		.loc 1 1127 0
 747 00ce 1800     		movs	r0, r3
 748 00d0 BD46     		mov	sp, r7
 749 00d2 06B0     		add	sp, sp, #24
 750              		@ sp needed
 751 00d4 80BD     		pop	{r7, pc}
 752              		.cfi_endproc
 753              	.LFE24:
 754              		.size	RTC_ConstructDate, .-RTC_ConstructDate
ARM GAS  C:\Users\okuntso\AppData\Local\Temp\ccSegaCM.s 			page 34


 755              		.section	.text.RTC_GetDayOfWeek,"ax",%progbits
 756              		.align	2
 757              		.code	16
 758              		.thumb_func
 759              		.type	RTC_GetDayOfWeek, %function
 760              	RTC_GetDayOfWeek:
 761              	.LFB25:
1128:Generated_Source\PSoC4/RTC.h **** 
1129:Generated_Source\PSoC4/RTC.h **** 
1130:Generated_Source\PSoC4/RTC.h **** /*******************************************************************************
1131:Generated_Source\PSoC4/RTC.h **** * Function Name: RTC_GetDayOfWeek
1132:Generated_Source\PSoC4/RTC.h **** ****************************************************************************//**
1133:Generated_Source\PSoC4/RTC.h **** * \internal
1134:Generated_Source\PSoC4/RTC.h **** *
1135:Generated_Source\PSoC4/RTC.h **** * \brief
1136:Generated_Source\PSoC4/RTC.h **** *  Returns a day of the week for a year, month, and day of month that are passed
1137:Generated_Source\PSoC4/RTC.h **** *  through parameters. Zeller's congruence is used to calculate the day of
1138:Generated_Source\PSoC4/RTC.h **** *  the week.
1139:Generated_Source\PSoC4/RTC.h **** *
1140:Generated_Source\PSoC4/RTC.h **** *  For the Georgian calendar, Zeller's congruence is:
1141:Generated_Source\PSoC4/RTC.h **** *  h = (q + [13 * (m + 1)] + K + [K/4] + [J/4] - 2J) mod 7
1142:Generated_Source\PSoC4/RTC.h **** *
1143:Generated_Source\PSoC4/RTC.h **** *  h - The day of the week (0 = Saturday, 1 = Sunday, 2 = Monday, ..., 6 = Friday).
1144:Generated_Source\PSoC4/RTC.h **** *  q - The day of the month.
1145:Generated_Source\PSoC4/RTC.h **** *  m - The month (3 = March, 4 = April, 5 = May, ..., 14 = February)
1146:Generated_Source\PSoC4/RTC.h **** *  K - The year of the century (year \mod 100).
1147:Generated_Source\PSoC4/RTC.h **** *  J - The zero-based century (actually [year/100]) For example, the zero-based
1148:Generated_Source\PSoC4/RTC.h **** *  centuries for 1995 and 2000 are 19 and 20 respectively (not to be
1149:Generated_Source\PSoC4/RTC.h **** *  confused with the common ordinal century enumeration which indicates
1150:Generated_Source\PSoC4/RTC.h **** *  20th for both cases).
1151:Generated_Source\PSoC4/RTC.h **** *
1152:Generated_Source\PSoC4/RTC.h **** * \note In this algorithm January and February are counted as months 13 and 14
1153:Generated_Source\PSoC4/RTC.h **** * of the previous year.
1154:Generated_Source\PSoC4/RTC.h **** *
1155:Generated_Source\PSoC4/RTC.h **** * \param
1156:Generated_Source\PSoC4/RTC.h **** *  day The day of the month(1..31)
1157:Generated_Source\PSoC4/RTC.h **** *
1158:Generated_Source\PSoC4/RTC.h **** * \param
1159:Generated_Source\PSoC4/RTC.h **** *  month The month of the year
1160:Generated_Source\PSoC4/RTC.h **** * RTC_JANUARY <br>
1161:Generated_Source\PSoC4/RTC.h **** * RTC_FEBRUARY <br>
1162:Generated_Source\PSoC4/RTC.h **** * RTC_MARCH <br>
1163:Generated_Source\PSoC4/RTC.h **** * RTC_APRIL <br>
1164:Generated_Source\PSoC4/RTC.h **** * RTC_MAY <br>
1165:Generated_Source\PSoC4/RTC.h **** * RTC_JUNE <br>
1166:Generated_Source\PSoC4/RTC.h **** * RTC_JULY <br>
1167:Generated_Source\PSoC4/RTC.h **** * RTC_AUGUST <br>
1168:Generated_Source\PSoC4/RTC.h **** * RTC_SEPTEMBER <br>
1169:Generated_Source\PSoC4/RTC.h **** * RTC_OCTOBER <br>
1170:Generated_Source\PSoC4/RTC.h **** * RTC_NOVEMBER <br>
1171:Generated_Source\PSoC4/RTC.h **** * RTC_DECEMBER <br>
1172:Generated_Source\PSoC4/RTC.h **** *
1173:Generated_Source\PSoC4/RTC.h **** * \param
1174:Generated_Source\PSoC4/RTC.h **** *  year The year value.
1175:Generated_Source\PSoC4/RTC.h **** *
1176:Generated_Source\PSoC4/RTC.h **** * \return
1177:Generated_Source\PSoC4/RTC.h **** * Returns a day of the week
ARM GAS  C:\Users\okuntso\AppData\Local\Temp\ccSegaCM.s 			page 35


1178:Generated_Source\PSoC4/RTC.h **** * RTC_SUNDAY <br>
1179:Generated_Source\PSoC4/RTC.h **** * RTC_MONDAY <br>
1180:Generated_Source\PSoC4/RTC.h **** * RTC_TUESDAY <br>
1181:Generated_Source\PSoC4/RTC.h **** * RTC_WEDNESDAY <br>
1182:Generated_Source\PSoC4/RTC.h **** * RTC_THURSDAY <br>
1183:Generated_Source\PSoC4/RTC.h **** * RTC_FRIDAY <br>
1184:Generated_Source\PSoC4/RTC.h **** * RTC_SATURDAY <br>
1185:Generated_Source\PSoC4/RTC.h **** *
1186:Generated_Source\PSoC4/RTC.h **** * \endinternal
1187:Generated_Source\PSoC4/RTC.h **** *******************************************************************************/
1188:Generated_Source\PSoC4/RTC.h **** static CY_INLINE uint32 RTC_GetDayOfWeek(uint32 day, uint32 month, uint32 year)
1189:Generated_Source\PSoC4/RTC.h **** {
 762              		.loc 1 1189 0
 763              		.cfi_startproc
 764              		@ args = 0, pretend = 0, frame = 24
 765              		@ frame_needed = 1, uses_anonymous_args = 0
 766 0000 90B5     		push	{r4, r7, lr}
 767              		.cfi_def_cfa_offset 12
 768              		.cfi_offset 4, -12
 769              		.cfi_offset 7, -8
 770              		.cfi_offset 14, -4
 771 0002 87B0     		sub	sp, sp, #28
 772              		.cfi_def_cfa_offset 40
 773 0004 00AF     		add	r7, sp, #0
 774              		.cfi_def_cfa_register 7
 775 0006 F860     		str	r0, [r7, #12]
 776 0008 B960     		str	r1, [r7, #8]
 777 000a 7A60     		str	r2, [r7, #4]
1190:Generated_Source\PSoC4/RTC.h ****     uint32 retVal;
1191:Generated_Source\PSoC4/RTC.h **** 
1192:Generated_Source\PSoC4/RTC.h ****     /* Converts month number from regular convention
1193:Generated_Source\PSoC4/RTC.h ****      * (1=January,..., 12=December) to convention required for this
1194:Generated_Source\PSoC4/RTC.h ****      * algorithm(January and February are counted as months 13 and 14 of
1195:Generated_Source\PSoC4/RTC.h ****      * previous year).
1196:Generated_Source\PSoC4/RTC.h ****     */
1197:Generated_Source\PSoC4/RTC.h ****     if(month < (uint32)RTC_MARCH)
 778              		.loc 1 1197 0
 779 000c BB68     		ldr	r3, [r7, #8]
 780 000e 022B     		cmp	r3, #2
 781 0010 05D8     		bhi	.L34
1198:Generated_Source\PSoC4/RTC.h ****     {
1199:Generated_Source\PSoC4/RTC.h ****         month = 12u + month;
 782              		.loc 1 1199 0
 783 0012 BB68     		ldr	r3, [r7, #8]
 784 0014 0C33     		adds	r3, r3, #12
 785 0016 BB60     		str	r3, [r7, #8]
1200:Generated_Source\PSoC4/RTC.h ****         year--;
 786              		.loc 1 1200 0
 787 0018 7B68     		ldr	r3, [r7, #4]
 788 001a 013B     		subs	r3, r3, #1
 789 001c 7B60     		str	r3, [r7, #4]
 790              	.L34:
1201:Generated_Source\PSoC4/RTC.h ****     }
1202:Generated_Source\PSoC4/RTC.h **** 
1203:Generated_Source\PSoC4/RTC.h ****     /* Calculates Day of Week using Zeller's congruence algorithms.
1204:Generated_Source\PSoC4/RTC.h ****     */
1205:Generated_Source\PSoC4/RTC.h ****     retVal = (day + (((month + 1u) * 26u) / 10u) + year + (year / 4u) + (6u * (year / 100u)) + (yea
ARM GAS  C:\Users\okuntso\AppData\Local\Temp\ccSegaCM.s 			page 36


 791              		.loc 1 1205 0
 792 001e BB68     		ldr	r3, [r7, #8]
 793 0020 0133     		adds	r3, r3, #1
 794 0022 1A22     		movs	r2, #26
 795 0024 5343     		muls	r3, r2
 796 0026 0A21     		movs	r1, #10
 797 0028 1800     		movs	r0, r3
 798 002a FFF7FEFF 		bl	__aeabi_uidiv
 799 002e 0300     		movs	r3, r0
 800 0030 1A00     		movs	r2, r3
 801 0032 FB68     		ldr	r3, [r7, #12]
 802 0034 D218     		adds	r2, r2, r3
 803 0036 7B68     		ldr	r3, [r7, #4]
 804 0038 D218     		adds	r2, r2, r3
 805 003a 7B68     		ldr	r3, [r7, #4]
 806 003c 9B08     		lsrs	r3, r3, #2
 807 003e D418     		adds	r4, r2, r3
 808 0040 7B68     		ldr	r3, [r7, #4]
 809 0042 6421     		movs	r1, #100
 810 0044 1800     		movs	r0, r3
 811 0046 FFF7FEFF 		bl	__aeabi_uidiv
 812 004a 0300     		movs	r3, r0
 813 004c 1A00     		movs	r2, r3
 814 004e 1300     		movs	r3, r2
 815 0050 5B00     		lsls	r3, r3, #1
 816 0052 9B18     		adds	r3, r3, r2
 817 0054 5B00     		lsls	r3, r3, #1
 818 0056 E418     		adds	r4, r4, r3
 819 0058 7A68     		ldr	r2, [r7, #4]
 820 005a C823     		movs	r3, #200
 821 005c 5900     		lsls	r1, r3, #1
 822 005e 1000     		movs	r0, r2
 823 0060 FFF7FEFF 		bl	__aeabi_uidiv
 824 0064 0300     		movs	r3, r0
 825 0066 E318     		adds	r3, r4, r3
 826 0068 0721     		movs	r1, #7
 827 006a 1800     		movs	r0, r3
 828 006c FFF7FEFF 		bl	__aeabi_uidivmod
 829 0070 0B00     		movs	r3, r1
 830 0072 7B61     		str	r3, [r7, #20]
1206:Generated_Source\PSoC4/RTC.h **** 
1207:Generated_Source\PSoC4/RTC.h ****     /* Makes correction for Saturday. Saturday number should be 7 instead of 0. */
1208:Generated_Source\PSoC4/RTC.h ****     if(0u == retVal)
 831              		.loc 1 1208 0
 832 0074 7B69     		ldr	r3, [r7, #20]
 833 0076 002B     		cmp	r3, #0
 834 0078 01D1     		bne	.L35
1209:Generated_Source\PSoC4/RTC.h ****     {
1210:Generated_Source\PSoC4/RTC.h ****         retVal = (uint32)RTC_SATURDAY;
 835              		.loc 1 1210 0
 836 007a 0723     		movs	r3, #7
 837 007c 7B61     		str	r3, [r7, #20]
 838              	.L35:
1211:Generated_Source\PSoC4/RTC.h ****     }
1212:Generated_Source\PSoC4/RTC.h **** 
1213:Generated_Source\PSoC4/RTC.h ****     return(retVal);
 839              		.loc 1 1213 0
ARM GAS  C:\Users\okuntso\AppData\Local\Temp\ccSegaCM.s 			page 37


 840 007e 7B69     		ldr	r3, [r7, #20]
1214:Generated_Source\PSoC4/RTC.h **** }
 841              		.loc 1 1214 0
 842 0080 1800     		movs	r0, r3
 843 0082 BD46     		mov	sp, r7
 844 0084 07B0     		add	sp, sp, #28
 845              		@ sp needed
 846 0086 90BD     		pop	{r4, r7, pc}
 847              		.cfi_endproc
 848              	.LFE25:
 849              		.size	RTC_GetDayOfWeek, .-RTC_GetDayOfWeek
 850              		.comm	RTC_initVar,1,1
 851              		.comm	RTC_unixTime,8,8
 852              		.comm	RTC_currentTimeDate,16,4
 853              		.bss
 854              		.align	2
 855              	RTC_updateTimePeriod:
 856 0000 00000000 		.space	4
 857              		.align	2
 858              	RTC_tickRefOneSec:
 859 0004 00000000 		.space	4
 860              		.comm	RTC_dstStatus,1,1
 861              		.align	2
 862              	RTC_dstTimeOffset:
 863 0008 00000000 		.space	4
 864 000c 00000000 		.align	3
 865              	RTC_unixTimeDstStart:
 866 0010 00000000 		.space	8
 866      00000000 
 867              		.align	3
 868              	RTC_unixTimeDstStop:
 869 0018 00000000 		.space	8
 869      00000000 
 870              		.comm	RTC_dstStartTime,24,4
 871              		.comm	RTC_dstStopTime,24,4
 872              		.comm	RTC_alarmCurStatus,4,4
 873              		.global	RTC_daysBeforeMonthTbl
 874              		.section	.rodata
 875              		.align	2
 876              		.type	RTC_daysBeforeMonthTbl, %object
 877              		.size	RTC_daysBeforeMonthTbl, 24
 878              	RTC_daysBeforeMonthTbl:
 879 0000 0000     		.short	0
 880 0002 1F00     		.short	31
 881 0004 3B00     		.short	59
 882 0006 5A00     		.short	90
 883 0008 7800     		.short	120
 884 000a 9700     		.short	151
 885 000c B500     		.short	181
 886 000e D400     		.short	212
 887 0010 F300     		.short	243
 888 0012 1101     		.short	273
 889 0014 3001     		.short	304
 890 0016 4E01     		.short	334
 891              		.global	RTC_daysInMonthTbl
 892              		.align	2
 893              		.type	RTC_daysInMonthTbl, %object
ARM GAS  C:\Users\okuntso\AppData\Local\Temp\ccSegaCM.s 			page 38


 894              		.size	RTC_daysInMonthTbl, 12
 895              	RTC_daysInMonthTbl:
 896 0018 1F       		.byte	31
 897 0019 1C       		.byte	28
 898 001a 1F       		.byte	31
 899 001b 1E       		.byte	30
 900 001c 1F       		.byte	31
 901 001d 1E       		.byte	30
 902 001e 1F       		.byte	31
 903 001f 1F       		.byte	31
 904 0020 1E       		.byte	30
 905 0021 1F       		.byte	31
 906 0022 1E       		.byte	30
 907 0023 1F       		.byte	31
 908              		.section	.text.RTC_Start,"ax",%progbits
 909              		.align	2
 910              		.global	RTC_Start
 911              		.code	16
 912              		.thumb_func
 913              		.type	RTC_Start, %function
 914              	RTC_Start:
 915              	.LFB26:
 916              		.file 2 "Generated_Source\\PSoC4\\RTC.c"
   1:Generated_Source\PSoC4/RTC.c **** /***************************************************************************//**
   2:Generated_Source\PSoC4/RTC.c **** * \file Name: RTC.c
   3:Generated_Source\PSoC4/RTC.c **** * \version 1.10
   4:Generated_Source\PSoC4/RTC.c **** *
   5:Generated_Source\PSoC4/RTC.c **** * \brief
   6:Generated_Source\PSoC4/RTC.c **** *  This file provides the source code to the API for the RTC_P4 Component.
   7:Generated_Source\PSoC4/RTC.c **** *
   8:Generated_Source\PSoC4/RTC.c **** ********************************************************************************
   9:Generated_Source\PSoC4/RTC.c **** * \copyright
  10:Generated_Source\PSoC4/RTC.c **** * Copyright 2015-2016, Cypress Semiconductor Corporation. All rights reserved.
  11:Generated_Source\PSoC4/RTC.c **** * You may use this file only in accordance with the license, terms, conditions,
  12:Generated_Source\PSoC4/RTC.c **** * disclaimers, and limitations in the end user license agreement accompanying
  13:Generated_Source\PSoC4/RTC.c **** * the software package with which this file was provided.
  14:Generated_Source\PSoC4/RTC.c **** *******************************************************************************/
  15:Generated_Source\PSoC4/RTC.c **** 
  16:Generated_Source\PSoC4/RTC.c **** #include "RTC.h"
  17:Generated_Source\PSoC4/RTC.c **** 
  18:Generated_Source\PSoC4/RTC.c **** uint8  RTC_initVar;
  19:Generated_Source\PSoC4/RTC.c **** 
  20:Generated_Source\PSoC4/RTC.c **** volatile uint64 RTC_unixTime;
  21:Generated_Source\PSoC4/RTC.c **** RTC_DATE_TIME RTC_currentTimeDate;
  22:Generated_Source\PSoC4/RTC.c **** 
  23:Generated_Source\PSoC4/RTC.c **** static uint32 RTC_updateTimePeriod;
  24:Generated_Source\PSoC4/RTC.c **** static uint32 RTC_tickRefOneSec;
  25:Generated_Source\PSoC4/RTC.c **** 
  26:Generated_Source\PSoC4/RTC.c **** uint8  RTC_dstStatus;
  27:Generated_Source\PSoC4/RTC.c **** static uint32 RTC_dstTimeOffset;
  28:Generated_Source\PSoC4/RTC.c **** #if(0u != RTC_INITIAL_DST_STATUS)
  29:Generated_Source\PSoC4/RTC.c ****     static volatile uint64 RTC_unixTimeDstStart;
  30:Generated_Source\PSoC4/RTC.c ****     static volatile uint64 RTC_unixTimeDstStop;
  31:Generated_Source\PSoC4/RTC.c ****     RTC_DST_TIME RTC_dstStartTime;
  32:Generated_Source\PSoC4/RTC.c ****     RTC_DST_TIME RTC_dstStopTime;
  33:Generated_Source\PSoC4/RTC.c **** #endif /* (0u != RTC_INITIAL_DST_STATUS) */
  34:Generated_Source\PSoC4/RTC.c **** 
ARM GAS  C:\Users\okuntso\AppData\Local\Temp\ccSegaCM.s 			page 39


  35:Generated_Source\PSoC4/RTC.c **** uint32 RTC_alarmCurStatus;
  36:Generated_Source\PSoC4/RTC.c **** #if(0u != RTC_INITIAL_ALARM_STATUS)
  37:Generated_Source\PSoC4/RTC.c ****     uint32  RTC_alarmCfgMask = 0xFFu;
  38:Generated_Source\PSoC4/RTC.c ****     static volatile uint64 RTC_unixTimeAlarm;
  39:Generated_Source\PSoC4/RTC.c ****     RTC_DATE_TIME RTC_alarmCfgTimeDate;
  40:Generated_Source\PSoC4/RTC.c ****     void (*RTC_alarmCallbackPtr)(void) = (void *)0;
  41:Generated_Source\PSoC4/RTC.c **** #endif /* (0u != RTC_INITIAL_ALARM_STATUS) */
  42:Generated_Source\PSoC4/RTC.c **** 
  43:Generated_Source\PSoC4/RTC.c **** const uint16 RTC_daysBeforeMonthTbl[RTC_MONTHS_PER_YEAR] = {
  44:Generated_Source\PSoC4/RTC.c ****                                                  (0u), /* JANUARY */
  45:Generated_Source\PSoC4/RTC.c ****                                                  (0u + 31u), /* FEBRUARY */
  46:Generated_Source\PSoC4/RTC.c ****                                                  (0u + 31u + 28u), /* MARCH */
  47:Generated_Source\PSoC4/RTC.c ****                                                  (0u + 31u + 28u + 31u), /* APRIL */
  48:Generated_Source\PSoC4/RTC.c ****                                                  (0u + 31u + 28u + 31u + 30u), /* MAY */
  49:Generated_Source\PSoC4/RTC.c ****                                                  (0u + 31u + 28u + 31u + 30u + 31u), /* JUNE */
  50:Generated_Source\PSoC4/RTC.c ****                                                  (0u + 31u + 28u + 31u + 30u + 31u + 30u), /* JULY 
  51:Generated_Source\PSoC4/RTC.c ****                                                  (0u + 31u + 28u + 31u + 30u + 31u + 30u + 31u), /*
  52:Generated_Source\PSoC4/RTC.c ****                                                  (0u + 31u + 28u + 31u + 30u + 31u + 30u + 31u + 31
  53:Generated_Source\PSoC4/RTC.c ****                                                  (0u + 31u + 28u + 31u + 30u + 31u + 30u + 31u + 31
  54:Generated_Source\PSoC4/RTC.c ****                                                  (0u + 31u + 28u + 31u + 30u + 31u + 30u + 31u + 31
  55:Generated_Source\PSoC4/RTC.c ****                                                  (0u + 31u + 28u + 31u + 30u + 31u + 30u + 31u + 31
  56:Generated_Source\PSoC4/RTC.c **** 
  57:Generated_Source\PSoC4/RTC.c **** const uint8 RTC_daysInMonthTbl[RTC_MONTHS_PER_YEAR] = {RTC_DAYS_IN_JANUARY,
  58:Generated_Source\PSoC4/RTC.c ****                                                                                  RTC_DAYS_IN_FEBRUA
  59:Generated_Source\PSoC4/RTC.c ****                                                                                  RTC_DAYS_IN_MARCH,
  60:Generated_Source\PSoC4/RTC.c ****                                                                                  RTC_DAYS_IN_APRIL,
  61:Generated_Source\PSoC4/RTC.c ****                                                                                  RTC_DAYS_IN_MAY,
  62:Generated_Source\PSoC4/RTC.c ****                                                                                  RTC_DAYS_IN_JUNE,
  63:Generated_Source\PSoC4/RTC.c ****                                                                                  RTC_DAYS_IN_JULY,
  64:Generated_Source\PSoC4/RTC.c ****                                                                                  RTC_DAYS_IN_AUGUST
  65:Generated_Source\PSoC4/RTC.c ****                                                                                  RTC_DAYS_IN_SEPTEM
  66:Generated_Source\PSoC4/RTC.c ****                                                                                  RTC_DAYS_IN_OCTOBE
  67:Generated_Source\PSoC4/RTC.c ****                                                                                  RTC_DAYS_IN_NOVEMB
  68:Generated_Source\PSoC4/RTC.c ****                                                                                  RTC_DAYS_IN_DECEMB
  69:Generated_Source\PSoC4/RTC.c **** 
  70:Generated_Source\PSoC4/RTC.c **** 
  71:Generated_Source\PSoC4/RTC.c **** /*******************************************************************************
  72:Generated_Source\PSoC4/RTC.c **** * Function Name: RTC_Start
  73:Generated_Source\PSoC4/RTC.c **** ****************************************************************************//**
  74:Generated_Source\PSoC4/RTC.c **** *
  75:Generated_Source\PSoC4/RTC.c **** * \brief
  76:Generated_Source\PSoC4/RTC.c **** *  Performs all the required calculations for the time and date registers and
  77:Generated_Source\PSoC4/RTC.c **** *  initializes the component along with the date and time selected in the
  78:Generated_Source\PSoC4/RTC.c **** *  customizer. 
  79:Generated_Source\PSoC4/RTC.c **** *
  80:Generated_Source\PSoC4/RTC.c **** *  If "Implement RTC update manually" is disabled in the customizer
  81:Generated_Source\PSoC4/RTC.c **** *  and if WDT or WCO timer is selected as a source in the clocks configuration 
  82:Generated_Source\PSoC4/RTC.c **** *  window (low frequency clocks tab), attaches RTC_Update API to a corresponding
  83:Generated_Source\PSoC4/RTC.c **** *  WDT's or WCO's ISR callback.
  84:Generated_Source\PSoC4/RTC.c **** *
  85:Generated_Source\PSoC4/RTC.c **** * \note "Implement RTC update manually" checkbox is available for PSoC 4200L / 
  86:Generated_Source\PSoC4/RTC.c **** * PSoC 4100M / PSoC 4200M / PSoC 4100 BLE / PSoC 4200 BLE / PSoC 4000S / PSoC 
  87:Generated_Source\PSoC4/RTC.c **** * 4100S and Analog Coprocessor.
  88:Generated_Source\PSoC4/RTC.c **** *
  89:Generated_Source\PSoC4/RTC.c **** *******************************************************************************/
  90:Generated_Source\PSoC4/RTC.c **** void RTC_Start(void)
  91:Generated_Source\PSoC4/RTC.c **** {
ARM GAS  C:\Users\okuntso\AppData\Local\Temp\ccSegaCM.s 			page 40


 917              		.loc 2 91 0
 918              		.cfi_startproc
 919              		@ args = 0, pretend = 0, frame = 0
 920              		@ frame_needed = 1, uses_anonymous_args = 0
 921 0000 80B5     		push	{r7, lr}
 922              		.cfi_def_cfa_offset 8
 923              		.cfi_offset 7, -8
 924              		.cfi_offset 14, -4
 925 0002 00AF     		add	r7, sp, #0
 926              		.cfi_def_cfa_register 7
  92:Generated_Source\PSoC4/RTC.c ****     if(0u == RTC_initVar)
 927              		.loc 2 92 0
 928 0004 044B     		ldr	r3, .L40
 929 0006 1B78     		ldrb	r3, [r3]
 930 0008 002B     		cmp	r3, #0
 931 000a 01D1     		bne	.L39
  93:Generated_Source\PSoC4/RTC.c ****     {
  94:Generated_Source\PSoC4/RTC.c ****         RTC_Init();
 932              		.loc 2 94 0
 933 000c FFF7FEFF 		bl	RTC_Init
 934              	.L39:
  95:Generated_Source\PSoC4/RTC.c ****     }
  96:Generated_Source\PSoC4/RTC.c **** 
  97:Generated_Source\PSoC4/RTC.c ****     #if defined(CYDEV_RTC_SOURCE_WDT)
  98:Generated_Source\PSoC4/RTC.c ****         #if((0u != CYDEV_WDT_GENERATE_ISR) && (0u == RTC_INITIAL_UPDATE_MODE))
  99:Generated_Source\PSoC4/RTC.c ****             RTC_CySysRtcSetCallback(CYDEV_RTC_SOURCE_WDT);
 100:Generated_Source\PSoC4/RTC.c ****         #endif /* ((0u != CYDEV_WDT_GENERATE_ISR) && (0u == RTC_INITIAL_UPDATE_MODE)) */
 101:Generated_Source\PSoC4/RTC.c ****     #endif /* (CYDEV_RTC_SOURCE_WDT) */
 102:Generated_Source\PSoC4/RTC.c **** }
 935              		.loc 2 102 0
 936 0010 C046     		nop
 937 0012 BD46     		mov	sp, r7
 938              		@ sp needed
 939 0014 80BD     		pop	{r7, pc}
 940              	.L41:
 941 0016 C046     		.align	2
 942              	.L40:
 943 0018 00000000 		.word	RTC_initVar
 944              		.cfi_endproc
 945              	.LFE26:
 946              		.size	RTC_Start, .-RTC_Start
 947              		.section	.text.RTC_Stop,"ax",%progbits
 948              		.align	2
 949              		.global	RTC_Stop
 950              		.code	16
 951              		.thumb_func
 952              		.type	RTC_Stop, %function
 953              	RTC_Stop:
 954              	.LFB27:
 103:Generated_Source\PSoC4/RTC.c **** 
 104:Generated_Source\PSoC4/RTC.c **** 
 105:Generated_Source\PSoC4/RTC.c **** /*******************************************************************************
 106:Generated_Source\PSoC4/RTC.c **** * Function Name: RTC_Stop
 107:Generated_Source\PSoC4/RTC.c **** ****************************************************************************//**
 108:Generated_Source\PSoC4/RTC.c **** *
 109:Generated_Source\PSoC4/RTC.c **** * \brief
 110:Generated_Source\PSoC4/RTC.c **** *  Stops the time and date updates.
ARM GAS  C:\Users\okuntso\AppData\Local\Temp\ccSegaCM.s 			page 41


 111:Generated_Source\PSoC4/RTC.c **** *
 112:Generated_Source\PSoC4/RTC.c **** *******************************************************************************/
 113:Generated_Source\PSoC4/RTC.c **** void RTC_Stop(void)
 114:Generated_Source\PSoC4/RTC.c **** {
 955              		.loc 2 114 0
 956              		.cfi_startproc
 957              		@ args = 0, pretend = 0, frame = 0
 958              		@ frame_needed = 1, uses_anonymous_args = 0
 959 0000 80B5     		push	{r7, lr}
 960              		.cfi_def_cfa_offset 8
 961              		.cfi_offset 7, -8
 962              		.cfi_offset 14, -4
 963 0002 00AF     		add	r7, sp, #0
 964              		.cfi_def_cfa_register 7
 115:Generated_Source\PSoC4/RTC.c ****     #if defined(CYDEV_RTC_SOURCE_WDT)
 116:Generated_Source\PSoC4/RTC.c ****         #if((0u != CYDEV_WDT_GENERATE_ISR) && (0u == RTC_INITIAL_UPDATE_MODE))
 117:Generated_Source\PSoC4/RTC.c ****             RTC_CySysRtcResetCallback(CYDEV_RTC_SOURCE_WDT);
 118:Generated_Source\PSoC4/RTC.c ****         #endif /* ((0u != CYDEV_WDT_GENERATE_ISR) && (0u == RTC_INITIAL_UPDATE_MODE)) */
 119:Generated_Source\PSoC4/RTC.c ****     #endif /* (CYDEV_RTC_SOURCE_WDT) */
 120:Generated_Source\PSoC4/RTC.c **** }
 965              		.loc 2 120 0
 966 0004 C046     		nop
 967 0006 BD46     		mov	sp, r7
 968              		@ sp needed
 969 0008 80BD     		pop	{r7, pc}
 970              		.cfi_endproc
 971              	.LFE27:
 972              		.size	RTC_Stop, .-RTC_Stop
 973              		.section	.text.RTC_Init,"ax",%progbits
 974              		.align	2
 975              		.global	RTC_Init
 976              		.code	16
 977              		.thumb_func
 978              		.type	RTC_Init, %function
 979              	RTC_Init:
 980              	.LFB28:
 121:Generated_Source\PSoC4/RTC.c **** 
 122:Generated_Source\PSoC4/RTC.c **** 
 123:Generated_Source\PSoC4/RTC.c **** /*******************************************************************************
 124:Generated_Source\PSoC4/RTC.c **** * Function Name: RTC_Init
 125:Generated_Source\PSoC4/RTC.c **** ****************************************************************************//**
 126:Generated_Source\PSoC4/RTC.c **** *
 127:Generated_Source\PSoC4/RTC.c **** * \brief
 128:Generated_Source\PSoC4/RTC.c **** *  Initializes or restores the component according to the customizer Configure
 129:Generated_Source\PSoC4/RTC.c **** *  dialog settings. 
 130:Generated_Source\PSoC4/RTC.c **** *
 131:Generated_Source\PSoC4/RTC.c **** * It is not necessary to call RTC_Init() because
 132:Generated_Source\PSoC4/RTC.c **** *  RTC_Start() API calls this function and is the preferred method to begin
 133:Generated_Source\PSoC4/RTC.c **** *  component operation.
 134:Generated_Source\PSoC4/RTC.c **** *
 135:Generated_Source\PSoC4/RTC.c **** *  All registers are set to values according to the customizer Configure
 136:Generated_Source\PSoC4/RTC.c **** *  dialog. The default date value, if not set by the user before this function 
 137:Generated_Source\PSoC4/RTC.c **** *  call, is 12:00:00 AM January 1, 2000.
 138:Generated_Source\PSoC4/RTC.c **** *
 139:Generated_Source\PSoC4/RTC.c **** *******************************************************************************/
 140:Generated_Source\PSoC4/RTC.c **** void RTC_Init(void)
 141:Generated_Source\PSoC4/RTC.c **** {
ARM GAS  C:\Users\okuntso\AppData\Local\Temp\ccSegaCM.s 			page 42


 981              		.loc 2 141 0
 982              		.cfi_startproc
 983              		@ args = 0, pretend = 0, frame = 32
 984              		@ frame_needed = 1, uses_anonymous_args = 0
 985 0000 90B5     		push	{r4, r7, lr}
 986              		.cfi_def_cfa_offset 12
 987              		.cfi_offset 4, -12
 988              		.cfi_offset 7, -8
 989              		.cfi_offset 14, -4
 990 0002 8BB0     		sub	sp, sp, #44
 991              		.cfi_def_cfa_offset 56
 992 0004 02AF     		add	r7, sp, #8
 993              		.cfi_def_cfa 7, 48
 142:Generated_Source\PSoC4/RTC.c ****     uint32 tmpDate;
 143:Generated_Source\PSoC4/RTC.c ****     uint32 tmpTime;
 144:Generated_Source\PSoC4/RTC.c **** 
 145:Generated_Source\PSoC4/RTC.c ****     #if(0u != RTC_INITIAL_DST_STATUS)
 146:Generated_Source\PSoC4/RTC.c ****         RTC_DST_TIME dstTimeTmp;
 147:Generated_Source\PSoC4/RTC.c ****     #endif /* (0u != RTC_INITIAL_DST_STATUS) */
 148:Generated_Source\PSoC4/RTC.c **** 
 149:Generated_Source\PSoC4/RTC.c ****     RTC_initVar = 1u;
 994              		.loc 2 149 0
 995 0006 474B     		ldr	r3, .L49
 996 0008 0122     		movs	r2, #1
 997 000a 1A70     		strb	r2, [r3]
 150:Generated_Source\PSoC4/RTC.c ****     RTC_dstTimeOffset = 0uL;
 998              		.loc 2 150 0
 999 000c 464B     		ldr	r3, .L49+4
 1000 000e 0022     		movs	r2, #0
 1001 0010 1A60     		str	r2, [r3]
 151:Generated_Source\PSoC4/RTC.c ****     RTC_currentTimeDate.status = 0uL;
 1002              		.loc 2 151 0
 1003 0012 464B     		ldr	r3, .L49+8
 1004 0014 0022     		movs	r2, #0
 1005 0016 DA60     		str	r2, [r3, #12]
 152:Generated_Source\PSoC4/RTC.c **** 
 153:Generated_Source\PSoC4/RTC.c ****     RTC_dstStatus      = RTC_INITIAL_DST_STATUS;
 1006              		.loc 2 153 0
 1007 0018 454B     		ldr	r3, .L49+12
 1008 001a 0122     		movs	r2, #1
 1009 001c 1A70     		strb	r2, [r3]
 154:Generated_Source\PSoC4/RTC.c ****     RTC_alarmCurStatus = RTC_INITIAL_ALARM_STATUS;
 1010              		.loc 2 154 0
 1011 001e 454B     		ldr	r3, .L49+16
 1012 0020 0022     		movs	r2, #0
 1013 0022 1A60     		str	r2, [r3]
 155:Generated_Source\PSoC4/RTC.c **** 
 156:Generated_Source\PSoC4/RTC.c ****     tmpDate = RTC_ConstructDate(RTC_INITIAL_MONTH,
 1014              		.loc 2 156 0
 1015 0024 444B     		ldr	r3, .L49+20
 1016 0026 1A00     		movs	r2, r3
 1017 0028 0121     		movs	r1, #1
 1018 002a 0120     		movs	r0, #1
 1019 002c FFF7FEFF 		bl	RTC_ConstructDate
 1020 0030 0300     		movs	r3, r0
 1021 0032 FB61     		str	r3, [r7, #28]
 157:Generated_Source\PSoC4/RTC.c ****                                           RTC_INITIAL_DAY,
ARM GAS  C:\Users\okuntso\AppData\Local\Temp\ccSegaCM.s 			page 43


 158:Generated_Source\PSoC4/RTC.c ****                                           RTC_INITIAL_YEAR);
 159:Generated_Source\PSoC4/RTC.c **** 
 160:Generated_Source\PSoC4/RTC.c ****     tmpTime = RTC_ConstructTime(RTC_INITIAL_TIME_FORMAT,
 1022              		.loc 2 160 0
 1023 0034 0023     		movs	r3, #0
 1024 0036 0093     		str	r3, [sp]
 1025 0038 0023     		movs	r3, #0
 1026 003a 0022     		movs	r2, #0
 1027 003c 0021     		movs	r1, #0
 1028 003e 0020     		movs	r0, #0
 1029 0040 FFF7FEFF 		bl	RTC_ConstructTime
 1030 0044 0300     		movs	r3, r0
 1031 0046 BB61     		str	r3, [r7, #24]
 161:Generated_Source\PSoC4/RTC.c ****                                           0u,
 162:Generated_Source\PSoC4/RTC.c ****                                           RTC_INITIAL_HOUR,
 163:Generated_Source\PSoC4/RTC.c ****                                           RTC_INITIAL_MINUTE,
 164:Generated_Source\PSoC4/RTC.c ****                                           RTC_INITIAL_SECOND);
 165:Generated_Source\PSoC4/RTC.c **** 
 166:Generated_Source\PSoC4/RTC.c ****     #if(0u != RTC_INITIAL_DST_STATUS)
 167:Generated_Source\PSoC4/RTC.c ****         RTC_dstStatus = 0u;
 1032              		.loc 2 167 0
 1033 0048 394B     		ldr	r3, .L49+12
 1034 004a 0022     		movs	r2, #0
 1035 004c 1A70     		strb	r2, [r3]
 168:Generated_Source\PSoC4/RTC.c ****         RTC_currentTimeDate.status = (1uL << RTC_STATUS_DST_OFFSET);
 1036              		.loc 2 168 0
 1037 004e 374B     		ldr	r3, .L49+8
 1038 0050 0222     		movs	r2, #2
 1039 0052 DA60     		str	r2, [r3, #12]
 169:Generated_Source\PSoC4/RTC.c **** 
 170:Generated_Source\PSoC4/RTC.c ****         dstTimeTmp.timeFormat    = RTC_INITIAL_DST_DATE_TYPE;
 1040              		.loc 2 170 0
 1041 0054 3B00     		movs	r3, r7
 1042 0056 0122     		movs	r2, #1
 1043 0058 1A75     		strb	r2, [r3, #20]
 171:Generated_Source\PSoC4/RTC.c ****         dstTimeTmp.hour          = RTC_INITIAL_DST_START_HRS;
 1044              		.loc 2 171 0
 1045 005a 3B00     		movs	r3, r7
 1046 005c 0322     		movs	r2, #3
 1047 005e 1A60     		str	r2, [r3]
 172:Generated_Source\PSoC4/RTC.c ****         dstTimeTmp.dayOfWeek     = RTC_INITIAL_DST_START_DOW;
 1048              		.loc 2 172 0
 1049 0060 3B00     		movs	r3, r7
 1050 0062 0122     		movs	r2, #1
 1051 0064 5A60     		str	r2, [r3, #4]
 173:Generated_Source\PSoC4/RTC.c ****         dstTimeTmp.weekOfMonth   = RTC_INITIAL_DST_START_WOM;
 1052              		.loc 2 173 0
 1053 0066 3B00     		movs	r3, r7
 1054 0068 0622     		movs	r2, #6
 1055 006a DA60     		str	r2, [r3, #12]
 174:Generated_Source\PSoC4/RTC.c ****         dstTimeTmp.dayOfMonth    = RTC_INITIAL_DST_START_DOM;
 1056              		.loc 2 174 0
 1057 006c 3B00     		movs	r3, r7
 1058 006e 1622     		movs	r2, #22
 1059 0070 9A60     		str	r2, [r3, #8]
 175:Generated_Source\PSoC4/RTC.c ****         dstTimeTmp.month         = RTC_INITIAL_DST_START_MONTH;
 1060              		.loc 2 175 0
ARM GAS  C:\Users\okuntso\AppData\Local\Temp\ccSegaCM.s 			page 44


 1061 0072 3B00     		movs	r3, r7
 1062 0074 0322     		movs	r2, #3
 1063 0076 1A61     		str	r2, [r3, #16]
 176:Generated_Source\PSoC4/RTC.c ****         RTC_SetDSTStartTime(&dstTimeTmp, (RTC_DST_DATETYPE_ENUM)RTC_INITIAL_DST_DATE_TYPE);
 1064              		.loc 2 176 0
 1065 0078 3B00     		movs	r3, r7
 1066 007a 0121     		movs	r1, #1
 1067 007c 1800     		movs	r0, r3
 1068 007e FFF7FEFF 		bl	RTC_SetDSTStartTime
 177:Generated_Source\PSoC4/RTC.c **** 
 178:Generated_Source\PSoC4/RTC.c ****         dstTimeTmp.timeFormat    = RTC_INITIAL_DST_DATE_TYPE;
 1069              		.loc 2 178 0
 1070 0082 3B00     		movs	r3, r7
 1071 0084 0122     		movs	r2, #1
 1072 0086 1A75     		strb	r2, [r3, #20]
 179:Generated_Source\PSoC4/RTC.c ****         dstTimeTmp.hour          = RTC_INITIAL_DST_STOP_HRS;
 1073              		.loc 2 179 0
 1074 0088 3B00     		movs	r3, r7
 1075 008a 0322     		movs	r2, #3
 1076 008c 1A60     		str	r2, [r3]
 180:Generated_Source\PSoC4/RTC.c ****         dstTimeTmp.dayOfWeek     = RTC_INITIAL_DST_STOP_DOW;
 1077              		.loc 2 180 0
 1078 008e 3B00     		movs	r3, r7
 1079 0090 0122     		movs	r2, #1
 1080 0092 5A60     		str	r2, [r3, #4]
 181:Generated_Source\PSoC4/RTC.c ****         dstTimeTmp.weekOfMonth   = RTC_INITIAL_DST_STOP_WOM;
 1081              		.loc 2 181 0
 1082 0094 3B00     		movs	r3, r7
 1083 0096 0622     		movs	r2, #6
 1084 0098 DA60     		str	r2, [r3, #12]
 182:Generated_Source\PSoC4/RTC.c ****         dstTimeTmp.dayOfMonth    = RTC_INITIAL_DST_STOP_DOM;
 1085              		.loc 2 182 0
 1086 009a 3B00     		movs	r3, r7
 1087 009c 1622     		movs	r2, #22
 1088 009e 9A60     		str	r2, [r3, #8]
 183:Generated_Source\PSoC4/RTC.c ****         dstTimeTmp.month         = RTC_INITIAL_DST_STOP_MONTH;
 1089              		.loc 2 183 0
 1090 00a0 3B00     		movs	r3, r7
 1091 00a2 0A22     		movs	r2, #10
 1092 00a4 1A61     		str	r2, [r3, #16]
 184:Generated_Source\PSoC4/RTC.c ****         RTC_SetDSTStopTime(&dstTimeTmp, (RTC_DST_DATETYPE_ENUM)RTC_INITIAL_DST_DATE_TYPE);
 1093              		.loc 2 184 0
 1094 00a6 3B00     		movs	r3, r7
 1095 00a8 0121     		movs	r1, #1
 1096 00aa 1800     		movs	r0, r3
 1097 00ac FFF7FEFF 		bl	RTC_SetDSTStopTime
 185:Generated_Source\PSoC4/RTC.c **** 
 186:Generated_Source\PSoC4/RTC.c ****         RTC_unixTimeDstStart = RTC_GetDstUnixTime(&RTC_dstStartTime);
 1098              		.loc 2 186 0
 1099 00b0 224B     		ldr	r3, .L49+24
 1100 00b2 1800     		movs	r0, r3
 1101 00b4 FFF7FEFF 		bl	RTC_GetDstUnixTime
 1102 00b8 0300     		movs	r3, r0
 1103 00ba 0C00     		movs	r4, r1
 1104 00bc 204A     		ldr	r2, .L49+28
 1105 00be 1360     		str	r3, [r2]
 1106 00c0 5460     		str	r4, [r2, #4]
ARM GAS  C:\Users\okuntso\AppData\Local\Temp\ccSegaCM.s 			page 45


 187:Generated_Source\PSoC4/RTC.c ****         RTC_unixTimeDstStop  = RTC_GetDstUnixTime(&RTC_dstStopTime);
 1107              		.loc 2 187 0
 1108 00c2 204B     		ldr	r3, .L49+32
 1109 00c4 1800     		movs	r0, r3
 1110 00c6 FFF7FEFF 		bl	RTC_GetDstUnixTime
 1111 00ca 0300     		movs	r3, r0
 1112 00cc 0C00     		movs	r4, r1
 1113 00ce 1E4A     		ldr	r2, .L49+36
 1114 00d0 1360     		str	r3, [r2]
 1115 00d2 5460     		str	r4, [r2, #4]
 188:Generated_Source\PSoC4/RTC.c **** 
 189:Generated_Source\PSoC4/RTC.c ****         if((RTC_unixTime >= RTC_unixTimeDstStart) &&
 1116              		.loc 2 189 0
 1117 00d4 1D4B     		ldr	r3, .L49+40
 1118 00d6 5C68     		ldr	r4, [r3, #4]
 1119 00d8 1B68     		ldr	r3, [r3]
 1120 00da 194A     		ldr	r2, .L49+28
 1121 00dc 1168     		ldr	r1, [r2]
 1122 00de 5268     		ldr	r2, [r2, #4]
 1123 00e0 A242     		cmp	r2, r4
 1124 00e2 14D8     		bhi	.L44
 1125 00e4 01D1     		bne	.L47
 1126 00e6 9942     		cmp	r1, r3
 1127 00e8 11D8     		bhi	.L44
 1128              	.L47:
 190:Generated_Source\PSoC4/RTC.c ****            (RTC_unixTime <= RTC_unixTimeDstStop))
 1129              		.loc 2 190 0 discriminator 1
 1130 00ea 184B     		ldr	r3, .L49+40
 1131 00ec 1968     		ldr	r1, [r3]
 1132 00ee 5A68     		ldr	r2, [r3, #4]
 1133 00f0 154B     		ldr	r3, .L49+36
 1134 00f2 5C68     		ldr	r4, [r3, #4]
 1135 00f4 1B68     		ldr	r3, [r3]
 189:Generated_Source\PSoC4/RTC.c ****            (RTC_unixTime <= RTC_unixTimeDstStop))
 1136              		.loc 2 189 0 discriminator 1
 1137 00f6 A242     		cmp	r2, r4
 1138 00f8 09D8     		bhi	.L44
 1139 00fa 01D1     		bne	.L48
 1140 00fc 9942     		cmp	r1, r3
 1141 00fe 06D8     		bhi	.L44
 1142              	.L48:
 191:Generated_Source\PSoC4/RTC.c ****         {
 192:Generated_Source\PSoC4/RTC.c ****             RTC_dstStatus = 1u;
 1143              		.loc 2 192 0
 1144 0100 0B4B     		ldr	r3, .L49+12
 1145 0102 0122     		movs	r2, #1
 1146 0104 1A70     		strb	r2, [r3]
 193:Generated_Source\PSoC4/RTC.c ****             RTC_dstTimeOffset = RTC_SECONDS_PER_HOUR;
 1147              		.loc 2 193 0
 1148 0106 084B     		ldr	r3, .L49+4
 1149 0108 E122     		movs	r2, #225
 1150 010a 1201     		lsls	r2, r2, #4
 1151 010c 1A60     		str	r2, [r3]
 1152              	.L44:
 194:Generated_Source\PSoC4/RTC.c ****         }
 195:Generated_Source\PSoC4/RTC.c ****     #endif /* (0u != RTC_INITIAL_DST_STATUS) */
 196:Generated_Source\PSoC4/RTC.c **** 
ARM GAS  C:\Users\okuntso\AppData\Local\Temp\ccSegaCM.s 			page 46


 197:Generated_Source\PSoC4/RTC.c ****     RTC_SetDateAndTime(tmpTime, tmpDate);
 1153              		.loc 2 197 0
 1154 010e FA69     		ldr	r2, [r7, #28]
 1155 0110 BB69     		ldr	r3, [r7, #24]
 1156 0112 1100     		movs	r1, r2
 1157 0114 1800     		movs	r0, r3
 1158 0116 FFF7FEFF 		bl	RTC_SetDateAndTime
 198:Generated_Source\PSoC4/RTC.c **** }
 1159              		.loc 2 198 0
 1160 011a C046     		nop
 1161 011c BD46     		mov	sp, r7
 1162 011e 09B0     		add	sp, sp, #36
 1163              		@ sp needed
 1164 0120 90BD     		pop	{r4, r7, pc}
 1165              	.L50:
 1166 0122 C046     		.align	2
 1167              	.L49:
 1168 0124 00000000 		.word	RTC_initVar
 1169 0128 08000000 		.word	RTC_dstTimeOffset
 1170 012c 00000000 		.word	RTC_currentTimeDate
 1171 0130 00000000 		.word	RTC_dstStatus
 1172 0134 00000000 		.word	RTC_alarmCurStatus
 1173 0138 B2070000 		.word	1970
 1174 013c 00000000 		.word	RTC_dstStartTime
 1175 0140 10000000 		.word	RTC_unixTimeDstStart
 1176 0144 00000000 		.word	RTC_dstStopTime
 1177 0148 18000000 		.word	RTC_unixTimeDstStop
 1178 014c 00000000 		.word	RTC_unixTime
 1179              		.cfi_endproc
 1180              	.LFE28:
 1181              		.size	RTC_Init, .-RTC_Init
 1182              		.section	.text.RTC_SetDateAndTime,"ax",%progbits
 1183              		.align	2
 1184              		.global	RTC_SetDateAndTime
 1185              		.code	16
 1186              		.thumb_func
 1187              		.type	RTC_SetDateAndTime, %function
 1188              	RTC_SetDateAndTime:
 1189              	.LFB29:
 199:Generated_Source\PSoC4/RTC.c **** 
 200:Generated_Source\PSoC4/RTC.c **** 
 201:Generated_Source\PSoC4/RTC.c **** /*******************************************************************************
 202:Generated_Source\PSoC4/RTC.c **** * Function Name: RTC_SetDateAndTime
 203:Generated_Source\PSoC4/RTC.c **** ****************************************************************************//**
 204:Generated_Source\PSoC4/RTC.c **** *
 205:Generated_Source\PSoC4/RTC.c **** * \brief
 206:Generated_Source\PSoC4/RTC.c **** * Sets the time and date values as the current time and date.
 207:Generated_Source\PSoC4/RTC.c **** *
 208:Generated_Source\PSoC4/RTC.c **** * \param
 209:Generated_Source\PSoC4/RTC.c **** * inputTime The time value in the HH:MM:SS format. <br>
 210:Generated_Source\PSoC4/RTC.c **** * "HH"- The 2nd 8-bit MSB that denotes the hour value.
 211:Generated_Source\PSoC4/RTC.c **** * (0-23 for the 24-hour format and 1-12 for the 12-hour format. The MSB bit of the
 212:Generated_Source\PSoC4/RTC.c **** * value denotes AM/PM for the 12-hour format (0-AM and 1-PM). <br>
 213:Generated_Source\PSoC4/RTC.c **** * "MM" - The 3nd 8-bit MSB denotes the minutes value, the valid entries -> 0-59.<br>
 214:Generated_Source\PSoC4/RTC.c **** * "SS" - The 8-bit LSB denotes the seconds value, the valid entries -> 0-59.
 215:Generated_Source\PSoC4/RTC.c **** * Each byte is in the BCD format. Invalid time entries retain the
 216:Generated_Source\PSoC4/RTC.c **** * previously set values.
ARM GAS  C:\Users\okuntso\AppData\Local\Temp\ccSegaCM.s 			page 47


 217:Generated_Source\PSoC4/RTC.c **** *
 218:Generated_Source\PSoC4/RTC.c **** * \param
 219:Generated_Source\PSoC4/RTC.c **** *  inputDate The date value in the format selected in the customizer.
 220:Generated_Source\PSoC4/RTC.c **** * For the MM/DD/YYYY format: <br>
 221:Generated_Source\PSoC4/RTC.c **** * "MM" - The 8-bit MSB denotes the month value in BCD, the valid entries -> 1-12<br>
 222:Generated_Source\PSoC4/RTC.c **** * "DD" - The 2nd 8-bit MSB denotes a day of the month value in BCD, the valid
 223:Generated_Source\PSoC4/RTC.c **** * entries -> 1-31.<br>
 224:Generated_Source\PSoC4/RTC.c **** * "YYYY" - The 16-bit LSB denotes a year in BCD, the valid entries -> 1900-2200.
 225:Generated_Source\PSoC4/RTC.c **** * Each byte is in the BCD format. Invalid date entries retain the
 226:Generated_Source\PSoC4/RTC.c **** * previously set values.
 227:Generated_Source\PSoC4/RTC.c **** *
 228:Generated_Source\PSoC4/RTC.c **** *******************************************************************************/
 229:Generated_Source\PSoC4/RTC.c **** void RTC_SetDateAndTime(uint32 inputTime, uint32 inputDate)
 230:Generated_Source\PSoC4/RTC.c **** {
 1190              		.loc 2 230 0
 1191              		.cfi_startproc
 1192              		@ args = 0, pretend = 0, frame = 24
 1193              		@ frame_needed = 1, uses_anonymous_args = 0
 1194 0000 F0B5     		push	{r4, r5, r6, r7, lr}
 1195              		.cfi_def_cfa_offset 20
 1196              		.cfi_offset 4, -20
 1197              		.cfi_offset 5, -16
 1198              		.cfi_offset 6, -12
 1199              		.cfi_offset 7, -8
 1200              		.cfi_offset 14, -4
 1201 0002 87B0     		sub	sp, sp, #28
 1202              		.cfi_def_cfa_offset 48
 1203 0004 00AF     		add	r7, sp, #0
 1204              		.cfi_def_cfa_register 7
 1205 0006 7860     		str	r0, [r7, #4]
 1206 0008 3960     		str	r1, [r7]
 231:Generated_Source\PSoC4/RTC.c ****     uint32 tmpDay;
 232:Generated_Source\PSoC4/RTC.c ****     uint32 tmpMonth;
 233:Generated_Source\PSoC4/RTC.c ****     uint32 tmpYear;
 234:Generated_Source\PSoC4/RTC.c **** 
 235:Generated_Source\PSoC4/RTC.c ****     tmpDay   = RTC_GetDay(inputDate);
 1207              		.loc 2 235 0
 1208 000a 3B68     		ldr	r3, [r7]
 1209 000c 1800     		movs	r0, r3
 1210 000e FFF7FEFF 		bl	RTC_GetDay
 1211 0012 0300     		movs	r3, r0
 1212 0014 7B61     		str	r3, [r7, #20]
 236:Generated_Source\PSoC4/RTC.c ****     tmpMonth = RTC_GetMonth(inputDate);
 1213              		.loc 2 236 0
 1214 0016 3B68     		ldr	r3, [r7]
 1215 0018 1800     		movs	r0, r3
 1216 001a FFF7FEFF 		bl	RTC_GetMonth
 1217 001e 0300     		movs	r3, r0
 1218 0020 3B61     		str	r3, [r7, #16]
 237:Generated_Source\PSoC4/RTC.c ****     tmpYear  = RTC_GetYear(inputDate);
 1219              		.loc 2 237 0
 1220 0022 3B68     		ldr	r3, [r7]
 1221 0024 1800     		movs	r0, r3
 1222 0026 FFF7FEFF 		bl	RTC_GetYear
 1223 002a 0300     		movs	r3, r0
 1224 002c FB60     		str	r3, [r7, #12]
 238:Generated_Source\PSoC4/RTC.c **** 
ARM GAS  C:\Users\okuntso\AppData\Local\Temp\ccSegaCM.s 			page 48


 239:Generated_Source\PSoC4/RTC.c ****     RTC_unixTime = RTC_DateTimeToUnix(inputDate, inputTime);
 1225              		.loc 2 239 0
 1226 002e 7A68     		ldr	r2, [r7, #4]
 1227 0030 3B68     		ldr	r3, [r7]
 1228 0032 1100     		movs	r1, r2
 1229 0034 1800     		movs	r0, r3
 1230 0036 FFF7FEFF 		bl	RTC_DateTimeToUnix
 1231 003a 0300     		movs	r3, r0
 1232 003c 0C00     		movs	r4, r1
 1233 003e 2C4A     		ldr	r2, .L58
 1234 0040 1360     		str	r3, [r2]
 1235 0042 5460     		str	r4, [r2, #4]
 240:Generated_Source\PSoC4/RTC.c ****     RTC_currentTimeDate.date = inputDate;
 1236              		.loc 2 240 0
 1237 0044 2B4B     		ldr	r3, .L58+4
 1238 0046 3A68     		ldr	r2, [r7]
 1239 0048 5A60     		str	r2, [r3, #4]
 241:Generated_Source\PSoC4/RTC.c ****     RTC_currentTimeDate.time = inputTime;
 1240              		.loc 2 241 0
 1241 004a 2A4B     		ldr	r3, .L58+4
 1242 004c 7A68     		ldr	r2, [r7, #4]
 1243 004e 1A60     		str	r2, [r3]
 242:Generated_Source\PSoC4/RTC.c ****     RTC_currentTimeDate.dayOfWeek = RTC_GetDayOfWeek(tmpDay, tmpMonth, tmpYear);
 1244              		.loc 2 242 0
 1245 0050 FA68     		ldr	r2, [r7, #12]
 1246 0052 3969     		ldr	r1, [r7, #16]
 1247 0054 7B69     		ldr	r3, [r7, #20]
 1248 0056 1800     		movs	r0, r3
 1249 0058 FFF7FEFF 		bl	RTC_GetDayOfWeek
 1250 005c 0200     		movs	r2, r0
 1251 005e 254B     		ldr	r3, .L58+4
 1252 0060 9A60     		str	r2, [r3, #8]
 243:Generated_Source\PSoC4/RTC.c **** 
 244:Generated_Source\PSoC4/RTC.c ****     #if(0u != RTC_INITIAL_DST_STATUS)
 245:Generated_Source\PSoC4/RTC.c ****         RTC_unixTimeDstStart = RTC_GetDstUnixTime(&RTC_dstStartTime);
 1253              		.loc 2 245 0
 1254 0062 254B     		ldr	r3, .L58+8
 1255 0064 1800     		movs	r0, r3
 1256 0066 FFF7FEFF 		bl	RTC_GetDstUnixTime
 1257 006a 0300     		movs	r3, r0
 1258 006c 0C00     		movs	r4, r1
 1259 006e 234A     		ldr	r2, .L58+12
 1260 0070 1360     		str	r3, [r2]
 1261 0072 5460     		str	r4, [r2, #4]
 246:Generated_Source\PSoC4/RTC.c ****         RTC_unixTimeDstStop  = RTC_GetDstUnixTime(&RTC_dstStopTime);
 1262              		.loc 2 246 0
 1263 0074 224B     		ldr	r3, .L58+16
 1264 0076 1800     		movs	r0, r3
 1265 0078 FFF7FEFF 		bl	RTC_GetDstUnixTime
 1266 007c 0300     		movs	r3, r0
 1267 007e 0C00     		movs	r4, r1
 1268 0080 204A     		ldr	r2, .L58+20
 1269 0082 1360     		str	r3, [r2]
 1270 0084 5460     		str	r4, [r2, #4]
 247:Generated_Source\PSoC4/RTC.c **** 
 248:Generated_Source\PSoC4/RTC.c ****         if((RTC_unixTime >= RTC_unixTimeDstStart) &&
 1271              		.loc 2 248 0
ARM GAS  C:\Users\okuntso\AppData\Local\Temp\ccSegaCM.s 			page 49


 1272 0086 1A4B     		ldr	r3, .L58
 1273 0088 5C68     		ldr	r4, [r3, #4]
 1274 008a 1B68     		ldr	r3, [r3]
 1275 008c 1B4A     		ldr	r2, .L58+12
 1276 008e 1168     		ldr	r1, [r2]
 1277 0090 5268     		ldr	r2, [r2, #4]
 1278 0092 A242     		cmp	r2, r4
 1279 0094 22D8     		bhi	.L52
 1280 0096 01D1     		bne	.L56
 1281 0098 9942     		cmp	r1, r3
 1282 009a 1FD8     		bhi	.L52
 1283              	.L56:
 249:Generated_Source\PSoC4/RTC.c ****            (RTC_unixTime <= RTC_unixTimeDstStop))
 1284              		.loc 2 249 0 discriminator 1
 1285 009c 144B     		ldr	r3, .L58
 1286 009e 1968     		ldr	r1, [r3]
 1287 00a0 5A68     		ldr	r2, [r3, #4]
 1288 00a2 184B     		ldr	r3, .L58+20
 1289 00a4 5C68     		ldr	r4, [r3, #4]
 1290 00a6 1B68     		ldr	r3, [r3]
 248:Generated_Source\PSoC4/RTC.c ****            (RTC_unixTime <= RTC_unixTimeDstStop))
 1291              		.loc 2 248 0 discriminator 1
 1292 00a8 A242     		cmp	r2, r4
 1293 00aa 17D8     		bhi	.L52
 1294 00ac 01D1     		bne	.L57
 1295 00ae 9942     		cmp	r1, r3
 1296 00b0 14D8     		bhi	.L52
 1297              	.L57:
 250:Generated_Source\PSoC4/RTC.c ****         {
 251:Generated_Source\PSoC4/RTC.c ****             RTC_dstStatus = 1u;
 1298              		.loc 2 251 0
 1299 00b2 154B     		ldr	r3, .L58+24
 1300 00b4 0122     		movs	r2, #1
 1301 00b6 1A70     		strb	r2, [r3]
 252:Generated_Source\PSoC4/RTC.c ****             RTC_dstTimeOffset = RTC_SECONDS_PER_HOUR;
 1302              		.loc 2 252 0
 1303 00b8 144B     		ldr	r3, .L58+28
 1304 00ba E122     		movs	r2, #225
 1305 00bc 1201     		lsls	r2, r2, #4
 1306 00be 1A60     		str	r2, [r3]
 253:Generated_Source\PSoC4/RTC.c ****             RTC_unixTime -= RTC_dstTimeOffset;
 1307              		.loc 2 253 0
 1308 00c0 0B4B     		ldr	r3, .L58
 1309 00c2 5C68     		ldr	r4, [r3, #4]
 1310 00c4 1B68     		ldr	r3, [r3]
 1311 00c6 114A     		ldr	r2, .L58+28
 1312 00c8 1268     		ldr	r2, [r2]
 1313 00ca 1500     		movs	r5, r2
 1314 00cc 0022     		movs	r2, #0
 1315 00ce 1600     		movs	r6, r2
 1316 00d0 5B1B     		subs	r3, r3, r5
 1317 00d2 B441     		sbcs	r4, r4, r6
 1318 00d4 064A     		ldr	r2, .L58
 1319 00d6 1360     		str	r3, [r2]
 1320 00d8 5460     		str	r4, [r2, #4]
 1321 00da 05E0     		b	.L55
 1322              	.L52:
ARM GAS  C:\Users\okuntso\AppData\Local\Temp\ccSegaCM.s 			page 50


 254:Generated_Source\PSoC4/RTC.c ****         }
 255:Generated_Source\PSoC4/RTC.c ****         else
 256:Generated_Source\PSoC4/RTC.c ****         {
 257:Generated_Source\PSoC4/RTC.c ****             RTC_dstStatus = 0u;
 1323              		.loc 2 257 0
 1324 00dc 0A4B     		ldr	r3, .L58+24
 1325 00de 0022     		movs	r2, #0
 1326 00e0 1A70     		strb	r2, [r3]
 258:Generated_Source\PSoC4/RTC.c ****             RTC_dstTimeOffset = 0uL;
 1327              		.loc 2 258 0
 1328 00e2 0A4B     		ldr	r3, .L58+28
 1329 00e4 0022     		movs	r2, #0
 1330 00e6 1A60     		str	r2, [r3]
 1331              	.L55:
 259:Generated_Source\PSoC4/RTC.c ****         }
 260:Generated_Source\PSoC4/RTC.c ****     #endif /* (0u != RTC_INITIAL_DST_STATUS) */
 261:Generated_Source\PSoC4/RTC.c **** 
 262:Generated_Source\PSoC4/RTC.c ****     #if(0u != RTC_INITIAL_ALARM_STATUS)
 263:Generated_Source\PSoC4/RTC.c ****         RTC_unixTimeAlarm = RTC_ConstructUnixAlarmTime(&RTC_alarmCfgTimeDate,
 264:Generated_Source\PSoC4/RTC.c ****                                                                                  (uint8)RTC_alarmCf
 265:Generated_Source\PSoC4/RTC.c ****     #endif /* (0u != RTC_INITIAL_ALARM_STATUS) */
 266:Generated_Source\PSoC4/RTC.c **** }
 1332              		.loc 2 266 0
 1333 00e8 C046     		nop
 1334 00ea BD46     		mov	sp, r7
 1335 00ec 07B0     		add	sp, sp, #28
 1336              		@ sp needed
 1337 00ee F0BD     		pop	{r4, r5, r6, r7, pc}
 1338              	.L59:
 1339              		.align	2
 1340              	.L58:
 1341 00f0 00000000 		.word	RTC_unixTime
 1342 00f4 00000000 		.word	RTC_currentTimeDate
 1343 00f8 00000000 		.word	RTC_dstStartTime
 1344 00fc 10000000 		.word	RTC_unixTimeDstStart
 1345 0100 00000000 		.word	RTC_dstStopTime
 1346 0104 18000000 		.word	RTC_unixTimeDstStop
 1347 0108 00000000 		.word	RTC_dstStatus
 1348 010c 08000000 		.word	RTC_dstTimeOffset
 1349              		.cfi_endproc
 1350              	.LFE29:
 1351              		.size	RTC_SetDateAndTime, .-RTC_SetDateAndTime
 1352              		.section	.text.RTC_SetUnixTime,"ax",%progbits
 1353              		.align	2
 1354              		.global	RTC_SetUnixTime
 1355              		.code	16
 1356              		.thumb_func
 1357              		.type	RTC_SetUnixTime, %function
 1358              	RTC_SetUnixTime:
 1359              	.LFB30:
 267:Generated_Source\PSoC4/RTC.c **** 
 268:Generated_Source\PSoC4/RTC.c **** 
 269:Generated_Source\PSoC4/RTC.c **** /*******************************************************************************
 270:Generated_Source\PSoC4/RTC.c **** * Function Name: RTC_SetUnixTime
 271:Generated_Source\PSoC4/RTC.c **** ****************************************************************************//**
 272:Generated_Source\PSoC4/RTC.c **** *
 273:Generated_Source\PSoC4/RTC.c **** * \brief
ARM GAS  C:\Users\okuntso\AppData\Local\Temp\ccSegaCM.s 			page 51


 274:Generated_Source\PSoC4/RTC.c **** * Sets the time in the Unix/Epoch time format - the number of seconds elapsed 
 275:Generated_Source\PSoC4/RTC.c **** *  from January 1, 1970 UTC 00:00 hrs.
 276:Generated_Source\PSoC4/RTC.c **** *
 277:Generated_Source\PSoC4/RTC.c **** * \param
 278:Generated_Source\PSoC4/RTC.c **** *  time The time value in the Unix time/Epoch time format.
 279:Generated_Source\PSoC4/RTC.c **** *
 280:Generated_Source\PSoC4/RTC.c **** *******************************************************************************/
 281:Generated_Source\PSoC4/RTC.c **** void RTC_SetUnixTime(uint64 unixTime)
 282:Generated_Source\PSoC4/RTC.c **** {
 1360              		.loc 2 282 0
 1361              		.cfi_startproc
 1362              		@ args = 0, pretend = 0, frame = 24
 1363              		@ frame_needed = 1, uses_anonymous_args = 0
 1364 0000 90B5     		push	{r4, r7, lr}
 1365              		.cfi_def_cfa_offset 12
 1366              		.cfi_offset 4, -12
 1367              		.cfi_offset 7, -8
 1368              		.cfi_offset 14, -4
 1369 0002 89B0     		sub	sp, sp, #36
 1370              		.cfi_def_cfa_offset 48
 1371 0004 02AF     		add	r7, sp, #8
 1372              		.cfi_def_cfa 7, 40
 1373 0006 3860     		str	r0, [r7]
 1374 0008 7960     		str	r1, [r7, #4]
 283:Generated_Source\PSoC4/RTC.c ****     RTC_DATE_TIME tmpDateTime;
 284:Generated_Source\PSoC4/RTC.c **** 
 285:Generated_Source\PSoC4/RTC.c ****     RTC_unixTime = unixTime;
 1375              		.loc 2 285 0
 1376 000a 254A     		ldr	r2, .L67
 1377 000c 3B68     		ldr	r3, [r7]
 1378 000e 7C68     		ldr	r4, [r7, #4]
 1379 0010 1360     		str	r3, [r2]
 1380 0012 5460     		str	r4, [r2, #4]
 286:Generated_Source\PSoC4/RTC.c ****     RTC_UnixToDateTime(&tmpDateTime, unixTime, (uint32)RTC_24_HOURS_FORMAT);
 1381              		.loc 2 286 0
 1382 0014 3B68     		ldr	r3, [r7]
 1383 0016 7C68     		ldr	r4, [r7, #4]
 1384 0018 0822     		movs	r2, #8
 1385 001a B918     		adds	r1, r7, r2
 1386 001c 0022     		movs	r2, #0
 1387 001e 0092     		str	r2, [sp]
 1388 0020 1A00     		movs	r2, r3
 1389 0022 2300     		movs	r3, r4
 1390 0024 0800     		movs	r0, r1
 1391 0026 FFF7FEFF 		bl	RTC_UnixToDateTime
 287:Generated_Source\PSoC4/RTC.c **** 
 288:Generated_Source\PSoC4/RTC.c ****     #if(0u != RTC_INITIAL_DST_STATUS)
 289:Generated_Source\PSoC4/RTC.c ****         RTC_unixTimeDstStart = RTC_GetDstUnixTime(&RTC_dstStartTime);
 1392              		.loc 2 289 0
 1393 002a 1E4B     		ldr	r3, .L67+4
 1394 002c 1800     		movs	r0, r3
 1395 002e FFF7FEFF 		bl	RTC_GetDstUnixTime
 1396 0032 0300     		movs	r3, r0
 1397 0034 0C00     		movs	r4, r1
 1398 0036 1C4A     		ldr	r2, .L67+8
 1399 0038 1360     		str	r3, [r2]
 1400 003a 5460     		str	r4, [r2, #4]
ARM GAS  C:\Users\okuntso\AppData\Local\Temp\ccSegaCM.s 			page 52


 290:Generated_Source\PSoC4/RTC.c ****         RTC_unixTimeDstStop  = RTC_GetDstUnixTime(&RTC_dstStopTime);
 1401              		.loc 2 290 0
 1402 003c 1B4B     		ldr	r3, .L67+12
 1403 003e 1800     		movs	r0, r3
 1404 0040 FFF7FEFF 		bl	RTC_GetDstUnixTime
 1405 0044 0300     		movs	r3, r0
 1406 0046 0C00     		movs	r4, r1
 1407 0048 194A     		ldr	r2, .L67+16
 1408 004a 1360     		str	r3, [r2]
 1409 004c 5460     		str	r4, [r2, #4]
 291:Generated_Source\PSoC4/RTC.c **** 
 292:Generated_Source\PSoC4/RTC.c ****         if((RTC_unixTime >= RTC_unixTimeDstStart) &&
 1410              		.loc 2 292 0
 1411 004e 144B     		ldr	r3, .L67
 1412 0050 5C68     		ldr	r4, [r3, #4]
 1413 0052 1B68     		ldr	r3, [r3]
 1414 0054 144A     		ldr	r2, .L67+8
 1415 0056 1168     		ldr	r1, [r2]
 1416 0058 5268     		ldr	r2, [r2, #4]
 1417 005a A242     		cmp	r2, r4
 1418 005c 15D8     		bhi	.L61
 1419 005e 01D1     		bne	.L65
 1420 0060 9942     		cmp	r1, r3
 1421 0062 12D8     		bhi	.L61
 1422              	.L65:
 293:Generated_Source\PSoC4/RTC.c ****            (RTC_unixTime <= RTC_unixTimeDstStop))
 1423              		.loc 2 293 0 discriminator 1
 1424 0064 0E4B     		ldr	r3, .L67
 1425 0066 1968     		ldr	r1, [r3]
 1426 0068 5A68     		ldr	r2, [r3, #4]
 1427 006a 114B     		ldr	r3, .L67+16
 1428 006c 5C68     		ldr	r4, [r3, #4]
 1429 006e 1B68     		ldr	r3, [r3]
 292:Generated_Source\PSoC4/RTC.c ****            (RTC_unixTime <= RTC_unixTimeDstStop))
 1430              		.loc 2 292 0 discriminator 1
 1431 0070 A242     		cmp	r2, r4
 1432 0072 0AD8     		bhi	.L61
 1433 0074 01D1     		bne	.L66
 1434 0076 9942     		cmp	r1, r3
 1435 0078 07D8     		bhi	.L61
 1436              	.L66:
 294:Generated_Source\PSoC4/RTC.c ****         {
 295:Generated_Source\PSoC4/RTC.c ****             RTC_dstStatus = 1u;
 1437              		.loc 2 295 0
 1438 007a 0E4B     		ldr	r3, .L67+20
 1439 007c 0122     		movs	r2, #1
 1440 007e 1A70     		strb	r2, [r3]
 296:Generated_Source\PSoC4/RTC.c ****             RTC_dstTimeOffset = RTC_SECONDS_PER_HOUR;
 1441              		.loc 2 296 0
 1442 0080 0D4B     		ldr	r3, .L67+24
 1443 0082 E122     		movs	r2, #225
 1444 0084 1201     		lsls	r2, r2, #4
 1445 0086 1A60     		str	r2, [r3]
 1446 0088 05E0     		b	.L64
 1447              	.L61:
 297:Generated_Source\PSoC4/RTC.c ****         }
 298:Generated_Source\PSoC4/RTC.c ****         else
ARM GAS  C:\Users\okuntso\AppData\Local\Temp\ccSegaCM.s 			page 53


 299:Generated_Source\PSoC4/RTC.c ****         {
 300:Generated_Source\PSoC4/RTC.c ****             RTC_dstStatus = 0u;
 1448              		.loc 2 300 0
 1449 008a 0A4B     		ldr	r3, .L67+20
 1450 008c 0022     		movs	r2, #0
 1451 008e 1A70     		strb	r2, [r3]
 301:Generated_Source\PSoC4/RTC.c ****             RTC_dstTimeOffset = 0uL;
 1452              		.loc 2 301 0
 1453 0090 094B     		ldr	r3, .L67+24
 1454 0092 0022     		movs	r2, #0
 1455 0094 1A60     		str	r2, [r3]
 1456              	.L64:
 302:Generated_Source\PSoC4/RTC.c ****         }
 303:Generated_Source\PSoC4/RTC.c ****     #endif /* (0u != RTC_INITIAL_DST_STATUS) */
 304:Generated_Source\PSoC4/RTC.c **** }
 1457              		.loc 2 304 0
 1458 0096 C046     		nop
 1459 0098 BD46     		mov	sp, r7
 1460 009a 07B0     		add	sp, sp, #28
 1461              		@ sp needed
 1462 009c 90BD     		pop	{r4, r7, pc}
 1463              	.L68:
 1464 009e C046     		.align	2
 1465              	.L67:
 1466 00a0 00000000 		.word	RTC_unixTime
 1467 00a4 00000000 		.word	RTC_dstStartTime
 1468 00a8 10000000 		.word	RTC_unixTimeDstStart
 1469 00ac 00000000 		.word	RTC_dstStopTime
 1470 00b0 18000000 		.word	RTC_unixTimeDstStop
 1471 00b4 00000000 		.word	RTC_dstStatus
 1472 00b8 08000000 		.word	RTC_dstTimeOffset
 1473              		.cfi_endproc
 1474              	.LFE30:
 1475              		.size	RTC_SetUnixTime, .-RTC_SetUnixTime
 1476              		.section	.text.RTC_GetUnixTime,"ax",%progbits
 1477              		.align	2
 1478              		.global	RTC_GetUnixTime
 1479              		.code	16
 1480              		.thumb_func
 1481              		.type	RTC_GetUnixTime, %function
 1482              	RTC_GetUnixTime:
 1483              	.LFB31:
 305:Generated_Source\PSoC4/RTC.c **** 
 306:Generated_Source\PSoC4/RTC.c **** 
 307:Generated_Source\PSoC4/RTC.c **** /*******************************************************************************
 308:Generated_Source\PSoC4/RTC.c **** * Function Name: RTC_GetUnixTime
 309:Generated_Source\PSoC4/RTC.c **** ****************************************************************************//**
 310:Generated_Source\PSoC4/RTC.c **** *
 311:Generated_Source\PSoC4/RTC.c **** * \brief
 312:Generated_Source\PSoC4/RTC.c **** *  Returns the time in the Unix/Epoch time format - the number of seconds 
 313:Generated_Source\PSoC4/RTC.c **** * elapsed from January 1, 1970 UTC 00:00 hrs.
 314:Generated_Source\PSoC4/RTC.c **** *
 315:Generated_Source\PSoC4/RTC.c **** * \return time The time value in the Unix time/Epoch time format.
 316:Generated_Source\PSoC4/RTC.c **** *
 317:Generated_Source\PSoC4/RTC.c **** *******************************************************************************/
 318:Generated_Source\PSoC4/RTC.c **** uint64 RTC_GetUnixTime(void)
 319:Generated_Source\PSoC4/RTC.c **** {
ARM GAS  C:\Users\okuntso\AppData\Local\Temp\ccSegaCM.s 			page 54


 1484              		.loc 2 319 0
 1485              		.cfi_startproc
 1486              		@ args = 0, pretend = 0, frame = 0
 1487              		@ frame_needed = 1, uses_anonymous_args = 0
 1488 0000 90B5     		push	{r4, r7, lr}
 1489              		.cfi_def_cfa_offset 12
 1490              		.cfi_offset 4, -12
 1491              		.cfi_offset 7, -8
 1492              		.cfi_offset 14, -4
 1493 0002 00AF     		add	r7, sp, #0
 1494              		.cfi_def_cfa_register 7
 320:Generated_Source\PSoC4/RTC.c ****     return (RTC_unixTime);
 1495              		.loc 2 320 0
 1496 0004 034B     		ldr	r3, .L71
 1497 0006 5C68     		ldr	r4, [r3, #4]
 1498 0008 1B68     		ldr	r3, [r3]
 321:Generated_Source\PSoC4/RTC.c **** }
 1499              		.loc 2 321 0
 1500 000a 1800     		movs	r0, r3
 1501 000c 2100     		movs	r1, r4
 1502 000e BD46     		mov	sp, r7
 1503              		@ sp needed
 1504 0010 90BD     		pop	{r4, r7, pc}
 1505              	.L72:
 1506 0012 C046     		.align	2
 1507              	.L71:
 1508 0014 00000000 		.word	RTC_unixTime
 1509              		.cfi_endproc
 1510              	.LFE31:
 1511              		.size	RTC_GetUnixTime, .-RTC_GetUnixTime
 1512              		.section	.text.RTC_SetPeriod,"ax",%progbits
 1513              		.align	2
 1514              		.global	RTC_SetPeriod
 1515              		.code	16
 1516              		.thumb_func
 1517              		.type	RTC_SetPeriod, %function
 1518              	RTC_SetPeriod:
 1519              	.LFB32:
 322:Generated_Source\PSoC4/RTC.c **** 
 323:Generated_Source\PSoC4/RTC.c **** 
 324:Generated_Source\PSoC4/RTC.c **** /*******************************************************************************
 325:Generated_Source\PSoC4/RTC.c **** * Function Name: RTC_SetPeriod
 326:Generated_Source\PSoC4/RTC.c **** ****************************************************************************//**
 327:Generated_Source\PSoC4/RTC.c **** *
 328:Generated_Source\PSoC4/RTC.c **** * \brief
 329:Generated_Source\PSoC4/RTC.c **** *  Sets the RTC time update API period.
 330:Generated_Source\PSoC4/RTC.c **** *
 331:Generated_Source\PSoC4/RTC.c **** *  The user needs to pass the period as
 332:Generated_Source\PSoC4/RTC.c **** *  a number of ticks and also a reference number of ticks taken by the same clock
 333:Generated_Source\PSoC4/RTC.c **** *  source for one second. For instance, for a 32 kHz clock source and RTC
 334:Generated_Source\PSoC4/RTC.c **** *  period of 100 ms, the "ticks" value is 3200 and the "refOneSecTicks" value
 335:Generated_Source\PSoC4/RTC.c **** *  is 32000. This value is used to increment the time every time
 336:Generated_Source\PSoC4/RTC.c **** *  RTC_Update() API is called.
 337:Generated_Source\PSoC4/RTC.c **** *
 338:Generated_Source\PSoC4/RTC.c **** * \param
 339:Generated_Source\PSoC4/RTC.c **** *  ticks The clock period taken as a number of ticks.
 340:Generated_Source\PSoC4/RTC.c **** *
ARM GAS  C:\Users\okuntso\AppData\Local\Temp\ccSegaCM.s 			page 55


 341:Generated_Source\PSoC4/RTC.c **** * \param
 342:Generated_Source\PSoC4/RTC.c **** * refOneSecTicks The reference number of ticks taken by the same clock source
 343:Generated_Source\PSoC4/RTC.c **** *  for one second (the input clock frequency in Hz).
 344:Generated_Source\PSoC4/RTC.c **** *
 345:Generated_Source\PSoC4/RTC.c **** *******************************************************************************/
 346:Generated_Source\PSoC4/RTC.c **** void RTC_SetPeriod(uint32 ticks, uint32 refOneSecTicks)
 347:Generated_Source\PSoC4/RTC.c **** {
 1520              		.loc 2 347 0
 1521              		.cfi_startproc
 1522              		@ args = 0, pretend = 0, frame = 8
 1523              		@ frame_needed = 1, uses_anonymous_args = 0
 1524 0000 80B5     		push	{r7, lr}
 1525              		.cfi_def_cfa_offset 8
 1526              		.cfi_offset 7, -8
 1527              		.cfi_offset 14, -4
 1528 0002 82B0     		sub	sp, sp, #8
 1529              		.cfi_def_cfa_offset 16
 1530 0004 00AF     		add	r7, sp, #0
 1531              		.cfi_def_cfa_register 7
 1532 0006 7860     		str	r0, [r7, #4]
 1533 0008 3960     		str	r1, [r7]
 348:Generated_Source\PSoC4/RTC.c ****     RTC_updateTimePeriod = ticks;
 1534              		.loc 2 348 0
 1535 000a 054B     		ldr	r3, .L74
 1536 000c 7A68     		ldr	r2, [r7, #4]
 1537 000e 1A60     		str	r2, [r3]
 349:Generated_Source\PSoC4/RTC.c ****     RTC_tickRefOneSec    = refOneSecTicks;
 1538              		.loc 2 349 0
 1539 0010 044B     		ldr	r3, .L74+4
 1540 0012 3A68     		ldr	r2, [r7]
 1541 0014 1A60     		str	r2, [r3]
 350:Generated_Source\PSoC4/RTC.c **** }
 1542              		.loc 2 350 0
 1543 0016 C046     		nop
 1544 0018 BD46     		mov	sp, r7
 1545 001a 02B0     		add	sp, sp, #8
 1546              		@ sp needed
 1547 001c 80BD     		pop	{r7, pc}
 1548              	.L75:
 1549 001e C046     		.align	2
 1550              	.L74:
 1551 0020 00000000 		.word	RTC_updateTimePeriod
 1552 0024 04000000 		.word	RTC_tickRefOneSec
 1553              		.cfi_endproc
 1554              	.LFE32:
 1555              		.size	RTC_SetPeriod, .-RTC_SetPeriod
 1556              		.section	.text.RTC_GetPeriod,"ax",%progbits
 1557              		.align	2
 1558              		.global	RTC_GetPeriod
 1559              		.code	16
 1560              		.thumb_func
 1561              		.type	RTC_GetPeriod, %function
 1562              	RTC_GetPeriod:
 1563              	.LFB33:
 351:Generated_Source\PSoC4/RTC.c **** 
 352:Generated_Source\PSoC4/RTC.c **** 
 353:Generated_Source\PSoC4/RTC.c **** /*******************************************************************************
ARM GAS  C:\Users\okuntso\AppData\Local\Temp\ccSegaCM.s 			page 56


 354:Generated_Source\PSoC4/RTC.c **** * Function Name: RTC_SetPeriod
 355:Generated_Source\PSoC4/RTC.c **** ****************************************************************************//**
 356:Generated_Source\PSoC4/RTC.c **** *
 357:Generated_Source\PSoC4/RTC.c **** * \brief
 358:Generated_Source\PSoC4/RTC.c **** *  Gets the RTC time update API period.
 359:Generated_Source\PSoC4/RTC.c **** *
 360:Generated_Source\PSoC4/RTC.c **** * \return period The clock period taken as a number of ticks.
 361:Generated_Source\PSoC4/RTC.c **** *
 362:Generated_Source\PSoC4/RTC.c **** *******************************************************************************/
 363:Generated_Source\PSoC4/RTC.c **** uint32 RTC_GetPeriod(void)
 364:Generated_Source\PSoC4/RTC.c **** {
 1564              		.loc 2 364 0
 1565              		.cfi_startproc
 1566              		@ args = 0, pretend = 0, frame = 0
 1567              		@ frame_needed = 1, uses_anonymous_args = 0
 1568 0000 80B5     		push	{r7, lr}
 1569              		.cfi_def_cfa_offset 8
 1570              		.cfi_offset 7, -8
 1571              		.cfi_offset 14, -4
 1572 0002 00AF     		add	r7, sp, #0
 1573              		.cfi_def_cfa_register 7
 365:Generated_Source\PSoC4/RTC.c ****     return(RTC_updateTimePeriod);
 1574              		.loc 2 365 0
 1575 0004 024B     		ldr	r3, .L78
 1576 0006 1B68     		ldr	r3, [r3]
 366:Generated_Source\PSoC4/RTC.c **** }
 1577              		.loc 2 366 0
 1578 0008 1800     		movs	r0, r3
 1579 000a BD46     		mov	sp, r7
 1580              		@ sp needed
 1581 000c 80BD     		pop	{r7, pc}
 1582              	.L79:
 1583 000e C046     		.align	2
 1584              	.L78:
 1585 0010 00000000 		.word	RTC_updateTimePeriod
 1586              		.cfi_endproc
 1587              	.LFE33:
 1588              		.size	RTC_GetPeriod, .-RTC_GetPeriod
 1589              		.section	.text.RTC_GetRefOneSec,"ax",%progbits
 1590              		.align	2
 1591              		.global	RTC_GetRefOneSec
 1592              		.code	16
 1593              		.thumb_func
 1594              		.type	RTC_GetRefOneSec, %function
 1595              	RTC_GetRefOneSec:
 1596              	.LFB34:
 367:Generated_Source\PSoC4/RTC.c **** 
 368:Generated_Source\PSoC4/RTC.c **** 
 369:Generated_Source\PSoC4/RTC.c **** /*******************************************************************************
 370:Generated_Source\PSoC4/RTC.c **** * Function Name: RTC_GetRefOneSec
 371:Generated_Source\PSoC4/RTC.c **** ****************************************************************************//**
 372:Generated_Source\PSoC4/RTC.c **** * \brief
 373:Generated_Source\PSoC4/RTC.c **** * Gets the RTC time update API period.
 374:Generated_Source\PSoC4/RTC.c **** *
 375:Generated_Source\PSoC4/RTC.c **** * \return
 376:Generated_Source\PSoC4/RTC.c **** * period The reference number of ticks taken by the RTC clock source for one
 377:Generated_Source\PSoC4/RTC.c **** * second.
ARM GAS  C:\Users\okuntso\AppData\Local\Temp\ccSegaCM.s 			page 57


 378:Generated_Source\PSoC4/RTC.c **** *
 379:Generated_Source\PSoC4/RTC.c **** *******************************************************************************/
 380:Generated_Source\PSoC4/RTC.c **** uint32 RTC_GetRefOneSec(void)
 381:Generated_Source\PSoC4/RTC.c **** {
 1597              		.loc 2 381 0
 1598              		.cfi_startproc
 1599              		@ args = 0, pretend = 0, frame = 0
 1600              		@ frame_needed = 1, uses_anonymous_args = 0
 1601 0000 80B5     		push	{r7, lr}
 1602              		.cfi_def_cfa_offset 8
 1603              		.cfi_offset 7, -8
 1604              		.cfi_offset 14, -4
 1605 0002 00AF     		add	r7, sp, #0
 1606              		.cfi_def_cfa_register 7
 382:Generated_Source\PSoC4/RTC.c ****     return(RTC_tickRefOneSec);
 1607              		.loc 2 382 0
 1608 0004 024B     		ldr	r3, .L82
 1609 0006 1B68     		ldr	r3, [r3]
 383:Generated_Source\PSoC4/RTC.c **** }
 1610              		.loc 2 383 0
 1611 0008 1800     		movs	r0, r3
 1612 000a BD46     		mov	sp, r7
 1613              		@ sp needed
 1614 000c 80BD     		pop	{r7, pc}
 1615              	.L83:
 1616 000e C046     		.align	2
 1617              	.L82:
 1618 0010 04000000 		.word	RTC_tickRefOneSec
 1619              		.cfi_endproc
 1620              	.LFE34:
 1621              		.size	RTC_GetRefOneSec, .-RTC_GetRefOneSec
 1622              		.section	.text.RTC_GetDateAndTime,"ax",%progbits
 1623              		.align	2
 1624              		.global	RTC_GetDateAndTime
 1625              		.code	16
 1626              		.thumb_func
 1627              		.type	RTC_GetDateAndTime, %function
 1628              	RTC_GetDateAndTime:
 1629              	.LFB35:
 384:Generated_Source\PSoC4/RTC.c **** 
 385:Generated_Source\PSoC4/RTC.c **** 
 386:Generated_Source\PSoC4/RTC.c **** /*******************************************************************************
 387:Generated_Source\PSoC4/RTC.c **** * Function Name: RTC_GetDateAndTime
 388:Generated_Source\PSoC4/RTC.c **** ****************************************************************************//**
 389:Generated_Source\PSoC4/RTC.c **** *
 390:Generated_Source\PSoC4/RTC.c **** * Reads the current time and date.
 391:Generated_Source\PSoC4/RTC.c **** *
 392:Generated_Source\PSoC4/RTC.c **** * \param dateTime The pointer to the RTC_date_time structure to which time and 
 393:Generated_Source\PSoC4/RTC.c **** * date is returned.
 394:Generated_Source\PSoC4/RTC.c **** *
 395:Generated_Source\PSoC4/RTC.c **** *******************************************************************************/
 396:Generated_Source\PSoC4/RTC.c **** void RTC_GetDateAndTime(RTC_DATE_TIME* dateTime)
 397:Generated_Source\PSoC4/RTC.c **** {
 1630              		.loc 2 397 0
 1631              		.cfi_startproc
 1632              		@ args = 0, pretend = 0, frame = 8
 1633              		@ frame_needed = 1, uses_anonymous_args = 0
ARM GAS  C:\Users\okuntso\AppData\Local\Temp\ccSegaCM.s 			page 58


 1634 0000 90B5     		push	{r4, r7, lr}
 1635              		.cfi_def_cfa_offset 12
 1636              		.cfi_offset 4, -12
 1637              		.cfi_offset 7, -8
 1638              		.cfi_offset 14, -4
 1639 0002 85B0     		sub	sp, sp, #20
 1640              		.cfi_def_cfa_offset 32
 1641 0004 02AF     		add	r7, sp, #8
 1642              		.cfi_def_cfa 7, 24
 1643 0006 7860     		str	r0, [r7, #4]
 398:Generated_Source\PSoC4/RTC.c ****     RTC_UnixToDateTime(dateTime, (RTC_unixTime  + RTC_dstTimeOffset),
 1644              		.loc 2 398 0
 1645 0008 0A4B     		ldr	r3, .L85
 1646 000a 1B68     		ldr	r3, [r3]
 1647 000c 1900     		movs	r1, r3
 1648 000e 0023     		movs	r3, #0
 1649 0010 1A00     		movs	r2, r3
 1650 0012 094B     		ldr	r3, .L85+4
 1651 0014 5C68     		ldr	r4, [r3, #4]
 1652 0016 1B68     		ldr	r3, [r3]
 1653 0018 5B18     		adds	r3, r3, r1
 1654 001a 5441     		adcs	r4, r4, r2
 1655 001c 7968     		ldr	r1, [r7, #4]
 1656 001e 0022     		movs	r2, #0
 1657 0020 0092     		str	r2, [sp]
 1658 0022 1A00     		movs	r2, r3
 1659 0024 2300     		movs	r3, r4
 1660 0026 0800     		movs	r0, r1
 1661 0028 FFF7FEFF 		bl	RTC_UnixToDateTime
 399:Generated_Source\PSoC4/RTC.c ****                                                                             RTC_INITIAL_TIME_FORMAT
 400:Generated_Source\PSoC4/RTC.c **** }
 1662              		.loc 2 400 0
 1663 002c C046     		nop
 1664 002e BD46     		mov	sp, r7
 1665 0030 03B0     		add	sp, sp, #12
 1666              		@ sp needed
 1667 0032 90BD     		pop	{r4, r7, pc}
 1668              	.L86:
 1669              		.align	2
 1670              	.L85:
 1671 0034 08000000 		.word	RTC_dstTimeOffset
 1672 0038 00000000 		.word	RTC_unixTime
 1673              		.cfi_endproc
 1674              	.LFE35:
 1675              		.size	RTC_GetDateAndTime, .-RTC_GetDateAndTime
 1676              		.section	.text.RTC_GetTime,"ax",%progbits
 1677              		.align	2
 1678              		.global	RTC_GetTime
 1679              		.code	16
 1680              		.thumb_func
 1681              		.type	RTC_GetTime, %function
 1682              	RTC_GetTime:
 1683              	.LFB36:
 401:Generated_Source\PSoC4/RTC.c **** 
 402:Generated_Source\PSoC4/RTC.c **** 
 403:Generated_Source\PSoC4/RTC.c **** /*******************************************************************************
 404:Generated_Source\PSoC4/RTC.c **** * Function Name: RTC_GetTime
ARM GAS  C:\Users\okuntso\AppData\Local\Temp\ccSegaCM.s 			page 59


 405:Generated_Source\PSoC4/RTC.c **** ****************************************************************************//**
 406:Generated_Source\PSoC4/RTC.c **** * \brief
 407:Generated_Source\PSoC4/RTC.c **** * Reads the current time.
 408:Generated_Source\PSoC4/RTC.c **** *
 409:Generated_Source\PSoC4/RTC.c **** * \return
 410:Generated_Source\PSoC4/RTC.c **** * date The value of date in the user selected format. The date value is 
 411:Generated_Source\PSoC4/RTC.c **** * available in the BCD format.
 412:Generated_Source\PSoC4/RTC.c **** *
 413:Generated_Source\PSoC4/RTC.c **** * \warning
 414:Generated_Source\PSoC4/RTC.c **** *  Using RTC_GetTime and RTC_GetDate API separately might result
 415:Generated_Source\PSoC4/RTC.c **** *  in errors when the time wraps around the end of the day. To avoid this,
 416:Generated_Source\PSoC4/RTC.c **** *  use RTC_GetDateAndTime API.
 417:Generated_Source\PSoC4/RTC.c **** *
 418:Generated_Source\PSoC4/RTC.c **** *******************************************************************************/
 419:Generated_Source\PSoC4/RTC.c **** uint32 RTC_GetTime(void)
 420:Generated_Source\PSoC4/RTC.c **** {
 1684              		.loc 2 420 0
 1685              		.cfi_startproc
 1686              		@ args = 0, pretend = 0, frame = 0
 1687              		@ frame_needed = 1, uses_anonymous_args = 0
 1688 0000 90B5     		push	{r4, r7, lr}
 1689              		.cfi_def_cfa_offset 12
 1690              		.cfi_offset 4, -12
 1691              		.cfi_offset 7, -8
 1692              		.cfi_offset 14, -4
 1693 0002 83B0     		sub	sp, sp, #12
 1694              		.cfi_def_cfa_offset 24
 1695 0004 02AF     		add	r7, sp, #8
 1696              		.cfi_def_cfa 7, 16
 421:Generated_Source\PSoC4/RTC.c ****     RTC_UnixToDateTime(&RTC_currentTimeDate,
 1697              		.loc 2 421 0
 1698 0006 0C4B     		ldr	r3, .L89
 1699 0008 1B68     		ldr	r3, [r3]
 1700 000a 1900     		movs	r1, r3
 1701 000c 0023     		movs	r3, #0
 1702 000e 1A00     		movs	r2, r3
 1703 0010 0A4B     		ldr	r3, .L89+4
 1704 0012 5C68     		ldr	r4, [r3, #4]
 1705 0014 1B68     		ldr	r3, [r3]
 1706 0016 5B18     		adds	r3, r3, r1
 1707 0018 5441     		adcs	r4, r4, r2
 1708 001a 0949     		ldr	r1, .L89+8
 1709 001c 0022     		movs	r2, #0
 1710 001e 0092     		str	r2, [sp]
 1711 0020 1A00     		movs	r2, r3
 1712 0022 2300     		movs	r3, r4
 1713 0024 0800     		movs	r0, r1
 1714 0026 FFF7FEFF 		bl	RTC_UnixToDateTime
 422:Generated_Source\PSoC4/RTC.c ****                                     (RTC_unixTime  + RTC_dstTimeOffset),
 423:Generated_Source\PSoC4/RTC.c ****                                      RTC_INITIAL_TIME_FORMAT);
 424:Generated_Source\PSoC4/RTC.c **** 
 425:Generated_Source\PSoC4/RTC.c ****     return(RTC_currentTimeDate.time);
 1715              		.loc 2 425 0
 1716 002a 054B     		ldr	r3, .L89+8
 1717 002c 1B68     		ldr	r3, [r3]
 426:Generated_Source\PSoC4/RTC.c **** }
 1718              		.loc 2 426 0
ARM GAS  C:\Users\okuntso\AppData\Local\Temp\ccSegaCM.s 			page 60


 1719 002e 1800     		movs	r0, r3
 1720 0030 BD46     		mov	sp, r7
 1721 0032 01B0     		add	sp, sp, #4
 1722              		@ sp needed
 1723 0034 90BD     		pop	{r4, r7, pc}
 1724              	.L90:
 1725 0036 C046     		.align	2
 1726              	.L89:
 1727 0038 08000000 		.word	RTC_dstTimeOffset
 1728 003c 00000000 		.word	RTC_unixTime
 1729 0040 00000000 		.word	RTC_currentTimeDate
 1730              		.cfi_endproc
 1731              	.LFE36:
 1732              		.size	RTC_GetTime, .-RTC_GetTime
 1733              		.section	.text.RTC_GetDate,"ax",%progbits
 1734              		.align	2
 1735              		.global	RTC_GetDate
 1736              		.code	16
 1737              		.thumb_func
 1738              		.type	RTC_GetDate, %function
 1739              	RTC_GetDate:
 1740              	.LFB37:
 427:Generated_Source\PSoC4/RTC.c **** 
 428:Generated_Source\PSoC4/RTC.c **** 
 429:Generated_Source\PSoC4/RTC.c **** /*******************************************************************************
 430:Generated_Source\PSoC4/RTC.c **** * Function Name: RTC_GetDate
 431:Generated_Source\PSoC4/RTC.c **** ****************************************************************************//**
 432:Generated_Source\PSoC4/RTC.c **** *
 433:Generated_Source\PSoC4/RTC.c **** * \brief Reads the current time.
 434:Generated_Source\PSoC4/RTC.c **** *
 435:Generated_Source\PSoC4/RTC.c **** * \return
 436:Generated_Source\PSoC4/RTC.c **** * time The time value in the format selected by the user (12/24 hr);
 437:Generated_Source\PSoC4/RTC.c **** * The time value is available in the BCD format.
 438:Generated_Source\PSoC4/RTC.c **** *
 439:Generated_Source\PSoC4/RTC.c **** * \note
 440:Generated_Source\PSoC4/RTC.c **** *  Using RTC_GetTime and RTC_GetDate API separately
 441:Generated_Source\PSoC4/RTC.c **** *  might result in errors when the time wraps around the end of the day. To
 442:Generated_Source\PSoC4/RTC.c **** *  avoid this, use RTC_GetDateAndTime API.
 443:Generated_Source\PSoC4/RTC.c **** *
 444:Generated_Source\PSoC4/RTC.c **** *******************************************************************************/
 445:Generated_Source\PSoC4/RTC.c **** uint32 RTC_GetDate(void)
 446:Generated_Source\PSoC4/RTC.c **** {
 1741              		.loc 2 446 0
 1742              		.cfi_startproc
 1743              		@ args = 0, pretend = 0, frame = 0
 1744              		@ frame_needed = 1, uses_anonymous_args = 0
 1745 0000 90B5     		push	{r4, r7, lr}
 1746              		.cfi_def_cfa_offset 12
 1747              		.cfi_offset 4, -12
 1748              		.cfi_offset 7, -8
 1749              		.cfi_offset 14, -4
 1750 0002 83B0     		sub	sp, sp, #12
 1751              		.cfi_def_cfa_offset 24
 1752 0004 02AF     		add	r7, sp, #8
 1753              		.cfi_def_cfa 7, 16
 447:Generated_Source\PSoC4/RTC.c ****     RTC_UnixToDateTime(&RTC_currentTimeDate,
 1754              		.loc 2 447 0
ARM GAS  C:\Users\okuntso\AppData\Local\Temp\ccSegaCM.s 			page 61


 1755 0006 0C4B     		ldr	r3, .L93
 1756 0008 1B68     		ldr	r3, [r3]
 1757 000a 1900     		movs	r1, r3
 1758 000c 0023     		movs	r3, #0
 1759 000e 1A00     		movs	r2, r3
 1760 0010 0A4B     		ldr	r3, .L93+4
 1761 0012 5C68     		ldr	r4, [r3, #4]
 1762 0014 1B68     		ldr	r3, [r3]
 1763 0016 5B18     		adds	r3, r3, r1
 1764 0018 5441     		adcs	r4, r4, r2
 1765 001a 0949     		ldr	r1, .L93+8
 1766 001c 0022     		movs	r2, #0
 1767 001e 0092     		str	r2, [sp]
 1768 0020 1A00     		movs	r2, r3
 1769 0022 2300     		movs	r3, r4
 1770 0024 0800     		movs	r0, r1
 1771 0026 FFF7FEFF 		bl	RTC_UnixToDateTime
 448:Generated_Source\PSoC4/RTC.c ****                                     (RTC_unixTime  + RTC_dstTimeOffset),
 449:Generated_Source\PSoC4/RTC.c ****                                      RTC_INITIAL_TIME_FORMAT);
 450:Generated_Source\PSoC4/RTC.c **** 
 451:Generated_Source\PSoC4/RTC.c ****     return(RTC_currentTimeDate.date);
 1772              		.loc 2 451 0
 1773 002a 054B     		ldr	r3, .L93+8
 1774 002c 5B68     		ldr	r3, [r3, #4]
 452:Generated_Source\PSoC4/RTC.c **** }
 1775              		.loc 2 452 0
 1776 002e 1800     		movs	r0, r3
 1777 0030 BD46     		mov	sp, r7
 1778 0032 01B0     		add	sp, sp, #4
 1779              		@ sp needed
 1780 0034 90BD     		pop	{r4, r7, pc}
 1781              	.L94:
 1782 0036 C046     		.align	2
 1783              	.L93:
 1784 0038 08000000 		.word	RTC_dstTimeOffset
 1785 003c 00000000 		.word	RTC_unixTime
 1786 0040 00000000 		.word	RTC_currentTimeDate
 1787              		.cfi_endproc
 1788              	.LFE37:
 1789              		.size	RTC_GetDate, .-RTC_GetDate
 1790              		.section	.text.RTC_ReadStatus,"ax",%progbits
 1791              		.align	2
 1792              		.global	RTC_ReadStatus
 1793              		.code	16
 1794              		.thumb_func
 1795              		.type	RTC_ReadStatus, %function
 1796              	RTC_ReadStatus:
 1797              	.LFB38:
 453:Generated_Source\PSoC4/RTC.c **** 
 454:Generated_Source\PSoC4/RTC.c **** 
 455:Generated_Source\PSoC4/RTC.c **** #if(0u != RTC_INITIAL_ALARM_STATUS)
 456:Generated_Source\PSoC4/RTC.c ****     /*******************************************************************************
 457:Generated_Source\PSoC4/RTC.c ****     * Function Name: RTC_SetAlarmDateAndTime
 458:Generated_Source\PSoC4/RTC.c ****     ****************************************************************************//**
 459:Generated_Source\PSoC4/RTC.c ****     *
 460:Generated_Source\PSoC4/RTC.c ****     * \brief
 461:Generated_Source\PSoC4/RTC.c ****     *  Writes the time and date values as the current alarm time and date.
ARM GAS  C:\Users\okuntso\AppData\Local\Temp\ccSegaCM.s 			page 62


 462:Generated_Source\PSoC4/RTC.c ****     *
 463:Generated_Source\PSoC4/RTC.c ****     * \param
 464:Generated_Source\PSoC4/RTC.c ****     *  alarmTime The pointer to the RTC_date_time global structure where
 465:Generated_Source\PSoC4/RTC.c ****     *  new values of the alarm time and date are stored.
 466:Generated_Source\PSoC4/RTC.c ****     *
 467:Generated_Source\PSoC4/RTC.c ****     * \note
 468:Generated_Source\PSoC4/RTC.c ****     *  Invalid time entries are written with "00:00:00:00" for the 24-hour format and
 469:Generated_Source\PSoC4/RTC.c ****     *  "AM 12:00:00:00" for the 12-hour format. Invalid date entries are written with
 470:Generated_Source\PSoC4/RTC.c ****     *  a date equivalent to 01-JAN-2000.
 471:Generated_Source\PSoC4/RTC.c ****     *
 472:Generated_Source\PSoC4/RTC.c ****     *******************************************************************************/
 473:Generated_Source\PSoC4/RTC.c ****     void RTC_SetAlarmDateAndTime(const RTC_DATE_TIME* alarmTime)
 474:Generated_Source\PSoC4/RTC.c ****     {
 475:Generated_Source\PSoC4/RTC.c ****         RTC_alarmCfgTimeDate = *alarmTime;
 476:Generated_Source\PSoC4/RTC.c ****         RTC_unixTimeAlarm = RTC_ConstructUnixAlarmTime(alarmTime, (uint8)RTC_alarmCfgMask);
 477:Generated_Source\PSoC4/RTC.c ****     }
 478:Generated_Source\PSoC4/RTC.c **** 
 479:Generated_Source\PSoC4/RTC.c **** 
 480:Generated_Source\PSoC4/RTC.c ****     /*******************************************************************************
 481:Generated_Source\PSoC4/RTC.c ****     * Function Name: RTC_GetAlarmDateAndTime
 482:Generated_Source\PSoC4/RTC.c ****     ****************************************************************************//**
 483:Generated_Source\PSoC4/RTC.c ****     *
 484:Generated_Source\PSoC4/RTC.c ****     * \brief
 485:Generated_Source\PSoC4/RTC.c ****     *  Reads the current alarm time and date.
 486:Generated_Source\PSoC4/RTC.c ****     *
 487:Generated_Source\PSoC4/RTC.c ****     * \param
 488:Generated_Source\PSoC4/RTC.c ****     *  alarmTimeDate The pointer to the RTC_date_time structure to which
 489:Generated_Source\PSoC4/RTC.c ****     *  the alarm date and time are returned.
 490:Generated_Source\PSoC4/RTC.c ****     *
 491:Generated_Source\PSoC4/RTC.c ****     *******************************************************************************/
 492:Generated_Source\PSoC4/RTC.c ****     void RTC_GetAlarmDateAndTime(RTC_DATE_TIME* alarmTimeDate)
 493:Generated_Source\PSoC4/RTC.c ****     {
 494:Generated_Source\PSoC4/RTC.c ****         *alarmTimeDate = RTC_alarmCfgTimeDate;
 495:Generated_Source\PSoC4/RTC.c ****     }
 496:Generated_Source\PSoC4/RTC.c **** 
 497:Generated_Source\PSoC4/RTC.c **** 
 498:Generated_Source\PSoC4/RTC.c ****     /*******************************************************************************
 499:Generated_Source\PSoC4/RTC.c ****     * Function Name: RTC_SetAlarmMask
 500:Generated_Source\PSoC4/RTC.c ****     ****************************************************************************//**
 501:Generated_Source\PSoC4/RTC.c ****     *
 502:Generated_Source\PSoC4/RTC.c ****     * \brief
 503:Generated_Source\PSoC4/RTC.c ****     *  Writes the Alarm Mask software register with one bit per time/date entry.
 504:Generated_Source\PSoC4/RTC.c ****     *  The alarm is true when all masked time/date values match the Alarm values.
 505:Generated_Source\PSoC4/RTC.c ****     *  Generated only if the alarm functionality is enabled.
 506:Generated_Source\PSoC4/RTC.c ****     *
 507:Generated_Source\PSoC4/RTC.c ****     * \param
 508:Generated_Source\PSoC4/RTC.c ****     *  mask The Alarm Mask software register value. The values shown below can be
 509:Generated_Source\PSoC4/RTC.c ****     *  OR'ed and passed as an argument as well.
 510:Generated_Source\PSoC4/RTC.c ****     * \param
 511:Generated_Source\PSoC4/RTC.c ****     *  RTC_ALARM_SEC_MASK The second alarm mask allows
 512:Generated_Source\PSoC4/RTC.c ****     *  matching the alarm second register with the current second register.
 513:Generated_Source\PSoC4/RTC.c ****     * \param
 514:Generated_Source\PSoC4/RTC.c ****     *  RTC_ALARM_MIN_MASK The minute alarm mask allows matching the
 515:Generated_Source\PSoC4/RTC.c ****     *  alarm minute register with the current minute register.
 516:Generated_Source\PSoC4/RTC.c ****     * \param
 517:Generated_Source\PSoC4/RTC.c ****     *  RTC_ALARM_HOUR_MASK The hour alarm mask allows
 518:Generated_Source\PSoC4/RTC.c ****     * matching the alarm hour register with the current hour register.
ARM GAS  C:\Users\okuntso\AppData\Local\Temp\ccSegaCM.s 			page 63


 519:Generated_Source\PSoC4/RTC.c ****     * \param
 520:Generated_Source\PSoC4/RTC.c ****     *  RTC_ALARM_DAYOFWEEK_MASK The day of the week alarm mask 
 521:Generated_Source\PSoC4/RTC.c ****     * allows matching the alarm day of the week register with the current day of
 522:Generated_Source\PSoC4/RTC.c ****     * the week register.
 523:Generated_Source\PSoC4/RTC.c ****     * \param
 524:Generated_Source\PSoC4/RTC.c ****     * RTC_ALARM_DAYOFMONTH_MASK The day of the month alarm mask
 525:Generated_Source\PSoC4/RTC.c ****     * allows matching the alarm day of the month register with the current day 
 526:Generated_Source\PSoC4/RTC.c ****     * of the month register.
 527:Generated_Source\PSoC4/RTC.c ****     * \param
 528:Generated_Source\PSoC4/RTC.c ****     * RTC_ALARM_MONTH_MASK The month alarm mask allows matching 
 529:Generated_Source\PSoC4/RTC.c ****     * the alarm month register with the current month register.
 530:Generated_Source\PSoC4/RTC.c ****     * \param
 531:Generated_Source\PSoC4/RTC.c ****     * RTC_ALARM_YEAR_MASK The year alarm mask allows matching the
 532:Generated_Source\PSoC4/RTC.c ****     *  alarm year register with the current year register.
 533:Generated_Source\PSoC4/RTC.c ****     *
 534:Generated_Source\PSoC4/RTC.c ****     *******************************************************************************/
 535:Generated_Source\PSoC4/RTC.c ****     void RTC_SetAlarmMask(uint32 mask)
 536:Generated_Source\PSoC4/RTC.c ****     {
 537:Generated_Source\PSoC4/RTC.c ****         RTC_alarmCfgMask = (uint8)mask;
 538:Generated_Source\PSoC4/RTC.c ****         RTC_unixTimeAlarm = RTC_ConstructUnixAlarmTime(&RTC_alarmCfgTimeDate, (uint8)mask);
 539:Generated_Source\PSoC4/RTC.c ****     }
 540:Generated_Source\PSoC4/RTC.c **** 
 541:Generated_Source\PSoC4/RTC.c **** 
 542:Generated_Source\PSoC4/RTC.c ****     /*******************************************************************************
 543:Generated_Source\PSoC4/RTC.c ****     * Function Name: RTC_GetAlarmMask
 544:Generated_Source\PSoC4/RTC.c ****     ****************************************************************************//**
 545:Generated_Source\PSoC4/RTC.c ****     *
 546:Generated_Source\PSoC4/RTC.c ****     * \brief
 547:Generated_Source\PSoC4/RTC.c ****     *  Reads the Alarm Mask software register. Generated only if the alarm 
 548:Generated_Source\PSoC4/RTC.c ****     * functionality is enabled.
 549:Generated_Source\PSoC4/RTC.c ****     *
 550:Generated_Source\PSoC4/RTC.c ****     * \return
 551:Generated_Source\PSoC4/RTC.c ****     *  The Alarm Mask value with each bit representing the status of the alarm 
 552:Generated_Source\PSoC4/RTC.c ****     * time/date match enable.
 553:Generated_Source\PSoC4/RTC.c ****     *
 554:Generated_Source\PSoC4/RTC.c ****     * \return
 555:Generated_Source\PSoC4/RTC.c ****     *  RTC_ALARM_SEC_MASK - The second alarm mask allows matching the
 556:Generated_Source\PSoC4/RTC.c ****     * alarm second register with the current second register.
 557:Generated_Source\PSoC4/RTC.c ****     *
 558:Generated_Source\PSoC4/RTC.c ****     * \return
 559:Generated_Source\PSoC4/RTC.c ****     * RTC_ALARM_MIN_MASK - The minute alarm mask allows matching the 
 560:Generated_Source\PSoC4/RTC.c ****     * alarm minute register with the current minute register.
 561:Generated_Source\PSoC4/RTC.c ****     *
 562:Generated_Source\PSoC4/RTC.c ****     * \return
 563:Generated_Source\PSoC4/RTC.c ****     *  RTC_ALARM_HOUR_MASK - The hour alarm mask allows matching the 
 564:Generated_Source\PSoC4/RTC.c ****     * alarm hour register with the current hour register.
 565:Generated_Source\PSoC4/RTC.c ****     *
 566:Generated_Source\PSoC4/RTC.c ****     * \return
 567:Generated_Source\PSoC4/RTC.c ****     *  RTC_ALARM_DAYOFWEEK_MASK - The day of the week alarm mask allows
 568:Generated_Source\PSoC4/RTC.c ****     * matching the alarm day of the week register with the current day of the 
 569:Generated_Source\PSoC4/RTC.c ****     * week register.
 570:Generated_Source\PSoC4/RTC.c ****     *
 571:Generated_Source\PSoC4/RTC.c ****     * \return
 572:Generated_Source\PSoC4/RTC.c ****     *  RTC_ALARM_DAYOFMONTH_MASK - The day of the month alarm mask 
 573:Generated_Source\PSoC4/RTC.c ****     * allows matching the alarm day of the month register with the current day of 
 574:Generated_Source\PSoC4/RTC.c ****     * the month register.
 575:Generated_Source\PSoC4/RTC.c ****     *
ARM GAS  C:\Users\okuntso\AppData\Local\Temp\ccSegaCM.s 			page 64


 576:Generated_Source\PSoC4/RTC.c ****     * \return
 577:Generated_Source\PSoC4/RTC.c ****     *  RTC_ALARM_MONTH_MASK - The month alarm mask allows matching 
 578:Generated_Source\PSoC4/RTC.c ****     * the alarm month register with the current month register.
 579:Generated_Source\PSoC4/RTC.c ****     *
 580:Generated_Source\PSoC4/RTC.c ****     * \return
 581:Generated_Source\PSoC4/RTC.c ****     *  RTC_ALARM_YEAR_MASK - The year alarm mask allows matching the
 582:Generated_Source\PSoC4/RTC.c ****     * alarm year register with the current year register.
 583:Generated_Source\PSoC4/RTC.c ****     *
 584:Generated_Source\PSoC4/RTC.c ****     *******************************************************************************/
 585:Generated_Source\PSoC4/RTC.c ****     uint32 RTC_GetAlarmMask(void)
 586:Generated_Source\PSoC4/RTC.c ****     {
 587:Generated_Source\PSoC4/RTC.c ****         return((uint32)RTC_alarmCfgMask);
 588:Generated_Source\PSoC4/RTC.c ****     }
 589:Generated_Source\PSoC4/RTC.c **** 
 590:Generated_Source\PSoC4/RTC.c **** 
 591:Generated_Source\PSoC4/RTC.c ****     /*******************************************************************************
 592:Generated_Source\PSoC4/RTC.c ****     * Function Name: RTC_GetAlarmStatus
 593:Generated_Source\PSoC4/RTC.c ****     ****************************************************************************//**
 594:Generated_Source\PSoC4/RTC.c ****     *
 595:Generated_Source\PSoC4/RTC.c ****     * \brief
 596:Generated_Source\PSoC4/RTC.c ****     *  Returns the alarm status of RTC.
 597:Generated_Source\PSoC4/RTC.c ****     *
 598:Generated_Source\PSoC4/RTC.c ****     * \return
 599:Generated_Source\PSoC4/RTC.c ****     *  The Alarm active status. This bit is high when the current time and date match the alarm
 600:Generated_Source\PSoC4/RTC.c ****     *  time and date.
 601:Generated_Source\PSoC4/RTC.c ****     *
 602:Generated_Source\PSoC4/RTC.c ****     * \return
 603:Generated_Source\PSoC4/RTC.c ****     *  0 - The Alarm status is not active.
 604:Generated_Source\PSoC4/RTC.c ****     * \return
 605:Generated_Source\PSoC4/RTC.c ****     *  1 - The Alarm status is active.
 606:Generated_Source\PSoC4/RTC.c ****     *
 607:Generated_Source\PSoC4/RTC.c ****     *******************************************************************************/
 608:Generated_Source\PSoC4/RTC.c ****     uint32 RTC_GetAlarmStatus(void)
 609:Generated_Source\PSoC4/RTC.c ****     {
 610:Generated_Source\PSoC4/RTC.c ****         return((0uL != (RTC_currentTimeDate.status & (1uL << RTC_STATUS_ALARM_OFFSET))) ? 1uL : 0uL
 611:Generated_Source\PSoC4/RTC.c ****     }
 612:Generated_Source\PSoC4/RTC.c **** 
 613:Generated_Source\PSoC4/RTC.c **** 
 614:Generated_Source\PSoC4/RTC.c ****     /*******************************************************************************
 615:Generated_Source\PSoC4/RTC.c ****     * Function Name: RTC_ClearAlarmStatus
 616:Generated_Source\PSoC4/RTC.c ****     ****************************************************************************//**
 617:Generated_Source\PSoC4/RTC.c ****     *
 618:Generated_Source\PSoC4/RTC.c ****     * \brief
 619:Generated_Source\PSoC4/RTC.c ****     *  Clears the alarm status of RTC.
 620:Generated_Source\PSoC4/RTC.c ****     *
 621:Generated_Source\PSoC4/RTC.c ****     * \note
 622:Generated_Source\PSoC4/RTC.c ****     * The Alarm active (AA) flag clears after read. This bit will be set in the next
 623:Generated_Source\PSoC4/RTC.c ****     * alarm match event only. If Alarm is set on only minutes and the alarm
 624:Generated_Source\PSoC4/RTC.c ****     * minutes is 20 minutes - the alarm triggers once every 20th minute of
 625:Generated_Source\PSoC4/RTC.c ****     * every hour.
 626:Generated_Source\PSoC4/RTC.c ****     *
 627:Generated_Source\PSoC4/RTC.c ****     *******************************************************************************/
 628:Generated_Source\PSoC4/RTC.c ****     void RTC_ClearAlarmStatus(void)
 629:Generated_Source\PSoC4/RTC.c ****     {
 630:Generated_Source\PSoC4/RTC.c ****         RTC_currentTimeDate.status &= (~(1uL << RTC_STATUS_ALARM_OFFSET));
 631:Generated_Source\PSoC4/RTC.c ****         RTC_alarmCurStatus = 0u;
 632:Generated_Source\PSoC4/RTC.c ****     }
ARM GAS  C:\Users\okuntso\AppData\Local\Temp\ccSegaCM.s 			page 65


 633:Generated_Source\PSoC4/RTC.c **** 
 634:Generated_Source\PSoC4/RTC.c **** 
 635:Generated_Source\PSoC4/RTC.c ****     /*******************************************************************************
 636:Generated_Source\PSoC4/RTC.c ****     * Function Name: RTC_SetAlarmHandler
 637:Generated_Source\PSoC4/RTC.c ****     ****************************************************************************//**
 638:Generated_Source\PSoC4/RTC.c ****     *
 639:Generated_Source\PSoC4/RTC.c ****     * \brief
 640:Generated_Source\PSoC4/RTC.c ****     *  This API sets the function to be called when the alarm goes off / triggers.
 641:Generated_Source\PSoC4/RTC.c ****     *  This API is generated only if the alarm functionality is enabled in the
 642:Generated_Source\PSoC4/RTC.c ****     *  customizer.
 643:Generated_Source\PSoC4/RTC.c ****     *
 644:Generated_Source\PSoC4/RTC.c ****     * \param
 645:Generated_Source\PSoC4/RTC.c ****     *  CallbackFunction The callback function address.
 646:Generated_Source\PSoC4/RTC.c ****     *
 647:Generated_Source\PSoC4/RTC.c ****     * \return
 648:Generated_Source\PSoC4/RTC.c ****     *  A previous callback function address.
 649:Generated_Source\PSoC4/RTC.c ****     *
 650:Generated_Source\PSoC4/RTC.c ****     *******************************************************************************/
 651:Generated_Source\PSoC4/RTC.c ****     void* RTC_SetAlarmHandler(void (*CallbackFunction)(void))
 652:Generated_Source\PSoC4/RTC.c ****     {
 653:Generated_Source\PSoC4/RTC.c ****         void (*tmpCallbackPtr)(void);
 654:Generated_Source\PSoC4/RTC.c **** 
 655:Generated_Source\PSoC4/RTC.c ****         tmpCallbackPtr = RTC_alarmCallbackPtr;
 656:Generated_Source\PSoC4/RTC.c ****         RTC_alarmCallbackPtr = CallbackFunction;
 657:Generated_Source\PSoC4/RTC.c **** 
 658:Generated_Source\PSoC4/RTC.c ****         return((void*)tmpCallbackPtr);
 659:Generated_Source\PSoC4/RTC.c ****     }
 660:Generated_Source\PSoC4/RTC.c **** 
 661:Generated_Source\PSoC4/RTC.c **** 
 662:Generated_Source\PSoC4/RTC.c ****     /*******************************************************************************
 663:Generated_Source\PSoC4/RTC.c ****     * Function Name: RTC_GetNexAlarmTime
 664:Generated_Source\PSoC4/RTC.c ****     ****************************************************************************//**
 665:Generated_Source\PSoC4/RTC.c ****     *
 666:Generated_Source\PSoC4/RTC.c ****     * \brief
 667:Generated_Source\PSoC4/RTC.c ****     *  This is an internal function that calculates the time of the next alarm
 668:Generated_Source\PSoC4/RTC.c ****     *  in the UNIX format taking into account the current "Alarm Config Mask".
 669:Generated_Source\PSoC4/RTC.c ****     *
 670:Generated_Source\PSoC4/RTC.c ****     * \param
 671:Generated_Source\PSoC4/RTC.c ****     *  curUnixTime The current time value in the UNIX format.
 672:Generated_Source\PSoC4/RTC.c ****     *
 673:Generated_Source\PSoC4/RTC.c ****     * \param
 674:Generated_Source\PSoC4/RTC.c ****     *  alarmCfgMask The current Alarm Config Mask.
 675:Generated_Source\PSoC4/RTC.c ****     *
 676:Generated_Source\PSoC4/RTC.c ****     * \return Returns time of the next alarm in the UNIX format.
 677:Generated_Source\PSoC4/RTC.c ****     *
 678:Generated_Source\PSoC4/RTC.c ****     *******************************************************************************/
 679:Generated_Source\PSoC4/RTC.c ****     uint64 RTC_GetNexAlarmTime(uint64 curUnixTime, uint8 alarmCfgMask)
 680:Generated_Source\PSoC4/RTC.c ****     {
 681:Generated_Source\PSoC4/RTC.c ****         uint32 prevVal;
 682:Generated_Source\PSoC4/RTC.c ****         uint32 nextVal;
 683:Generated_Source\PSoC4/RTC.c ****         uint32 carryFlag;
 684:Generated_Source\PSoC4/RTC.c ****         uint32 daysInMonth;
 685:Generated_Source\PSoC4/RTC.c ****         RTC_DATE_TIME curDateTime;
 686:Generated_Source\PSoC4/RTC.c **** 
 687:Generated_Source\PSoC4/RTC.c ****         carryFlag = 1u;
 688:Generated_Source\PSoC4/RTC.c ****         RTC_UnixToDateTime(&curDateTime, curUnixTime, (uint32)RTC_24_HOURS_FORMAT);
 689:Generated_Source\PSoC4/RTC.c **** 
ARM GAS  C:\Users\okuntso\AppData\Local\Temp\ccSegaCM.s 			page 66


 690:Generated_Source\PSoC4/RTC.c ****         /* Calculates Second value of next alarm time based on current time and Alarm Config Mask. 
 691:Generated_Source\PSoC4/RTC.c ****         if(0uL != ((~((uint32)alarmCfgMask)) & RTC_ALARM_SEC_MASK))
 692:Generated_Source\PSoC4/RTC.c ****         {
 693:Generated_Source\PSoC4/RTC.c ****             prevVal = RTC_GetSecond(curDateTime.time);
 694:Generated_Source\PSoC4/RTC.c ****             nextVal = RTC_GetNextMinSec(prevVal);
 695:Generated_Source\PSoC4/RTC.c ****             curDateTime.time = RTC_SetSecond(curDateTime.time, nextVal);
 696:Generated_Source\PSoC4/RTC.c ****             carryFlag = (nextVal < prevVal) ? 1u : 0u;
 697:Generated_Source\PSoC4/RTC.c ****         }
 698:Generated_Source\PSoC4/RTC.c **** 
 699:Generated_Source\PSoC4/RTC.c ****         /* Calculates Minute value of next alarm time based on current time and Alarm Config Mask. 
 700:Generated_Source\PSoC4/RTC.c ****         if((0uL != carryFlag) && (0uL != ((~((uint32)alarmCfgMask)) & RTC_ALARM_MIN_MASK)))
 701:Generated_Source\PSoC4/RTC.c ****         {
 702:Generated_Source\PSoC4/RTC.c ****             prevVal = RTC_GetMinutes(curDateTime.time);
 703:Generated_Source\PSoC4/RTC.c ****             nextVal = RTC_GetNextMinSec(prevVal);
 704:Generated_Source\PSoC4/RTC.c ****             curDateTime.time = RTC_SetMinutes(curDateTime.time, nextVal);
 705:Generated_Source\PSoC4/RTC.c ****             carryFlag = (nextVal < prevVal) ? 1u : 0u;
 706:Generated_Source\PSoC4/RTC.c ****         }
 707:Generated_Source\PSoC4/RTC.c **** 
 708:Generated_Source\PSoC4/RTC.c ****         /* Calculates Hour value of next alarm time based on current time and Alarm Config Mask. */
 709:Generated_Source\PSoC4/RTC.c ****         if((0uL != carryFlag) && (0uL != ((~((uint32)alarmCfgMask)) & RTC_ALARM_HOUR_MASK)))
 710:Generated_Source\PSoC4/RTC.c ****         {
 711:Generated_Source\PSoC4/RTC.c ****             prevVal = RTC_GetHours(curDateTime.time);
 712:Generated_Source\PSoC4/RTC.c ****             nextVal = RTC_GetNextHour(prevVal);
 713:Generated_Source\PSoC4/RTC.c ****             curDateTime.time = RTC_SetHours(curDateTime.time, nextVal);
 714:Generated_Source\PSoC4/RTC.c ****             carryFlag = (nextVal < prevVal) ? 1u : 0u;
 715:Generated_Source\PSoC4/RTC.c ****         }
 716:Generated_Source\PSoC4/RTC.c **** 
 717:Generated_Source\PSoC4/RTC.c ****         /* Calculates Day value of next alarm time based on current time and Alarm Config Mask. */
 718:Generated_Source\PSoC4/RTC.c ****         if((0uL != carryFlag) && (0uL != ((~((uint32)alarmCfgMask)) & RTC_ALARM_DAYOFMONTH_MASK)))
 719:Generated_Source\PSoC4/RTC.c ****         {
 720:Generated_Source\PSoC4/RTC.c ****             prevVal = RTC_GetDay(curDateTime.date);
 721:Generated_Source\PSoC4/RTC.c ****             if(0u != (alarmCfgMask & RTC_ALARM_DAYOFWEEK_MASK))
 722:Generated_Source\PSoC4/RTC.c ****             {
 723:Generated_Source\PSoC4/RTC.c ****                 daysInMonth = RTC_DaysInMonth(RTC_GetMonth(curDateTime.date),
 724:Generated_Source\PSoC4/RTC.c ****                                                            RTC_GetYear(curDateTime.date));
 725:Generated_Source\PSoC4/RTC.c ****                 nextVal = prevVal + RTC_DAYS_PER_WEEK;
 726:Generated_Source\PSoC4/RTC.c ****                 nextVal = (nextVal > daysInMonth) ? (nextVal - daysInMonth) : nextVal;
 727:Generated_Source\PSoC4/RTC.c ****             }
 728:Generated_Source\PSoC4/RTC.c ****             else
 729:Generated_Source\PSoC4/RTC.c ****             {
 730:Generated_Source\PSoC4/RTC.c ****                 nextVal = RTC_GetNextDay(RTC_GetYear(curDateTime.date),
 731:Generated_Source\PSoC4/RTC.c ****                                                       RTC_GetMonth(curDateTime.date),
 732:Generated_Source\PSoC4/RTC.c ****                                                       RTC_GetDay(curDateTime.date),
 733:Generated_Source\PSoC4/RTC.c ****                                                       (~((uint32)alarmCfgMask)));
 734:Generated_Source\PSoC4/RTC.c ****             }
 735:Generated_Source\PSoC4/RTC.c ****             curDateTime.date = RTC_SetDay(curDateTime.date, nextVal);
 736:Generated_Source\PSoC4/RTC.c ****             carryFlag = (nextVal < prevVal) ? 1u : 0u;
 737:Generated_Source\PSoC4/RTC.c ****         }
 738:Generated_Source\PSoC4/RTC.c **** 
 739:Generated_Source\PSoC4/RTC.c ****         /* Calculates Month value of next alarm time based on current time and Alarm Config Mask. *
 740:Generated_Source\PSoC4/RTC.c ****         if((0uL != carryFlag) && (0uL != ((~((uint32)alarmCfgMask)) & RTC_ALARM_MONTH_MASK)))
 741:Generated_Source\PSoC4/RTC.c ****         {
 742:Generated_Source\PSoC4/RTC.c ****             prevVal = RTC_GetMonth(curDateTime.date);
 743:Generated_Source\PSoC4/RTC.c ****             nextVal = RTC_GetNextMonth(prevVal);
 744:Generated_Source\PSoC4/RTC.c ****             curDateTime.date = RTC_SetMonth(curDateTime.date, nextVal);
 745:Generated_Source\PSoC4/RTC.c ****             carryFlag = (nextVal < prevVal) ? 1u : 0u;
 746:Generated_Source\PSoC4/RTC.c ****         }
ARM GAS  C:\Users\okuntso\AppData\Local\Temp\ccSegaCM.s 			page 67


 747:Generated_Source\PSoC4/RTC.c **** 
 748:Generated_Source\PSoC4/RTC.c ****         /* Calculates Year value of next alarm time based on current time and Alarm Config Mask. */
 749:Generated_Source\PSoC4/RTC.c ****         if((0uL != carryFlag) && (0uL != ((~((uint32)alarmCfgMask)) & RTC_ALARM_YEAR_MASK)))
 750:Generated_Source\PSoC4/RTC.c ****         {
 751:Generated_Source\PSoC4/RTC.c ****             prevVal = RTC_GetYear(curDateTime.date);
 752:Generated_Source\PSoC4/RTC.c ****             nextVal = RTC_GetNextYear(prevVal);
 753:Generated_Source\PSoC4/RTC.c ****             curDateTime.date = RTC_SetYear(curDateTime.date, nextVal);
 754:Generated_Source\PSoC4/RTC.c ****         }
 755:Generated_Source\PSoC4/RTC.c **** 
 756:Generated_Source\PSoC4/RTC.c ****         return(RTC_DateTimeToUnix(curDateTime.date, curDateTime.time));
 757:Generated_Source\PSoC4/RTC.c ****     }
 758:Generated_Source\PSoC4/RTC.c **** 
 759:Generated_Source\PSoC4/RTC.c **** 
 760:Generated_Source\PSoC4/RTC.c ****     /*******************************************************************************
 761:Generated_Source\PSoC4/RTC.c ****     * Function Name: RTC_ConstructUnixAlarmTime
 762:Generated_Source\PSoC4/RTC.c ****     ****************************************************************************//**
 763:Generated_Source\PSoC4/RTC.c ****     *
 764:Generated_Source\PSoC4/RTC.c ****     * \brief
 765:Generated_Source\PSoC4/RTC.c ****     *  This is an internal function that calculates the time of the first alarm
 766:Generated_Source\PSoC4/RTC.c ****     *  in the UNIX format taking into account the current "Alarm Config Mask".
 767:Generated_Source\PSoC4/RTC.c ****     *
 768:Generated_Source\PSoC4/RTC.c ****     * \param
 769:Generated_Source\PSoC4/RTC.c ****     *  alarmTime Desired alarm time in the regular time format.
 770:Generated_Source\PSoC4/RTC.c ****     *
 771:Generated_Source\PSoC4/RTC.c ****     * \param
 772:Generated_Source\PSoC4/RTC.c ****     *  alarmCfgMask The current Alarm Config Mask.
 773:Generated_Source\PSoC4/RTC.c ****     *
 774:Generated_Source\PSoC4/RTC.c ****     * \return
 775:Generated_Source\PSoC4/RTC.c ****     *  time of the first alarm in the UNIX format.
 776:Generated_Source\PSoC4/RTC.c ****     *
 777:Generated_Source\PSoC4/RTC.c ****     *******************************************************************************/
 778:Generated_Source\PSoC4/RTC.c ****     uint64 RTC_ConstructUnixAlarmTime(const RTC_DATE_TIME* alarmTime, uint8 alarmCfgMask)
 779:Generated_Source\PSoC4/RTC.c ****     {
 780:Generated_Source\PSoC4/RTC.c ****         uint32 tmpCurVal;
 781:Generated_Source\PSoC4/RTC.c ****         uint32 tmpNextVal;
 782:Generated_Source\PSoC4/RTC.c ****         uint32 carryFlag;
 783:Generated_Source\PSoC4/RTC.c ****         uint32 tmpAlarmDate;
 784:Generated_Source\PSoC4/RTC.c ****         uint32 tmpAlarmTime;
 785:Generated_Source\PSoC4/RTC.c ****         uint32 daysInMonth;
 786:Generated_Source\PSoC4/RTC.c ****         RTC_DATE_TIME curDateTime;
 787:Generated_Source\PSoC4/RTC.c **** 
 788:Generated_Source\PSoC4/RTC.c ****         tmpAlarmDate = 0u;
 789:Generated_Source\PSoC4/RTC.c ****         tmpAlarmTime = 0u;
 790:Generated_Source\PSoC4/RTC.c ****         RTC_UnixToDateTime(&curDateTime, RTC_unixTime, (uint32)RTC_24_HOURS_FORMAT);
 791:Generated_Source\PSoC4/RTC.c **** 
 792:Generated_Source\PSoC4/RTC.c ****         /* Calculates Seconds value of first Alarm based on current time and Alarm Config Mask. */
 793:Generated_Source\PSoC4/RTC.c ****         tmpCurVal =  RTC_GetSecond(curDateTime.time);
 794:Generated_Source\PSoC4/RTC.c ****         tmpNextVal = RTC_GetSecond(alarmTime->time);
 795:Generated_Source\PSoC4/RTC.c ****         carryFlag = (tmpCurVal > tmpNextVal) ? 1u : 0u;
 796:Generated_Source\PSoC4/RTC.c ****         if(0u != ((~((uint32)alarmCfgMask)) & RTC_ALARM_SEC_MASK))
 797:Generated_Source\PSoC4/RTC.c ****         {
 798:Generated_Source\PSoC4/RTC.c ****             tmpNextVal = (0u != carryFlag) ? 0u : tmpCurVal;
 799:Generated_Source\PSoC4/RTC.c ****         }
 800:Generated_Source\PSoC4/RTC.c ****         tmpAlarmTime = RTC_SetSecond(tmpAlarmTime, tmpNextVal);
 801:Generated_Source\PSoC4/RTC.c **** 
 802:Generated_Source\PSoC4/RTC.c ****         /* Calculates Minutes value of first Alarm based on current time and Alarm Config Mask. */
 803:Generated_Source\PSoC4/RTC.c ****         tmpCurVal  = RTC_GetMinutes(curDateTime.time);
ARM GAS  C:\Users\okuntso\AppData\Local\Temp\ccSegaCM.s 			page 68


 804:Generated_Source\PSoC4/RTC.c ****         if(0u != ((~((uint32)alarmCfgMask)) & RTC_ALARM_MIN_MASK))
 805:Generated_Source\PSoC4/RTC.c ****         {
 806:Generated_Source\PSoC4/RTC.c ****             tmpNextVal = (0u != carryFlag) ? RTC_GetNextMinSec(tmpCurVal) : tmpCurVal;
 807:Generated_Source\PSoC4/RTC.c ****         }
 808:Generated_Source\PSoC4/RTC.c ****         else
 809:Generated_Source\PSoC4/RTC.c ****         {
 810:Generated_Source\PSoC4/RTC.c ****             tmpNextVal = RTC_GetMinutes(alarmTime->time);
 811:Generated_Source\PSoC4/RTC.c ****         }
 812:Generated_Source\PSoC4/RTC.c ****         carryFlag  = (tmpNextVal < tmpCurVal) ? 1u : 0u;
 813:Generated_Source\PSoC4/RTC.c ****         tmpAlarmTime =  RTC_SetMinutes(tmpAlarmTime, tmpNextVal);
 814:Generated_Source\PSoC4/RTC.c **** 
 815:Generated_Source\PSoC4/RTC.c ****         /* Calculates Hours value of first Alarm based on current time and Alarm Config Mask. */
 816:Generated_Source\PSoC4/RTC.c ****         tmpCurVal  = RTC_GetHours(curDateTime.time);
 817:Generated_Source\PSoC4/RTC.c ****         if(0u != ((~((uint32)alarmCfgMask)) & RTC_ALARM_HOUR_MASK))
 818:Generated_Source\PSoC4/RTC.c ****         {
 819:Generated_Source\PSoC4/RTC.c ****             tmpNextVal = (0u != carryFlag) ? RTC_GetNextHour(tmpCurVal) : tmpCurVal;
 820:Generated_Source\PSoC4/RTC.c ****         }
 821:Generated_Source\PSoC4/RTC.c ****         else
 822:Generated_Source\PSoC4/RTC.c ****         {
 823:Generated_Source\PSoC4/RTC.c ****             tmpNextVal = RTC_GetHours(alarmTime->time);
 824:Generated_Source\PSoC4/RTC.c ****             if((uint32)RTC_24_HOURS_FORMAT != RTC_GetTimeFormat(alarmTime->time))
 825:Generated_Source\PSoC4/RTC.c ****             {
 826:Generated_Source\PSoC4/RTC.c ****                 if((uint32)RTC_AM != RTC_GetAmPm(alarmTime->time))
 827:Generated_Source\PSoC4/RTC.c ****                 {
 828:Generated_Source\PSoC4/RTC.c ****                     tmpNextVal += RTC_HOURS_PER_HALF_DAY;
 829:Generated_Source\PSoC4/RTC.c ****                 }
 830:Generated_Source\PSoC4/RTC.c ****             }
 831:Generated_Source\PSoC4/RTC.c ****         }
 832:Generated_Source\PSoC4/RTC.c ****         carryFlag  = (tmpNextVal < tmpCurVal) ? 1u : 0u;
 833:Generated_Source\PSoC4/RTC.c ****         tmpAlarmTime =  RTC_SetHours(tmpAlarmTime, tmpNextVal);
 834:Generated_Source\PSoC4/RTC.c **** 
 835:Generated_Source\PSoC4/RTC.c ****         /* Calculates Day value of first Alarm based on current time and Alarm Config Mask. */
 836:Generated_Source\PSoC4/RTC.c ****         tmpCurVal  = RTC_GetDay(curDateTime.date);
 837:Generated_Source\PSoC4/RTC.c ****         tmpNextVal = RTC_GetDay(alarmTime->date);
 838:Generated_Source\PSoC4/RTC.c ****         if(0u != ((~((uint32)alarmCfgMask)) & RTC_ALARM_DAYOFMONTH_MASK))
 839:Generated_Source\PSoC4/RTC.c ****         {
 840:Generated_Source\PSoC4/RTC.c ****             if(0u != (alarmCfgMask & RTC_ALARM_DAYOFWEEK_MASK))
 841:Generated_Source\PSoC4/RTC.c ****             {
 842:Generated_Source\PSoC4/RTC.c ****                 daysInMonth = RTC_DaysInMonth(RTC_GetMonth(curDateTime.date),
 843:Generated_Source\PSoC4/RTC.c ****                                                            RTC_GetYear(curDateTime.date));
 844:Generated_Source\PSoC4/RTC.c ****                 tmpNextVal = (curDateTime.dayOfWeek <= alarmTime->dayOfWeek) ? (alarmTime->dayOfWee
 845:Generated_Source\PSoC4/RTC.c ****                                 ((RTC_DAYS_PER_WEEK - curDateTime.dayOfWeek) + alarmTime->dayOfWeek
 846:Generated_Source\PSoC4/RTC.c ****                 tmpNextVal = tmpCurVal + tmpNextVal;
 847:Generated_Source\PSoC4/RTC.c ****                 tmpNextVal = (tmpNextVal > daysInMonth) ? (tmpNextVal - daysInMonth) : tmpNextVal;
 848:Generated_Source\PSoC4/RTC.c ****             }
 849:Generated_Source\PSoC4/RTC.c ****             else
 850:Generated_Source\PSoC4/RTC.c ****             {
 851:Generated_Source\PSoC4/RTC.c ****                 tmpNextVal = (0u == carryFlag) ? tmpCurVal : RTC_GetNextDay(RTC_GetYear(curDateTime
 852:Generated_Source\PSoC4/RTC.c ****                                                               RTC_GetMonth(curDateTime.date),
 853:Generated_Source\PSoC4/RTC.c ****                                                                tmpCurVal,
 854:Generated_Source\PSoC4/RTC.c ****                                                               RTC_ALARM_DAYOFMONTH_MASK);
 855:Generated_Source\PSoC4/RTC.c ****             }
 856:Generated_Source\PSoC4/RTC.c ****         }
 857:Generated_Source\PSoC4/RTC.c ****         carryFlag  = (tmpNextVal < tmpCurVal) ? 1u : 0u;
 858:Generated_Source\PSoC4/RTC.c ****         tmpAlarmDate =  RTC_SetDay(tmpAlarmDate, tmpNextVal);
 859:Generated_Source\PSoC4/RTC.c **** 
 860:Generated_Source\PSoC4/RTC.c ****         /* Calculates Month value of first Alarm based on current time and Alarm Config Mask. */
ARM GAS  C:\Users\okuntso\AppData\Local\Temp\ccSegaCM.s 			page 69


 861:Generated_Source\PSoC4/RTC.c ****         tmpCurVal  = RTC_GetMonth(curDateTime.date);
 862:Generated_Source\PSoC4/RTC.c ****         if(0u != ((~((uint32)alarmCfgMask)) & RTC_ALARM_MONTH_MASK))
 863:Generated_Source\PSoC4/RTC.c ****         {
 864:Generated_Source\PSoC4/RTC.c ****             tmpNextVal = (0u != carryFlag) ? RTC_GetNextMonth(tmpCurVal) : tmpCurVal;
 865:Generated_Source\PSoC4/RTC.c ****         }
 866:Generated_Source\PSoC4/RTC.c ****         else
 867:Generated_Source\PSoC4/RTC.c ****         {
 868:Generated_Source\PSoC4/RTC.c ****             tmpNextVal = RTC_GetMonth(alarmTime->date);
 869:Generated_Source\PSoC4/RTC.c ****         }
 870:Generated_Source\PSoC4/RTC.c ****         carryFlag  = (tmpNextVal < tmpCurVal) ? 1u : 0u;
 871:Generated_Source\PSoC4/RTC.c ****         tmpAlarmDate =  RTC_SetMonth(tmpAlarmDate, tmpNextVal);
 872:Generated_Source\PSoC4/RTC.c **** 
 873:Generated_Source\PSoC4/RTC.c ****         /* Calculates Year value of first Alarm based on current time and Alarm Config Mask. */
 874:Generated_Source\PSoC4/RTC.c ****         tmpCurVal  = RTC_GetYear(curDateTime.date);
 875:Generated_Source\PSoC4/RTC.c ****         if(0u != ((~((uint32)alarmCfgMask)) & RTC_ALARM_MONTH_MASK))
 876:Generated_Source\PSoC4/RTC.c ****         {
 877:Generated_Source\PSoC4/RTC.c ****             tmpNextVal = (0u != carryFlag) ? RTC_GetNextYear(tmpCurVal) : tmpCurVal;
 878:Generated_Source\PSoC4/RTC.c ****         }
 879:Generated_Source\PSoC4/RTC.c ****         else
 880:Generated_Source\PSoC4/RTC.c ****         {
 881:Generated_Source\PSoC4/RTC.c ****             tmpNextVal = RTC_GetYear(alarmTime->date);
 882:Generated_Source\PSoC4/RTC.c ****         }
 883:Generated_Source\PSoC4/RTC.c ****         tmpAlarmDate =  RTC_SetYear(tmpAlarmDate, tmpNextVal);
 884:Generated_Source\PSoC4/RTC.c **** 
 885:Generated_Source\PSoC4/RTC.c ****         return(RTC_DateTimeToUnix(tmpAlarmDate, tmpAlarmTime));
 886:Generated_Source\PSoC4/RTC.c ****     }
 887:Generated_Source\PSoC4/RTC.c **** #endif/* (0u != RTC_INITIAL_ALARM_STATUS) */
 888:Generated_Source\PSoC4/RTC.c **** 
 889:Generated_Source\PSoC4/RTC.c **** 
 890:Generated_Source\PSoC4/RTC.c **** /*******************************************************************************
 891:Generated_Source\PSoC4/RTC.c **** * Function Name: RTC_ReadStatus
 892:Generated_Source\PSoC4/RTC.c **** ****************************************************************************//**
 893:Generated_Source\PSoC4/RTC.c **** *
 894:Generated_Source\PSoC4/RTC.c **** * \brief
 895:Generated_Source\PSoC4/RTC.c **** * Reads the Status software register, which has flags for DST (DST),
 896:Generated_Source\PSoC4/RTC.c **** * Leap Year (LY), AM/PM (AM_PM).
 897:Generated_Source\PSoC4/RTC.c **** *
 898:Generated_Source\PSoC4/RTC.c **** * \return
 899:Generated_Source\PSoC4/RTC.c **** * The values shown below are OR'ed and returned if more than one status
 900:Generated_Source\PSoC4/RTC.c **** * bits are set.
 901:Generated_Source\PSoC4/RTC.c **** *
 902:Generated_Source\PSoC4/RTC.c **** * \return
 903:Generated_Source\PSoC4/RTC.c **** * RTC_STATUS_DST - Status of Daylight Saving Time. This bit
 904:Generated_Source\PSoC4/RTC.c **** * goes high when the current time and date match the DST time and date and the 
 905:Generated_Source\PSoC4/RTC.c **** * time is incremented. This bit goes low after the DST interval and the time is 
 906:Generated_Source\PSoC4/RTC.c **** * decremented.
 907:Generated_Source\PSoC4/RTC.c **** *
 908:Generated_Source\PSoC4/RTC.c **** * \return
 909:Generated_Source\PSoC4/RTC.c **** * RTC_STATUS_LY - Status of Leap Year. This bit goes high when the 
 910:Generated_Source\PSoC4/RTC.c **** * current year is a leap year.
 911:Generated_Source\PSoC4/RTC.c **** *
 912:Generated_Source\PSoC4/RTC.c **** * \return
 913:Generated_Source\PSoC4/RTC.c **** * RTC_STATUS_AM_PM - Status of Current Time. This bit is low from 
 914:Generated_Source\PSoC4/RTC.c **** * midnight to noon and high from noon to midnight.
 915:Generated_Source\PSoC4/RTC.c **** *
 916:Generated_Source\PSoC4/RTC.c **** * \note
 917:Generated_Source\PSoC4/RTC.c **** * Reading the status without sync with the date and time read may cause an
ARM GAS  C:\Users\okuntso\AppData\Local\Temp\ccSegaCM.s 			page 70


 918:Generated_Source\PSoC4/RTC.c **** * error due to a roll-over at AM/PM, the end of a year, the end of a day;
 919:Generated_Source\PSoC4/RTC.c **** * RTC_GetDateAndTime() API is used to obtain the status and
 920:Generated_Source\PSoC4/RTC.c **** * the status member of the returned structure can be checked with the masks.
 921:Generated_Source\PSoC4/RTC.c **** *
 922:Generated_Source\PSoC4/RTC.c **** *******************************************************************************/
 923:Generated_Source\PSoC4/RTC.c **** uint32 RTC_ReadStatus(void)
 924:Generated_Source\PSoC4/RTC.c **** {
 1798              		.loc 2 924 0
 1799              		.cfi_startproc
 1800              		@ args = 0, pretend = 0, frame = 24
 1801              		@ frame_needed = 1, uses_anonymous_args = 0
 1802 0000 80B5     		push	{r7, lr}
 1803              		.cfi_def_cfa_offset 8
 1804              		.cfi_offset 7, -8
 1805              		.cfi_offset 14, -4
 1806 0002 86B0     		sub	sp, sp, #24
 1807              		.cfi_def_cfa_offset 32
 1808 0004 00AF     		add	r7, sp, #0
 1809              		.cfi_def_cfa_register 7
 925:Generated_Source\PSoC4/RTC.c ****     uint32 tmpYear;
 926:Generated_Source\PSoC4/RTC.c ****     RTC_DATE_TIME tmpTimeDate;
 927:Generated_Source\PSoC4/RTC.c **** 
 928:Generated_Source\PSoC4/RTC.c ****     RTC_GetDateAndTime(&tmpTimeDate);
 1810              		.loc 2 928 0
 1811 0006 3B1D     		adds	r3, r7, #4
 1812 0008 1800     		movs	r0, r3
 1813 000a FFF7FEFF 		bl	RTC_GetDateAndTime
 929:Generated_Source\PSoC4/RTC.c ****     tmpYear = RTC_GetYear(tmpTimeDate.date);
 1814              		.loc 2 929 0
 1815 000e 3B1D     		adds	r3, r7, #4
 1816 0010 5B68     		ldr	r3, [r3, #4]
 1817 0012 1800     		movs	r0, r3
 1818 0014 FFF7FEFF 		bl	RTC_GetYear
 1819 0018 0300     		movs	r3, r0
 1820 001a 7B61     		str	r3, [r7, #20]
 930:Generated_Source\PSoC4/RTC.c **** 
 931:Generated_Source\PSoC4/RTC.c ****     if(0uL != RTC_LeapYear(tmpYear))
 1821              		.loc 2 931 0
 1822 001c 7B69     		ldr	r3, [r7, #20]
 1823 001e 1800     		movs	r0, r3
 1824 0020 FFF7FEFF 		bl	RTC_LeapYear
 1825 0024 031E     		subs	r3, r0, #0
 1826 0026 06D0     		beq	.L96
 932:Generated_Source\PSoC4/RTC.c ****     {
 933:Generated_Source\PSoC4/RTC.c ****         RTC_currentTimeDate.status |= (1uL << RTC_STATUS_LY_OFFSET);
 1827              		.loc 2 933 0
 1828 0028 144B     		ldr	r3, .L101
 1829 002a DB68     		ldr	r3, [r3, #12]
 1830 002c 0822     		movs	r2, #8
 1831 002e 1A43     		orrs	r2, r3
 1832 0030 124B     		ldr	r3, .L101
 1833 0032 DA60     		str	r2, [r3, #12]
 1834 0034 06E0     		b	.L97
 1835              	.L96:
 934:Generated_Source\PSoC4/RTC.c ****     }
 935:Generated_Source\PSoC4/RTC.c ****     else
 936:Generated_Source\PSoC4/RTC.c ****     {
ARM GAS  C:\Users\okuntso\AppData\Local\Temp\ccSegaCM.s 			page 71


 937:Generated_Source\PSoC4/RTC.c ****         RTC_currentTimeDate.status &= ~(1uL << RTC_STATUS_LY_OFFSET);
 1836              		.loc 2 937 0
 1837 0036 114B     		ldr	r3, .L101
 1838 0038 DB68     		ldr	r3, [r3, #12]
 1839 003a 0822     		movs	r2, #8
 1840 003c 9343     		bics	r3, r2
 1841 003e 1A00     		movs	r2, r3
 1842 0040 0E4B     		ldr	r3, .L101
 1843 0042 DA60     		str	r2, [r3, #12]
 1844              	.L97:
 938:Generated_Source\PSoC4/RTC.c ****     }
 939:Generated_Source\PSoC4/RTC.c **** 
 940:Generated_Source\PSoC4/RTC.c **** 
 941:Generated_Source\PSoC4/RTC.c ****     if(0uL != RTC_GetAmPm(tmpTimeDate.time))
 1845              		.loc 2 941 0
 1846 0044 3B1D     		adds	r3, r7, #4
 1847 0046 1B68     		ldr	r3, [r3]
 1848 0048 1800     		movs	r0, r3
 1849 004a FFF7FEFF 		bl	RTC_GetAmPm
 1850 004e 031E     		subs	r3, r0, #0
 1851 0050 06D0     		beq	.L98
 942:Generated_Source\PSoC4/RTC.c ****     {
 943:Generated_Source\PSoC4/RTC.c ****         RTC_currentTimeDate.status |= (1uL << RTC_STATUS_AM_PM_OFFSET);
 1852              		.loc 2 943 0
 1853 0052 0A4B     		ldr	r3, .L101
 1854 0054 DB68     		ldr	r3, [r3, #12]
 1855 0056 1022     		movs	r2, #16
 1856 0058 1A43     		orrs	r2, r3
 1857 005a 084B     		ldr	r3, .L101
 1858 005c DA60     		str	r2, [r3, #12]
 1859 005e 06E0     		b	.L99
 1860              	.L98:
 944:Generated_Source\PSoC4/RTC.c ****     }
 945:Generated_Source\PSoC4/RTC.c ****     else
 946:Generated_Source\PSoC4/RTC.c ****     {
 947:Generated_Source\PSoC4/RTC.c ****         RTC_currentTimeDate.status &= ~(1uL << RTC_STATUS_AM_PM_OFFSET);
 1861              		.loc 2 947 0
 1862 0060 064B     		ldr	r3, .L101
 1863 0062 DB68     		ldr	r3, [r3, #12]
 1864 0064 1022     		movs	r2, #16
 1865 0066 9343     		bics	r3, r2
 1866 0068 1A00     		movs	r2, r3
 1867 006a 044B     		ldr	r3, .L101
 1868 006c DA60     		str	r2, [r3, #12]
 1869              	.L99:
 948:Generated_Source\PSoC4/RTC.c ****     }
 949:Generated_Source\PSoC4/RTC.c **** 
 950:Generated_Source\PSoC4/RTC.c ****     return(RTC_currentTimeDate.status);
 1870              		.loc 2 950 0
 1871 006e 034B     		ldr	r3, .L101
 1872 0070 DB68     		ldr	r3, [r3, #12]
 951:Generated_Source\PSoC4/RTC.c **** }
 1873              		.loc 2 951 0
 1874 0072 1800     		movs	r0, r3
 1875 0074 BD46     		mov	sp, r7
 1876 0076 06B0     		add	sp, sp, #24
 1877              		@ sp needed
ARM GAS  C:\Users\okuntso\AppData\Local\Temp\ccSegaCM.s 			page 72


 1878 0078 80BD     		pop	{r7, pc}
 1879              	.L102:
 1880 007a C046     		.align	2
 1881              	.L101:
 1882 007c 00000000 		.word	RTC_currentTimeDate
 1883              		.cfi_endproc
 1884              	.LFE38:
 1885              		.size	RTC_ReadStatus, .-RTC_ReadStatus
 1886              		.section	.text.RTC_SetDSTStartTime,"ax",%progbits
 1887              		.align	2
 1888              		.global	RTC_SetDSTStartTime
 1889              		.code	16
 1890              		.thumb_func
 1891              		.type	RTC_SetDSTStartTime, %function
 1892              	RTC_SetDSTStartTime:
 1893              	.LFB39:
 952:Generated_Source\PSoC4/RTC.c **** 
 953:Generated_Source\PSoC4/RTC.c **** 
 954:Generated_Source\PSoC4/RTC.c **** #if(0u != RTC_INITIAL_DST_STATUS)
 955:Generated_Source\PSoC4/RTC.c ****     /*******************************************************************************
 956:Generated_Source\PSoC4/RTC.c ****     * Function Name: RTC_SetDSTStartTime
 957:Generated_Source\PSoC4/RTC.c ****     ****************************************************************************//**
 958:Generated_Source\PSoC4/RTC.c ****     *
 959:Generated_Source\PSoC4/RTC.c ****     * \brief
 960:Generated_Source\PSoC4/RTC.c ****     *  Stores the DST Start time.
 961:Generated_Source\PSoC4/RTC.c ****     *
 962:Generated_Source\PSoC4/RTC.c ****     *  Only generated if DST is enabled. The date passed can be relative or fixed. 
 963:Generated_Source\PSoC4/RTC.c ****     *  For a relative date, the user needs to provide a valid day of a week, a 
 964:Generated_Source\PSoC4/RTC.c ****     *  week of a month and a month in the dstStartTime structure.
 965:Generated_Source\PSoC4/RTC.c ****     *  For a fixed date, the user needs to enter a valid day of a month and a month in
 966:Generated_Source\PSoC4/RTC.c ****     *  the dstStartTime structure. The hour value is optional and if invalid
 967:Generated_Source\PSoC4/RTC.c ****     *  taken as 00 hrs. Invalid entries are not stored and the DST start date
 968:Generated_Source\PSoC4/RTC.c ****     *  retains a previous value or no value at all.
 969:Generated_Source\PSoC4/RTC.c ****     *
 970:Generated_Source\PSoC4/RTC.c ****     * \param
 971:Generated_Source\PSoC4/RTC.c ****     *  dstStartTime The DST Start time register value.
 972:Generated_Source\PSoC4/RTC.c ****     *
 973:Generated_Source\PSoC4/RTC.c ****     * \param
 974:Generated_Source\PSoC4/RTC.c ****     *  type Defines the DST operation mode <br>
 975:Generated_Source\PSoC4/RTC.c ****     *  DST_DATE_RELATIVE - The DST start time is relative. <br>
 976:Generated_Source\PSoC4/RTC.c ****     *  DST_DATE_FIXED - The DST start time is fixed.
 977:Generated_Source\PSoC4/RTC.c ****     *
 978:Generated_Source\PSoC4/RTC.c ****     *******************************************************************************/
 979:Generated_Source\PSoC4/RTC.c ****     void RTC_SetDSTStartTime(const RTC_DST_TIME* dstStartTime,
 980:Generated_Source\PSoC4/RTC.c ****                                                 RTC_DST_DATETYPE_ENUM type)
 981:Generated_Source\PSoC4/RTC.c ****     {
 1894              		.loc 2 981 0
 1895              		.cfi_startproc
 1896              		@ args = 0, pretend = 0, frame = 8
 1897              		@ frame_needed = 1, uses_anonymous_args = 0
 1898 0000 90B5     		push	{r4, r7, lr}
 1899              		.cfi_def_cfa_offset 12
 1900              		.cfi_offset 4, -12
 1901              		.cfi_offset 7, -8
 1902              		.cfi_offset 14, -4
 1903 0002 83B0     		sub	sp, sp, #12
 1904              		.cfi_def_cfa_offset 24
ARM GAS  C:\Users\okuntso\AppData\Local\Temp\ccSegaCM.s 			page 73


 1905 0004 00AF     		add	r7, sp, #0
 1906              		.cfi_def_cfa_register 7
 1907 0006 7860     		str	r0, [r7, #4]
 1908 0008 0A00     		movs	r2, r1
 1909 000a FB1C     		adds	r3, r7, #3
 1910 000c 1A70     		strb	r2, [r3]
 982:Generated_Source\PSoC4/RTC.c ****         RTC_dstStartTime.timeFormat    = (uint8)type;
 1911              		.loc 2 982 0
 1912 000e 244B     		ldr	r3, .L110
 1913 0010 FA1C     		adds	r2, r7, #3
 1914 0012 1278     		ldrb	r2, [r2]
 1915 0014 1A75     		strb	r2, [r3, #20]
 983:Generated_Source\PSoC4/RTC.c ****         RTC_dstStartTime.hour          = dstStartTime->hour;
 1916              		.loc 2 983 0
 1917 0016 7B68     		ldr	r3, [r7, #4]
 1918 0018 1A68     		ldr	r2, [r3]
 1919 001a 214B     		ldr	r3, .L110
 1920 001c 1A60     		str	r2, [r3]
 984:Generated_Source\PSoC4/RTC.c ****         RTC_dstStartTime.dayOfWeek     = dstStartTime->dayOfWeek;
 1921              		.loc 2 984 0
 1922 001e 7B68     		ldr	r3, [r7, #4]
 1923 0020 5A68     		ldr	r2, [r3, #4]
 1924 0022 1F4B     		ldr	r3, .L110
 1925 0024 5A60     		str	r2, [r3, #4]
 985:Generated_Source\PSoC4/RTC.c ****         RTC_dstStartTime.weekOfMonth   = dstStartTime->weekOfMonth;
 1926              		.loc 2 985 0
 1927 0026 7B68     		ldr	r3, [r7, #4]
 1928 0028 DA68     		ldr	r2, [r3, #12]
 1929 002a 1D4B     		ldr	r3, .L110
 1930 002c DA60     		str	r2, [r3, #12]
 986:Generated_Source\PSoC4/RTC.c ****         RTC_dstStartTime.dayOfMonth    = dstStartTime->dayOfMonth;
 1931              		.loc 2 986 0
 1932 002e 7B68     		ldr	r3, [r7, #4]
 1933 0030 9A68     		ldr	r2, [r3, #8]
 1934 0032 1B4B     		ldr	r3, .L110
 1935 0034 9A60     		str	r2, [r3, #8]
 987:Generated_Source\PSoC4/RTC.c ****         RTC_dstStartTime.month         = dstStartTime->month;
 1936              		.loc 2 987 0
 1937 0036 7B68     		ldr	r3, [r7, #4]
 1938 0038 1A69     		ldr	r2, [r3, #16]
 1939 003a 194B     		ldr	r3, .L110
 1940 003c 1A61     		str	r2, [r3, #16]
 988:Generated_Source\PSoC4/RTC.c **** 
 989:Generated_Source\PSoC4/RTC.c ****         RTC_unixTimeDstStart = RTC_GetDstUnixTime(&RTC_dstStartTime);
 1941              		.loc 2 989 0
 1942 003e 184B     		ldr	r3, .L110
 1943 0040 1800     		movs	r0, r3
 1944 0042 FFF7FEFF 		bl	RTC_GetDstUnixTime
 1945 0046 0300     		movs	r3, r0
 1946 0048 0C00     		movs	r4, r1
 1947 004a 164A     		ldr	r2, .L110+4
 1948 004c 1360     		str	r3, [r2]
 1949 004e 5460     		str	r4, [r2, #4]
 990:Generated_Source\PSoC4/RTC.c **** 
 991:Generated_Source\PSoC4/RTC.c ****         if((RTC_unixTime >= RTC_unixTimeDstStart) &&
 1950              		.loc 2 991 0
 1951 0050 154B     		ldr	r3, .L110+8
ARM GAS  C:\Users\okuntso\AppData\Local\Temp\ccSegaCM.s 			page 74


 1952 0052 5C68     		ldr	r4, [r3, #4]
 1953 0054 1B68     		ldr	r3, [r3]
 1954 0056 134A     		ldr	r2, .L110+4
 1955 0058 1168     		ldr	r1, [r2]
 1956 005a 5268     		ldr	r2, [r2, #4]
 1957 005c A242     		cmp	r2, r4
 1958 005e 15D8     		bhi	.L104
 1959 0060 01D1     		bne	.L108
 1960 0062 9942     		cmp	r1, r3
 1961 0064 12D8     		bhi	.L104
 1962              	.L108:
 992:Generated_Source\PSoC4/RTC.c ****            (RTC_unixTime <= RTC_unixTimeDstStop))
 1963              		.loc 2 992 0 discriminator 1
 1964 0066 104B     		ldr	r3, .L110+8
 1965 0068 1968     		ldr	r1, [r3]
 1966 006a 5A68     		ldr	r2, [r3, #4]
 1967 006c 0F4B     		ldr	r3, .L110+12
 1968 006e 5C68     		ldr	r4, [r3, #4]
 1969 0070 1B68     		ldr	r3, [r3]
 991:Generated_Source\PSoC4/RTC.c ****            (RTC_unixTime <= RTC_unixTimeDstStop))
 1970              		.loc 2 991 0 discriminator 1
 1971 0072 A242     		cmp	r2, r4
 1972 0074 0AD8     		bhi	.L104
 1973 0076 01D1     		bne	.L109
 1974 0078 9942     		cmp	r1, r3
 1975 007a 07D8     		bhi	.L104
 1976              	.L109:
 993:Generated_Source\PSoC4/RTC.c ****         {
 994:Generated_Source\PSoC4/RTC.c ****             RTC_dstStatus = 1u;
 1977              		.loc 2 994 0
 1978 007c 0C4B     		ldr	r3, .L110+16
 1979 007e 0122     		movs	r2, #1
 1980 0080 1A70     		strb	r2, [r3]
 995:Generated_Source\PSoC4/RTC.c ****             RTC_dstTimeOffset = RTC_SECONDS_PER_HOUR;
 1981              		.loc 2 995 0
 1982 0082 0C4B     		ldr	r3, .L110+20
 1983 0084 E122     		movs	r2, #225
 1984 0086 1201     		lsls	r2, r2, #4
 1985 0088 1A60     		str	r2, [r3]
 1986 008a 05E0     		b	.L107
 1987              	.L104:
 996:Generated_Source\PSoC4/RTC.c ****         }
 997:Generated_Source\PSoC4/RTC.c ****         else
 998:Generated_Source\PSoC4/RTC.c ****         {
 999:Generated_Source\PSoC4/RTC.c ****             RTC_dstStatus = 0u;
 1988              		.loc 2 999 0
 1989 008c 084B     		ldr	r3, .L110+16
 1990 008e 0022     		movs	r2, #0
 1991 0090 1A70     		strb	r2, [r3]
1000:Generated_Source\PSoC4/RTC.c ****             RTC_dstTimeOffset = 0uL;
 1992              		.loc 2 1000 0
 1993 0092 084B     		ldr	r3, .L110+20
 1994 0094 0022     		movs	r2, #0
 1995 0096 1A60     		str	r2, [r3]
 1996              	.L107:
1001:Generated_Source\PSoC4/RTC.c ****         }
1002:Generated_Source\PSoC4/RTC.c ****     }
ARM GAS  C:\Users\okuntso\AppData\Local\Temp\ccSegaCM.s 			page 75


 1997              		.loc 2 1002 0
 1998 0098 C046     		nop
 1999 009a BD46     		mov	sp, r7
 2000 009c 03B0     		add	sp, sp, #12
 2001              		@ sp needed
 2002 009e 90BD     		pop	{r4, r7, pc}
 2003              	.L111:
 2004              		.align	2
 2005              	.L110:
 2006 00a0 00000000 		.word	RTC_dstStartTime
 2007 00a4 10000000 		.word	RTC_unixTimeDstStart
 2008 00a8 00000000 		.word	RTC_unixTime
 2009 00ac 18000000 		.word	RTC_unixTimeDstStop
 2010 00b0 00000000 		.word	RTC_dstStatus
 2011 00b4 08000000 		.word	RTC_dstTimeOffset
 2012              		.cfi_endproc
 2013              	.LFE39:
 2014              		.size	RTC_SetDSTStartTime, .-RTC_SetDSTStartTime
 2015              		.section	.text.RTC_SetDSTStopTime,"ax",%progbits
 2016              		.align	2
 2017              		.global	RTC_SetDSTStopTime
 2018              		.code	16
 2019              		.thumb_func
 2020              		.type	RTC_SetDSTStopTime, %function
 2021              	RTC_SetDSTStopTime:
 2022              	.LFB40:
1003:Generated_Source\PSoC4/RTC.c **** 
1004:Generated_Source\PSoC4/RTC.c **** 
1005:Generated_Source\PSoC4/RTC.c ****     /*******************************************************************************
1006:Generated_Source\PSoC4/RTC.c ****     * Function Name: RTC_SetDSTStopTime
1007:Generated_Source\PSoC4/RTC.c ****     ****************************************************************************//**
1008:Generated_Source\PSoC4/RTC.c ****     *
1009:Generated_Source\PSoC4/RTC.c ****     * \brief
1010:Generated_Source\PSoC4/RTC.c ****     *  Stores the DST Stop time.
1011:Generated_Source\PSoC4/RTC.c ****     * 
1012:Generated_Source\PSoC4/RTC.c ****     *  Only generated if DST is enabled. The date passed can be relative or fixed. 
1013:Generated_Source\PSoC4/RTC.c ****     *  For a relative date, the user needs to provide a valid day of a week, a week 
1014:Generated_Source\PSoC4/RTC.c ****     *  of a month and a month in the dstStopTime structure.
1015:Generated_Source\PSoC4/RTC.c ****     *  For a fixed date, the user needs to enter a valid day of a month and a month in the
1016:Generated_Source\PSoC4/RTC.c ****     *  dstSoptTime structure. The hour value is optional and if invalid taken
1017:Generated_Source\PSoC4/RTC.c ****     *  as 00 hrs. Invalid entries are not stored and the DST start date retains
1018:Generated_Source\PSoC4/RTC.c ****     *  a previous value or no value at all.
1019:Generated_Source\PSoC4/RTC.c ****     *
1020:Generated_Source\PSoC4/RTC.c ****     * \param
1021:Generated_Source\PSoC4/RTC.c ****     *  dstStopTime DST Stop time register values.
1022:Generated_Source\PSoC4/RTC.c ****     *
1023:Generated_Source\PSoC4/RTC.c ****     * \param
1024:Generated_Source\PSoC4/RTC.c ****     *  type Defines the DST operation mode <br>
1025:Generated_Source\PSoC4/RTC.c ****     *  DST_DATE_RELATIVE - The DST start time is relative. <br>
1026:Generated_Source\PSoC4/RTC.c ****     *  DST_DATE_FIXED - The DST start time is fixed.
1027:Generated_Source\PSoC4/RTC.c ****     *
1028:Generated_Source\PSoC4/RTC.c ****     *******************************************************************************/
1029:Generated_Source\PSoC4/RTC.c ****     void RTC_SetDSTStopTime(const RTC_DST_TIME* dstStopTime,
1030:Generated_Source\PSoC4/RTC.c ****                                                RTC_DST_DATETYPE_ENUM type)
1031:Generated_Source\PSoC4/RTC.c ****     {
 2023              		.loc 2 1031 0
 2024              		.cfi_startproc
ARM GAS  C:\Users\okuntso\AppData\Local\Temp\ccSegaCM.s 			page 76


 2025              		@ args = 0, pretend = 0, frame = 8
 2026              		@ frame_needed = 1, uses_anonymous_args = 0
 2027 0000 90B5     		push	{r4, r7, lr}
 2028              		.cfi_def_cfa_offset 12
 2029              		.cfi_offset 4, -12
 2030              		.cfi_offset 7, -8
 2031              		.cfi_offset 14, -4
 2032 0002 83B0     		sub	sp, sp, #12
 2033              		.cfi_def_cfa_offset 24
 2034 0004 00AF     		add	r7, sp, #0
 2035              		.cfi_def_cfa_register 7
 2036 0006 7860     		str	r0, [r7, #4]
 2037 0008 0A00     		movs	r2, r1
 2038 000a FB1C     		adds	r3, r7, #3
 2039 000c 1A70     		strb	r2, [r3]
1032:Generated_Source\PSoC4/RTC.c **** 
1033:Generated_Source\PSoC4/RTC.c ****         RTC_dstStopTime.timeFormat  = (uint8)type;
 2040              		.loc 2 1033 0
 2041 000e 244B     		ldr	r3, .L119
 2042 0010 FA1C     		adds	r2, r7, #3
 2043 0012 1278     		ldrb	r2, [r2]
 2044 0014 1A75     		strb	r2, [r3, #20]
1034:Generated_Source\PSoC4/RTC.c ****         RTC_dstStopTime.hour           = dstStopTime->hour;
 2045              		.loc 2 1034 0
 2046 0016 7B68     		ldr	r3, [r7, #4]
 2047 0018 1A68     		ldr	r2, [r3]
 2048 001a 214B     		ldr	r3, .L119
 2049 001c 1A60     		str	r2, [r3]
1035:Generated_Source\PSoC4/RTC.c ****         RTC_dstStopTime.dayOfWeek      = dstStopTime->dayOfWeek;
 2050              		.loc 2 1035 0
 2051 001e 7B68     		ldr	r3, [r7, #4]
 2052 0020 5A68     		ldr	r2, [r3, #4]
 2053 0022 1F4B     		ldr	r3, .L119
 2054 0024 5A60     		str	r2, [r3, #4]
1036:Generated_Source\PSoC4/RTC.c ****         RTC_dstStopTime.weekOfMonth = dstStopTime->weekOfMonth;
 2055              		.loc 2 1036 0
 2056 0026 7B68     		ldr	r3, [r7, #4]
 2057 0028 DA68     		ldr	r2, [r3, #12]
 2058 002a 1D4B     		ldr	r3, .L119
 2059 002c DA60     		str	r2, [r3, #12]
1037:Generated_Source\PSoC4/RTC.c ****         RTC_dstStopTime.dayOfMonth     = dstStopTime->dayOfMonth;
 2060              		.loc 2 1037 0
 2061 002e 7B68     		ldr	r3, [r7, #4]
 2062 0030 9A68     		ldr	r2, [r3, #8]
 2063 0032 1B4B     		ldr	r3, .L119
 2064 0034 9A60     		str	r2, [r3, #8]
1038:Generated_Source\PSoC4/RTC.c ****         RTC_dstStopTime.month         = dstStopTime->month;
 2065              		.loc 2 1038 0
 2066 0036 7B68     		ldr	r3, [r7, #4]
 2067 0038 1A69     		ldr	r2, [r3, #16]
 2068 003a 194B     		ldr	r3, .L119
 2069 003c 1A61     		str	r2, [r3, #16]
1039:Generated_Source\PSoC4/RTC.c **** 
1040:Generated_Source\PSoC4/RTC.c ****         RTC_unixTimeDstStop  = RTC_GetDstUnixTime(&RTC_dstStopTime);
 2070              		.loc 2 1040 0
 2071 003e 184B     		ldr	r3, .L119
 2072 0040 1800     		movs	r0, r3
ARM GAS  C:\Users\okuntso\AppData\Local\Temp\ccSegaCM.s 			page 77


 2073 0042 FFF7FEFF 		bl	RTC_GetDstUnixTime
 2074 0046 0300     		movs	r3, r0
 2075 0048 0C00     		movs	r4, r1
 2076 004a 164A     		ldr	r2, .L119+4
 2077 004c 1360     		str	r3, [r2]
 2078 004e 5460     		str	r4, [r2, #4]
1041:Generated_Source\PSoC4/RTC.c **** 
1042:Generated_Source\PSoC4/RTC.c ****         if((RTC_unixTime >= RTC_unixTimeDstStart) &&
 2079              		.loc 2 1042 0
 2080 0050 154B     		ldr	r3, .L119+8
 2081 0052 5C68     		ldr	r4, [r3, #4]
 2082 0054 1B68     		ldr	r3, [r3]
 2083 0056 154A     		ldr	r2, .L119+12
 2084 0058 1168     		ldr	r1, [r2]
 2085 005a 5268     		ldr	r2, [r2, #4]
 2086 005c A242     		cmp	r2, r4
 2087 005e 15D8     		bhi	.L113
 2088 0060 01D1     		bne	.L117
 2089 0062 9942     		cmp	r1, r3
 2090 0064 12D8     		bhi	.L113
 2091              	.L117:
1043:Generated_Source\PSoC4/RTC.c ****            (RTC_unixTime <= RTC_unixTimeDstStop))
 2092              		.loc 2 1043 0 discriminator 1
 2093 0066 104B     		ldr	r3, .L119+8
 2094 0068 1968     		ldr	r1, [r3]
 2095 006a 5A68     		ldr	r2, [r3, #4]
 2096 006c 0D4B     		ldr	r3, .L119+4
 2097 006e 5C68     		ldr	r4, [r3, #4]
 2098 0070 1B68     		ldr	r3, [r3]
1042:Generated_Source\PSoC4/RTC.c ****            (RTC_unixTime <= RTC_unixTimeDstStop))
 2099              		.loc 2 1042 0 discriminator 1
 2100 0072 A242     		cmp	r2, r4
 2101 0074 0AD8     		bhi	.L113
 2102 0076 01D1     		bne	.L118
 2103 0078 9942     		cmp	r1, r3
 2104 007a 07D8     		bhi	.L113
 2105              	.L118:
1044:Generated_Source\PSoC4/RTC.c ****         {
1045:Generated_Source\PSoC4/RTC.c ****             RTC_dstStatus = 1u;
 2106              		.loc 2 1045 0
 2107 007c 0C4B     		ldr	r3, .L119+16
 2108 007e 0122     		movs	r2, #1
 2109 0080 1A70     		strb	r2, [r3]
1046:Generated_Source\PSoC4/RTC.c ****             RTC_dstTimeOffset = RTC_SECONDS_PER_HOUR;
 2110              		.loc 2 1046 0
 2111 0082 0C4B     		ldr	r3, .L119+20
 2112 0084 E122     		movs	r2, #225
 2113 0086 1201     		lsls	r2, r2, #4
 2114 0088 1A60     		str	r2, [r3]
 2115 008a 05E0     		b	.L116
 2116              	.L113:
1047:Generated_Source\PSoC4/RTC.c ****         }
1048:Generated_Source\PSoC4/RTC.c ****         else
1049:Generated_Source\PSoC4/RTC.c ****         {
1050:Generated_Source\PSoC4/RTC.c ****             RTC_dstStatus = 0u;
 2117              		.loc 2 1050 0
 2118 008c 084B     		ldr	r3, .L119+16
ARM GAS  C:\Users\okuntso\AppData\Local\Temp\ccSegaCM.s 			page 78


 2119 008e 0022     		movs	r2, #0
 2120 0090 1A70     		strb	r2, [r3]
1051:Generated_Source\PSoC4/RTC.c ****             RTC_dstTimeOffset = 0uL;
 2121              		.loc 2 1051 0
 2122 0092 084B     		ldr	r3, .L119+20
 2123 0094 0022     		movs	r2, #0
 2124 0096 1A60     		str	r2, [r3]
 2125              	.L116:
1052:Generated_Source\PSoC4/RTC.c ****         }
1053:Generated_Source\PSoC4/RTC.c ****     }
 2126              		.loc 2 1053 0
 2127 0098 C046     		nop
 2128 009a BD46     		mov	sp, r7
 2129 009c 03B0     		add	sp, sp, #12
 2130              		@ sp needed
 2131 009e 90BD     		pop	{r4, r7, pc}
 2132              	.L120:
 2133              		.align	2
 2134              	.L119:
 2135 00a0 00000000 		.word	RTC_dstStopTime
 2136 00a4 18000000 		.word	RTC_unixTimeDstStop
 2137 00a8 00000000 		.word	RTC_unixTime
 2138 00ac 10000000 		.word	RTC_unixTimeDstStart
 2139 00b0 00000000 		.word	RTC_dstStatus
 2140 00b4 08000000 		.word	RTC_dstTimeOffset
 2141              		.cfi_endproc
 2142              	.LFE40:
 2143              		.size	RTC_SetDSTStopTime, .-RTC_SetDSTStopTime
 2144              		.section	.text.RTC_GetDstUnixTime,"ax",%progbits
 2145              		.align	2
 2146              		.global	RTC_GetDstUnixTime
 2147              		.code	16
 2148              		.thumb_func
 2149              		.type	RTC_GetDstUnixTime, %function
 2150              	RTC_GetDstUnixTime:
 2151              	.LFB41:
1054:Generated_Source\PSoC4/RTC.c **** 
1055:Generated_Source\PSoC4/RTC.c **** 
1056:Generated_Source\PSoC4/RTC.c ****     /*******************************************************************************
1057:Generated_Source\PSoC4/RTC.c ****     * Function Name: RTC_GetDstUnixTime
1058:Generated_Source\PSoC4/RTC.c ****     ****************************************************************************//**
1059:Generated_Source\PSoC4/RTC.c ****     *
1060:Generated_Source\PSoC4/RTC.c ****     * \brief
1061:Generated_Source\PSoC4/RTC.c ****     *  Calculates the DST Start/Stop time in the UNIX format.
1062:Generated_Source\PSoC4/RTC.c ****     *
1063:Generated_Source\PSoC4/RTC.c ****     * \param
1064:Generated_Source\PSoC4/RTC.c ****     *  dstTime The DST Start/Stop time in the regular time format.
1065:Generated_Source\PSoC4/RTC.c ****     *
1066:Generated_Source\PSoC4/RTC.c ****     * \return
1067:Generated_Source\PSoC4/RTC.c ****     *  The DST Start/Stop time in the UNIX format.
1068:Generated_Source\PSoC4/RTC.c ****     *
1069:Generated_Source\PSoC4/RTC.c ****     *******************************************************************************/
1070:Generated_Source\PSoC4/RTC.c ****     uint64 RTC_GetDstUnixTime(const RTC_DST_TIME* dstTime)
1071:Generated_Source\PSoC4/RTC.c ****     {
 2152              		.loc 2 1071 0
 2153              		.cfi_startproc
 2154              		@ args = 0, pretend = 0, frame = 40
ARM GAS  C:\Users\okuntso\AppData\Local\Temp\ccSegaCM.s 			page 79


 2155              		@ frame_needed = 1, uses_anonymous_args = 0
 2156 0000 90B5     		push	{r4, r7, lr}
 2157              		.cfi_def_cfa_offset 12
 2158              		.cfi_offset 4, -12
 2159              		.cfi_offset 7, -8
 2160              		.cfi_offset 14, -4
 2161 0002 8DB0     		sub	sp, sp, #52
 2162              		.cfi_def_cfa_offset 64
 2163 0004 02AF     		add	r7, sp, #8
 2164              		.cfi_def_cfa 7, 56
 2165 0006 7860     		str	r0, [r7, #4]
1072:Generated_Source\PSoC4/RTC.c ****         uint32 tmpYear;
1073:Generated_Source\PSoC4/RTC.c ****         uint32 tmpDate;
1074:Generated_Source\PSoC4/RTC.c ****         uint64 dstUnixTime;
1075:Generated_Source\PSoC4/RTC.c **** 
1076:Generated_Source\PSoC4/RTC.c ****         RTC_DATE_TIME tmpTimeDate;
1077:Generated_Source\PSoC4/RTC.c **** 
1078:Generated_Source\PSoC4/RTC.c ****         RTC_UnixToDateTime(&tmpTimeDate, RTC_unixTime, RTC_INITIAL_TIME_FORMAT);
 2166              		.loc 2 1078 0
 2167 0008 264B     		ldr	r3, .L125
 2168 000a 5C68     		ldr	r4, [r3, #4]
 2169 000c 1B68     		ldr	r3, [r3]
 2170 000e 0822     		movs	r2, #8
 2171 0010 B918     		adds	r1, r7, r2
 2172 0012 0022     		movs	r2, #0
 2173 0014 0092     		str	r2, [sp]
 2174 0016 1A00     		movs	r2, r3
 2175 0018 2300     		movs	r3, r4
 2176 001a 0800     		movs	r0, r1
 2177 001c FFF7FEFF 		bl	RTC_UnixToDateTime
1079:Generated_Source\PSoC4/RTC.c ****         tmpYear = RTC_GetYear(tmpTimeDate.date);
 2178              		.loc 2 1079 0
 2179 0020 0823     		movs	r3, #8
 2180 0022 FB18     		adds	r3, r7, r3
 2181 0024 5B68     		ldr	r3, [r3, #4]
 2182 0026 1800     		movs	r0, r3
 2183 0028 FFF7FEFF 		bl	RTC_GetYear
 2184 002c 0300     		movs	r3, r0
 2185 002e 3B62     		str	r3, [r7, #32]
1080:Generated_Source\PSoC4/RTC.c **** 
1081:Generated_Source\PSoC4/RTC.c ****         if(dstTime->timeFormat == (uint8)RTC_DST_DATE_FIXED)
 2186              		.loc 2 1081 0
 2187 0030 7B68     		ldr	r3, [r7, #4]
 2188 0032 1B7D     		ldrb	r3, [r3, #20]
 2189 0034 012B     		cmp	r3, #1
 2190 0036 0AD1     		bne	.L122
1082:Generated_Source\PSoC4/RTC.c ****         {
1083:Generated_Source\PSoC4/RTC.c ****             tmpDate =     RTC_ConstructDate(dstTime->month, dstTime->dayOfMonth, tmpYear);
 2191              		.loc 2 1083 0
 2192 0038 7B68     		ldr	r3, [r7, #4]
 2193 003a 1869     		ldr	r0, [r3, #16]
 2194 003c 7B68     		ldr	r3, [r7, #4]
 2195 003e 9B68     		ldr	r3, [r3, #8]
 2196 0040 3A6A     		ldr	r2, [r7, #32]
 2197 0042 1900     		movs	r1, r3
 2198 0044 FFF7FEFF 		bl	RTC_ConstructDate
 2199 0048 0300     		movs	r3, r0
ARM GAS  C:\Users\okuntso\AppData\Local\Temp\ccSegaCM.s 			page 80


 2200 004a 7B62     		str	r3, [r7, #36]
 2201 004c 0AE0     		b	.L123
 2202              	.L122:
1084:Generated_Source\PSoC4/RTC.c ****         }
1085:Generated_Source\PSoC4/RTC.c ****         else
1086:Generated_Source\PSoC4/RTC.c ****         {
1087:Generated_Source\PSoC4/RTC.c ****             tmpDate = RTC_RelativeToFixed(dstTime->dayOfWeek, dstTime->weekOfMonth, dstTime->month,
 2203              		.loc 2 1087 0
 2204 004e 7B68     		ldr	r3, [r7, #4]
 2205 0050 5868     		ldr	r0, [r3, #4]
 2206 0052 7B68     		ldr	r3, [r7, #4]
 2207 0054 D968     		ldr	r1, [r3, #12]
 2208 0056 7B68     		ldr	r3, [r7, #4]
 2209 0058 1A69     		ldr	r2, [r3, #16]
 2210 005a 3B6A     		ldr	r3, [r7, #32]
 2211 005c FFF7FEFF 		bl	RTC_RelativeToFixed
 2212 0060 0300     		movs	r3, r0
 2213 0062 7B62     		str	r3, [r7, #36]
 2214              	.L123:
1088:Generated_Source\PSoC4/RTC.c ****         }
1089:Generated_Source\PSoC4/RTC.c **** 
1090:Generated_Source\PSoC4/RTC.c ****         tmpTimeDate.time = RTC_ConstructTime((uint32)RTC_24_HOURS_FORMAT, 0u, dstTime->hour, 0u, 0u
 2215              		.loc 2 1090 0
 2216 0064 7B68     		ldr	r3, [r7, #4]
 2217 0066 1A68     		ldr	r2, [r3]
 2218 0068 0023     		movs	r3, #0
 2219 006a 0093     		str	r3, [sp]
 2220 006c 0023     		movs	r3, #0
 2221 006e 0021     		movs	r1, #0
 2222 0070 0020     		movs	r0, #0
 2223 0072 FFF7FEFF 		bl	RTC_ConstructTime
 2224 0076 0200     		movs	r2, r0
 2225 0078 0823     		movs	r3, #8
 2226 007a FB18     		adds	r3, r7, r3
 2227 007c 1A60     		str	r2, [r3]
1091:Generated_Source\PSoC4/RTC.c ****         dstUnixTime = RTC_DateTimeToUnix(tmpDate, tmpTimeDate.time);
 2228              		.loc 2 1091 0
 2229 007e 0823     		movs	r3, #8
 2230 0080 FB18     		adds	r3, r7, r3
 2231 0082 1A68     		ldr	r2, [r3]
 2232 0084 7B6A     		ldr	r3, [r7, #36]
 2233 0086 1100     		movs	r1, r2
 2234 0088 1800     		movs	r0, r3
 2235 008a FFF7FEFF 		bl	RTC_DateTimeToUnix
 2236 008e 0300     		movs	r3, r0
 2237 0090 0C00     		movs	r4, r1
 2238 0092 BB61     		str	r3, [r7, #24]
 2239 0094 FC61     		str	r4, [r7, #28]
1092:Generated_Source\PSoC4/RTC.c **** 
1093:Generated_Source\PSoC4/RTC.c ****         return(dstUnixTime);
 2240              		.loc 2 1093 0
 2241 0096 BB69     		ldr	r3, [r7, #24]
 2242 0098 FC69     		ldr	r4, [r7, #28]
1094:Generated_Source\PSoC4/RTC.c ****     }
 2243              		.loc 2 1094 0
 2244 009a 1800     		movs	r0, r3
 2245 009c 2100     		movs	r1, r4
ARM GAS  C:\Users\okuntso\AppData\Local\Temp\ccSegaCM.s 			page 81


 2246 009e BD46     		mov	sp, r7
 2247 00a0 0BB0     		add	sp, sp, #44
 2248              		@ sp needed
 2249 00a2 90BD     		pop	{r4, r7, pc}
 2250              	.L126:
 2251              		.align	2
 2252              	.L125:
 2253 00a4 00000000 		.word	RTC_unixTime
 2254              		.cfi_endproc
 2255              	.LFE41:
 2256              		.size	RTC_GetDstUnixTime, .-RTC_GetDstUnixTime
 2257              		.section	.text.RTC_ConvertBCDToDec,"ax",%progbits
 2258              		.align	2
 2259              		.global	RTC_ConvertBCDToDec
 2260              		.code	16
 2261              		.thumb_func
 2262              		.type	RTC_ConvertBCDToDec, %function
 2263              	RTC_ConvertBCDToDec:
 2264              	.LFB42:
1095:Generated_Source\PSoC4/RTC.c **** 
1096:Generated_Source\PSoC4/RTC.c **** 
1097:Generated_Source\PSoC4/RTC.c **** #endif /* (0u != RTC_INITIAL_DST_STATUS) */
1098:Generated_Source\PSoC4/RTC.c **** 
1099:Generated_Source\PSoC4/RTC.c **** 
1100:Generated_Source\PSoC4/RTC.c **** /*******************************************************************************
1101:Generated_Source\PSoC4/RTC.c **** * Function Name: RTC_ConvertBCDToDec
1102:Generated_Source\PSoC4/RTC.c **** ****************************************************************************//**
1103:Generated_Source\PSoC4/RTC.c **** *
1104:Generated_Source\PSoC4/RTC.c **** * \brief
1105:Generated_Source\PSoC4/RTC.c **** *  Converts a 4-byte BCD number into a 4-byte hexadecimal number. Each byte is
1106:Generated_Source\PSoC4/RTC.c **** *  converted individually and returned as an individual byte in the 32-bit
1107:Generated_Source\PSoC4/RTC.c **** *  variable.
1108:Generated_Source\PSoC4/RTC.c **** *
1109:Generated_Source\PSoC4/RTC.c **** * \param
1110:Generated_Source\PSoC4/RTC.c **** *  bcdNum A 4-byte BCD number. Each byte represents BCD.
1111:Generated_Source\PSoC4/RTC.c **** *  0x11223344 -> 4 bytes 0x11, 0x22, 0x33 and 0x44 the in BCD format.
1112:Generated_Source\PSoC4/RTC.c **** *
1113:Generated_Source\PSoC4/RTC.c **** * \return
1114:Generated_Source\PSoC4/RTC.c **** *  decNum A 4-byte hexadecimal equivalent number of the BCD number.
1115:Generated_Source\PSoC4/RTC.c **** *  BCD number 0x11223344 -> returned hexadecimal number 0x0B16212C.
1116:Generated_Source\PSoC4/RTC.c **** *
1117:Generated_Source\PSoC4/RTC.c **** *******************************************************************************/
1118:Generated_Source\PSoC4/RTC.c **** uint32 RTC_ConvertBCDToDec(uint32 bcdNum)
1119:Generated_Source\PSoC4/RTC.c **** {
 2265              		.loc 2 1119 0
 2266              		.cfi_startproc
 2267              		@ args = 0, pretend = 0, frame = 24
 2268              		@ frame_needed = 1, uses_anonymous_args = 0
 2269 0000 80B5     		push	{r7, lr}
 2270              		.cfi_def_cfa_offset 8
 2271              		.cfi_offset 7, -8
 2272              		.cfi_offset 14, -4
 2273 0002 86B0     		sub	sp, sp, #24
 2274              		.cfi_def_cfa_offset 32
 2275 0004 00AF     		add	r7, sp, #0
 2276              		.cfi_def_cfa_register 7
 2277 0006 7860     		str	r0, [r7, #4]
ARM GAS  C:\Users\okuntso\AppData\Local\Temp\ccSegaCM.s 			page 82


1120:Generated_Source\PSoC4/RTC.c ****     uint32 i;
1121:Generated_Source\PSoC4/RTC.c ****     uint32 mult;
1122:Generated_Source\PSoC4/RTC.c ****     uint32 retVal;
1123:Generated_Source\PSoC4/RTC.c **** 
1124:Generated_Source\PSoC4/RTC.c ****     mult   = 1u;
 2278              		.loc 2 1124 0
 2279 0008 0123     		movs	r3, #1
 2280 000a 3B61     		str	r3, [r7, #16]
1125:Generated_Source\PSoC4/RTC.c ****     retVal = 0u;
 2281              		.loc 2 1125 0
 2282 000c 0023     		movs	r3, #0
 2283 000e FB60     		str	r3, [r7, #12]
1126:Generated_Source\PSoC4/RTC.c **** 
1127:Generated_Source\PSoC4/RTC.c ****     for(i = 0u; i < 16u; i++)
 2284              		.loc 2 1127 0
 2285 0010 0023     		movs	r3, #0
 2286 0012 7B61     		str	r3, [r7, #20]
 2287 0014 13E0     		b	.L128
 2288              	.L129:
1128:Generated_Source\PSoC4/RTC.c ****     {
1129:Generated_Source\PSoC4/RTC.c ****         retVal += (bcdNum & RTC_BCD_ONE_DIGIT_MASK) * mult;
 2289              		.loc 2 1129 0 discriminator 3
 2290 0016 7B68     		ldr	r3, [r7, #4]
 2291 0018 0F22     		movs	r2, #15
 2292 001a 1340     		ands	r3, r2
 2293 001c 3A69     		ldr	r2, [r7, #16]
 2294 001e 5343     		muls	r3, r2
 2295 0020 FA68     		ldr	r2, [r7, #12]
 2296 0022 D318     		adds	r3, r2, r3
 2297 0024 FB60     		str	r3, [r7, #12]
1130:Generated_Source\PSoC4/RTC.c ****         bcdNum >>= RTC_BCD_NUMBER_SIZE;
 2298              		.loc 2 1130 0 discriminator 3
 2299 0026 7B68     		ldr	r3, [r7, #4]
 2300 0028 1B09     		lsrs	r3, r3, #4
 2301 002a 7B60     		str	r3, [r7, #4]
1131:Generated_Source\PSoC4/RTC.c ****         mult *= 10u;
 2302              		.loc 2 1131 0 discriminator 3
 2303 002c 3A69     		ldr	r2, [r7, #16]
 2304 002e 1300     		movs	r3, r2
 2305 0030 9B00     		lsls	r3, r3, #2
 2306 0032 9B18     		adds	r3, r3, r2
 2307 0034 5B00     		lsls	r3, r3, #1
 2308 0036 3B61     		str	r3, [r7, #16]
1127:Generated_Source\PSoC4/RTC.c ****     {
 2309              		.loc 2 1127 0 discriminator 3
 2310 0038 7B69     		ldr	r3, [r7, #20]
 2311 003a 0133     		adds	r3, r3, #1
 2312 003c 7B61     		str	r3, [r7, #20]
 2313              	.L128:
1127:Generated_Source\PSoC4/RTC.c ****     {
 2314              		.loc 2 1127 0 is_stmt 0 discriminator 1
 2315 003e 7B69     		ldr	r3, [r7, #20]
 2316 0040 0F2B     		cmp	r3, #15
 2317 0042 E8D9     		bls	.L129
1132:Generated_Source\PSoC4/RTC.c ****     }
1133:Generated_Source\PSoC4/RTC.c **** 
1134:Generated_Source\PSoC4/RTC.c ****     return(retVal);
ARM GAS  C:\Users\okuntso\AppData\Local\Temp\ccSegaCM.s 			page 83


 2318              		.loc 2 1134 0 is_stmt 1
 2319 0044 FB68     		ldr	r3, [r7, #12]
1135:Generated_Source\PSoC4/RTC.c **** }
 2320              		.loc 2 1135 0
 2321 0046 1800     		movs	r0, r3
 2322 0048 BD46     		mov	sp, r7
 2323 004a 06B0     		add	sp, sp, #24
 2324              		@ sp needed
 2325 004c 80BD     		pop	{r7, pc}
 2326              		.cfi_endproc
 2327              	.LFE42:
 2328              		.size	RTC_ConvertBCDToDec, .-RTC_ConvertBCDToDec
 2329 004e C046     		.section	.text.RTC_ConvertDecToBCD,"ax",%progbits
 2330              		.align	2
 2331              		.global	RTC_ConvertDecToBCD
 2332              		.code	16
 2333              		.thumb_func
 2334              		.type	RTC_ConvertDecToBCD, %function
 2335              	RTC_ConvertDecToBCD:
 2336              	.LFB43:
1136:Generated_Source\PSoC4/RTC.c **** 
1137:Generated_Source\PSoC4/RTC.c **** 
1138:Generated_Source\PSoC4/RTC.c **** /*******************************************************************************
1139:Generated_Source\PSoC4/RTC.c **** * Function Name: RTC_ConvertDecToBCD
1140:Generated_Source\PSoC4/RTC.c **** ****************************************************************************//**
1141:Generated_Source\PSoC4/RTC.c **** *
1142:Generated_Source\PSoC4/RTC.c **** * \brief
1143:Generated_Source\PSoC4/RTC.c **** *  Converts a 4-byte hexadecimal number into a 4-byte BCD number. Each byte
1144:Generated_Source\PSoC4/RTC.c **** *  is converted individually and returned as an individual byte in the 32-bit
1145:Generated_Source\PSoC4/RTC.c **** *  variable.
1146:Generated_Source\PSoC4/RTC.c **** *
1147:Generated_Source\PSoC4/RTC.c **** * \param 
1148:Generated_Source\PSoC4/RTC.c **** *  decNum A 4-byte hexadecimal number. Each byte is represented in hex.
1149:Generated_Source\PSoC4/RTC.c **** *  0x11223344 -> 4 bytes 0x11, 0x22, 0x33 and 0x44 in the hex format.
1150:Generated_Source\PSoC4/RTC.c **** *
1151:Generated_Source\PSoC4/RTC.c **** * \return
1152:Generated_Source\PSoC4/RTC.c **** *  bcdNum - A 4-byte BCD equivalent of the passed hexadecimal number. Hexadecimal
1153:Generated_Source\PSoC4/RTC.c **** *  number 0x11223344 -> returned BCD number 0x17345168.
1154:Generated_Source\PSoC4/RTC.c **** *
1155:Generated_Source\PSoC4/RTC.c **** *******************************************************************************/
1156:Generated_Source\PSoC4/RTC.c **** uint32 RTC_ConvertDecToBCD(uint32 decNum)
1157:Generated_Source\PSoC4/RTC.c **** {
 2337              		.loc 2 1157 0
 2338              		.cfi_startproc
 2339              		@ args = 0, pretend = 0, frame = 24
 2340              		@ frame_needed = 1, uses_anonymous_args = 0
 2341 0000 80B5     		push	{r7, lr}
 2342              		.cfi_def_cfa_offset 8
 2343              		.cfi_offset 7, -8
 2344              		.cfi_offset 14, -4
 2345 0002 86B0     		sub	sp, sp, #24
 2346              		.cfi_def_cfa_offset 32
 2347 0004 00AF     		add	r7, sp, #0
 2348              		.cfi_def_cfa_register 7
 2349 0006 7860     		str	r0, [r7, #4]
1158:Generated_Source\PSoC4/RTC.c ****     uint32 shift;
1159:Generated_Source\PSoC4/RTC.c ****     uint32 tmpVal;
ARM GAS  C:\Users\okuntso\AppData\Local\Temp\ccSegaCM.s 			page 84


1160:Generated_Source\PSoC4/RTC.c ****     uint32 retVal;
1161:Generated_Source\PSoC4/RTC.c **** 
1162:Generated_Source\PSoC4/RTC.c ****     shift  = 0u;
 2350              		.loc 2 1162 0
 2351 0008 0023     		movs	r3, #0
 2352 000a 7B61     		str	r3, [r7, #20]
1163:Generated_Source\PSoC4/RTC.c ****     retVal = 0u;
 2353              		.loc 2 1163 0
 2354 000c 0023     		movs	r3, #0
 2355 000e FB60     		str	r3, [r7, #12]
1164:Generated_Source\PSoC4/RTC.c ****     tmpVal = decNum;
 2356              		.loc 2 1164 0
 2357 0010 7B68     		ldr	r3, [r7, #4]
 2358 0012 3B61     		str	r3, [r7, #16]
 2359              	.L132:
1165:Generated_Source\PSoC4/RTC.c **** 
1166:Generated_Source\PSoC4/RTC.c ****     do
1167:Generated_Source\PSoC4/RTC.c ****     {
1168:Generated_Source\PSoC4/RTC.c ****         retVal |= ((tmpVal % 10u) << shift);
 2360              		.loc 2 1168 0 discriminator 1
 2361 0014 3B69     		ldr	r3, [r7, #16]
 2362 0016 0A21     		movs	r1, #10
 2363 0018 1800     		movs	r0, r3
 2364 001a FFF7FEFF 		bl	__aeabi_uidivmod
 2365 001e 0B00     		movs	r3, r1
 2366 0020 1A00     		movs	r2, r3
 2367 0022 7B69     		ldr	r3, [r7, #20]
 2368 0024 9A40     		lsls	r2, r2, r3
 2369 0026 1300     		movs	r3, r2
 2370 0028 FA68     		ldr	r2, [r7, #12]
 2371 002a 1343     		orrs	r3, r2
 2372 002c FB60     		str	r3, [r7, #12]
1169:Generated_Source\PSoC4/RTC.c ****         tmpVal /= 10u;
 2373              		.loc 2 1169 0 discriminator 1
 2374 002e 3B69     		ldr	r3, [r7, #16]
 2375 0030 0A21     		movs	r1, #10
 2376 0032 1800     		movs	r0, r3
 2377 0034 FFF7FEFF 		bl	__aeabi_uidiv
 2378 0038 0300     		movs	r3, r0
 2379 003a 3B61     		str	r3, [r7, #16]
1170:Generated_Source\PSoC4/RTC.c ****         shift  += RTC_BCD_NUMBER_SIZE;
 2380              		.loc 2 1170 0 discriminator 1
 2381 003c 7B69     		ldr	r3, [r7, #20]
 2382 003e 0433     		adds	r3, r3, #4
 2383 0040 7B61     		str	r3, [r7, #20]
1171:Generated_Source\PSoC4/RTC.c ****     }
1172:Generated_Source\PSoC4/RTC.c ****     while(tmpVal >= 10u);
 2384              		.loc 2 1172 0 discriminator 1
 2385 0042 3B69     		ldr	r3, [r7, #16]
 2386 0044 092B     		cmp	r3, #9
 2387 0046 E5D8     		bhi	.L132
1173:Generated_Source\PSoC4/RTC.c **** 
1174:Generated_Source\PSoC4/RTC.c ****     retVal |= (tmpVal << shift);
 2388              		.loc 2 1174 0
 2389 0048 3A69     		ldr	r2, [r7, #16]
 2390 004a 7B69     		ldr	r3, [r7, #20]
 2391 004c 9A40     		lsls	r2, r2, r3
ARM GAS  C:\Users\okuntso\AppData\Local\Temp\ccSegaCM.s 			page 85


 2392 004e 1300     		movs	r3, r2
 2393 0050 FA68     		ldr	r2, [r7, #12]
 2394 0052 1343     		orrs	r3, r2
 2395 0054 FB60     		str	r3, [r7, #12]
1175:Generated_Source\PSoC4/RTC.c **** 
1176:Generated_Source\PSoC4/RTC.c ****     return(retVal);
 2396              		.loc 2 1176 0
 2397 0056 FB68     		ldr	r3, [r7, #12]
1177:Generated_Source\PSoC4/RTC.c **** }
 2398              		.loc 2 1177 0
 2399 0058 1800     		movs	r0, r3
 2400 005a BD46     		mov	sp, r7
 2401 005c 06B0     		add	sp, sp, #24
 2402              		@ sp needed
 2403 005e 80BD     		pop	{r7, pc}
 2404              		.cfi_endproc
 2405              	.LFE43:
 2406              		.size	RTC_ConvertDecToBCD, .-RTC_ConvertDecToBCD
 2407              		.section	.text.RTC_Update,"ax",%progbits
 2408              		.align	2
 2409              		.global	RTC_Update
 2410              		.code	16
 2411              		.thumb_func
 2412              		.type	RTC_Update, %function
 2413              	RTC_Update:
 2414              	.LFB44:
1178:Generated_Source\PSoC4/RTC.c **** 
1179:Generated_Source\PSoC4/RTC.c **** 
1180:Generated_Source\PSoC4/RTC.c **** /*******************************************************************************
1181:Generated_Source\PSoC4/RTC.c **** * Function Name: RTC_Update
1182:Generated_Source\PSoC4/RTC.c **** ****************************************************************************//**
1183:Generated_Source\PSoC4/RTC.c **** *
1184:Generated_Source\PSoC4/RTC.c **** * \brief
1185:Generated_Source\PSoC4/RTC.c **** *  This API updates the time registers and performs alarm/DST check.
1186:Generated_Source\PSoC4/RTC.c **** *
1187:Generated_Source\PSoC4/RTC.c **** *  This function increments the time/date registers by an input clock period.
1188:Generated_Source\PSoC4/RTC.c **** *  The period is set by RTC_SetPeriod() API or WDT period selected for RTC
1189:Generated_Source\PSoC4/RTC.c **** *  in the clocks configuration window (low frequency clocks tab) interface
1190:Generated_Source\PSoC4/RTC.c **** *  every time it is called.
1191:Generated_Source\PSoC4/RTC.c **** *
1192:Generated_Source\PSoC4/RTC.c **** *  API is automatically mapped to the WDT's callback slot and period if the
1193:Generated_Source\PSoC4/RTC.c **** *  configuration is as follows: 1) Option "Implement RTC update manually" in
1194:Generated_Source\PSoC4/RTC.c **** *  the customizer is unchecked 2) One of WDTs is selected in the "Use for RTC"
1195:Generated_Source\PSoC4/RTC.c **** *  panel of the low frequency clocks tab 3) Option "Implementation by IDE" is
1196:Generated_Source\PSoC4/RTC.c **** *  selected in the "Timer (WDT) ISR" panel.
1197:Generated_Source\PSoC4/RTC.c **** *
1198:Generated_Source\PSoC4/RTC.c **** *  If option "Implement RTC update manually" is checked in the customizer or
1199:Generated_Source\PSoC4/RTC.c **** *  option "None" is selected in the "Use for RTC" panel,it is the user's
1200:Generated_Source\PSoC4/RTC.c **** *  responsibility: 1) to call this API from the clock ISR to be
1201:Generated_Source\PSoC4/RTC.c **** *  used as the RTC's input 2) set the period of the RTC through
1202:Generated_Source\PSoC4/RTC.c **** *  RTC_SetPeriod() API.
1203:Generated_Source\PSoC4/RTC.c **** *
1204:Generated_Source\PSoC4/RTC.c **** * \note Updates the Unix time register, updates the alarm and DST status.
1205:Generated_Source\PSoC4/RTC.c **** *
1206:Generated_Source\PSoC4/RTC.c **** *******************************************************************************/
1207:Generated_Source\PSoC4/RTC.c **** void RTC_Update(void)
1208:Generated_Source\PSoC4/RTC.c **** {
ARM GAS  C:\Users\okuntso\AppData\Local\Temp\ccSegaCM.s 			page 86


 2415              		.loc 2 1208 0
 2416              		.cfi_startproc
 2417              		@ args = 0, pretend = 0, frame = 0
 2418              		@ frame_needed = 1, uses_anonymous_args = 0
 2419 0000 F8B5     		push	{r3, r4, r5, r6, r7, lr}
 2420              		.cfi_def_cfa_offset 24
 2421              		.cfi_offset 3, -24
 2422              		.cfi_offset 4, -20
 2423              		.cfi_offset 5, -16
 2424              		.cfi_offset 6, -12
 2425              		.cfi_offset 7, -8
 2426              		.cfi_offset 14, -4
 2427 0002 00AF     		add	r7, sp, #0
 2428              		.cfi_def_cfa_register 7
1209:Generated_Source\PSoC4/RTC.c ****     static volatile uint32 RTC_currentTickNumber;
1210:Generated_Source\PSoC4/RTC.c ****     RTC_currentTickNumber += RTC_updateTimePeriod;
 2429              		.loc 2 1210 0
 2430 0004 2C4B     		ldr	r3, .L138
 2431 0006 1A68     		ldr	r2, [r3]
 2432 0008 2C4B     		ldr	r3, .L138+4
 2433 000a 1B68     		ldr	r3, [r3]
 2434 000c D218     		adds	r2, r2, r3
 2435 000e 2A4B     		ldr	r3, .L138
 2436 0010 1A60     		str	r2, [r3]
1211:Generated_Source\PSoC4/RTC.c **** 
1212:Generated_Source\PSoC4/RTC.c ****     if(RTC_currentTickNumber >= RTC_tickRefOneSec)
 2437              		.loc 2 1212 0
 2438 0012 294B     		ldr	r3, .L138
 2439 0014 1A68     		ldr	r2, [r3]
 2440 0016 2A4B     		ldr	r3, .L138+8
 2441 0018 1B68     		ldr	r3, [r3]
 2442 001a 9A42     		cmp	r2, r3
 2443 001c 48D3     		bcc	.L137
1213:Generated_Source\PSoC4/RTC.c ****     {
1214:Generated_Source\PSoC4/RTC.c ****         RTC_unixTime++;
 2444              		.loc 2 1214 0
 2445 001e 294B     		ldr	r3, .L138+12
 2446 0020 5C68     		ldr	r4, [r3, #4]
 2447 0022 1B68     		ldr	r3, [r3]
 2448 0024 0121     		movs	r1, #1
 2449 0026 0022     		movs	r2, #0
 2450 0028 5B18     		adds	r3, r3, r1
 2451 002a 5441     		adcs	r4, r4, r2
 2452 002c 254A     		ldr	r2, .L138+12
 2453 002e 1360     		str	r3, [r2]
 2454 0030 5460     		str	r4, [r2, #4]
1215:Generated_Source\PSoC4/RTC.c ****         RTC_currentTickNumber = 0u;
 2455              		.loc 2 1215 0
 2456 0032 214B     		ldr	r3, .L138
 2457 0034 0022     		movs	r2, #0
 2458 0036 1A60     		str	r2, [r3]
1216:Generated_Source\PSoC4/RTC.c **** 
1217:Generated_Source\PSoC4/RTC.c ****     #if(0u != RTC_INITIAL_DST_STATUS)
1218:Generated_Source\PSoC4/RTC.c ****         if(RTC_unixTime == RTC_unixTimeDstStart)
 2459              		.loc 2 1218 0
 2460 0038 224B     		ldr	r3, .L138+12
 2461 003a 1968     		ldr	r1, [r3]
ARM GAS  C:\Users\okuntso\AppData\Local\Temp\ccSegaCM.s 			page 87


 2462 003c 5A68     		ldr	r2, [r3, #4]
 2463 003e 224B     		ldr	r3, .L138+16
 2464 0040 5C68     		ldr	r4, [r3, #4]
 2465 0042 1B68     		ldr	r3, [r3]
 2466 0044 9942     		cmp	r1, r3
 2467 0046 08D1     		bne	.L136
 2468 0048 A242     		cmp	r2, r4
 2469 004a 06D1     		bne	.L136
1219:Generated_Source\PSoC4/RTC.c ****         {
1220:Generated_Source\PSoC4/RTC.c ****             RTC_dstStatus = 1u;
 2470              		.loc 2 1220 0
 2471 004c 1F4B     		ldr	r3, .L138+20
 2472 004e 0122     		movs	r2, #1
 2473 0050 1A70     		strb	r2, [r3]
1221:Generated_Source\PSoC4/RTC.c ****             RTC_dstTimeOffset = RTC_SECONDS_PER_HOUR;
 2474              		.loc 2 1221 0
 2475 0052 1F4B     		ldr	r3, .L138+24
 2476 0054 E122     		movs	r2, #225
 2477 0056 1201     		lsls	r2, r2, #4
 2478 0058 1A60     		str	r2, [r3]
 2479              	.L136:
1222:Generated_Source\PSoC4/RTC.c ****         }
1223:Generated_Source\PSoC4/RTC.c **** 
1224:Generated_Source\PSoC4/RTC.c ****         if(RTC_unixTime == (RTC_unixTimeDstStop  - RTC_dstTimeOffset))
 2480              		.loc 2 1224 0
 2481 005a 1E4B     		ldr	r3, .L138+28
 2482 005c 5C68     		ldr	r4, [r3, #4]
 2483 005e 1B68     		ldr	r3, [r3]
 2484 0060 1B4A     		ldr	r2, .L138+24
 2485 0062 1268     		ldr	r2, [r2]
 2486 0064 1500     		movs	r5, r2
 2487 0066 0022     		movs	r2, #0
 2488 0068 1600     		movs	r6, r2
 2489 006a 5B1B     		subs	r3, r3, r5
 2490 006c B441     		sbcs	r4, r4, r6
 2491 006e 1900     		movs	r1, r3
 2492 0070 2200     		movs	r2, r4
 2493 0072 144B     		ldr	r3, .L138+12
 2494 0074 5C68     		ldr	r4, [r3, #4]
 2495 0076 1B68     		ldr	r3, [r3]
 2496 0078 9942     		cmp	r1, r3
 2497 007a 19D1     		bne	.L137
 2498 007c A242     		cmp	r2, r4
 2499 007e 17D1     		bne	.L137
1225:Generated_Source\PSoC4/RTC.c ****         {
1226:Generated_Source\PSoC4/RTC.c ****             RTC_dstStatus = 0u;
 2500              		.loc 2 1226 0
 2501 0080 124B     		ldr	r3, .L138+20
 2502 0082 0022     		movs	r2, #0
 2503 0084 1A70     		strb	r2, [r3]
1227:Generated_Source\PSoC4/RTC.c ****             RTC_dstTimeOffset = 0u;
 2504              		.loc 2 1227 0
 2505 0086 124B     		ldr	r3, .L138+24
 2506 0088 0022     		movs	r2, #0
 2507 008a 1A60     		str	r2, [r3]
1228:Generated_Source\PSoC4/RTC.c ****             RTC_unixTimeDstStart = RTC_GetDstUnixTime(&RTC_dstStartTime);
 2508              		.loc 2 1228 0
ARM GAS  C:\Users\okuntso\AppData\Local\Temp\ccSegaCM.s 			page 88


 2509 008c 124B     		ldr	r3, .L138+32
 2510 008e 1800     		movs	r0, r3
 2511 0090 FFF7FEFF 		bl	RTC_GetDstUnixTime
 2512 0094 0300     		movs	r3, r0
 2513 0096 0C00     		movs	r4, r1
 2514 0098 0B4A     		ldr	r2, .L138+16
 2515 009a 1360     		str	r3, [r2]
 2516 009c 5460     		str	r4, [r2, #4]
1229:Generated_Source\PSoC4/RTC.c ****             RTC_unixTimeDstStop  = RTC_GetDstUnixTime(&RTC_dstStopTime);
 2517              		.loc 2 1229 0
 2518 009e 0F4B     		ldr	r3, .L138+36
 2519 00a0 1800     		movs	r0, r3
 2520 00a2 FFF7FEFF 		bl	RTC_GetDstUnixTime
 2521 00a6 0300     		movs	r3, r0
 2522 00a8 0C00     		movs	r4, r1
 2523 00aa 0A4A     		ldr	r2, .L138+28
 2524 00ac 1360     		str	r3, [r2]
 2525 00ae 5460     		str	r4, [r2, #4]
 2526              	.L137:
1230:Generated_Source\PSoC4/RTC.c ****         }
1231:Generated_Source\PSoC4/RTC.c ****     #endif /* (0u != RTC_INITIAL_DST_STATUS) */
1232:Generated_Source\PSoC4/RTC.c **** 
1233:Generated_Source\PSoC4/RTC.c ****     #if(0u != RTC_INITIAL_ALARM_STATUS)
1234:Generated_Source\PSoC4/RTC.c ****         if((RTC_unixTime + RTC_dstTimeOffset) == RTC_unixTimeAlarm)
1235:Generated_Source\PSoC4/RTC.c ****         {
1236:Generated_Source\PSoC4/RTC.c ****             RTC_currentTimeDate.status |= (1uL << RTC_STATUS_ALARM_OFFSET);
1237:Generated_Source\PSoC4/RTC.c ****             RTC_alarmCurStatus = RTC_alarmCfgMask;
1238:Generated_Source\PSoC4/RTC.c ****             if (RTC_alarmCallbackPtr != (void *) 0)
1239:Generated_Source\PSoC4/RTC.c ****             {
1240:Generated_Source\PSoC4/RTC.c ****                 RTC_alarmCallbackPtr();
1241:Generated_Source\PSoC4/RTC.c ****             }
1242:Generated_Source\PSoC4/RTC.c ****             RTC_unixTimeAlarm = RTC_GetNexAlarmTime(RTC_unixTime + RTC_dstTimeOffset,
1243:Generated_Source\PSoC4/RTC.c ****                                                                                                   (
1244:Generated_Source\PSoC4/RTC.c ****         }
1245:Generated_Source\PSoC4/RTC.c ****     #endif/* (0u != RTC_INITIAL_ALARM_STATUS) */
1246:Generated_Source\PSoC4/RTC.c ****     }
1247:Generated_Source\PSoC4/RTC.c **** }
 2527              		.loc 2 1247 0
 2528 00b0 C046     		nop
 2529 00b2 BD46     		mov	sp, r7
 2530              		@ sp needed
 2531 00b4 F8BD     		pop	{r3, r4, r5, r6, r7, pc}
 2532              	.L139:
 2533 00b6 C046     		.align	2
 2534              	.L138:
 2535 00b8 20000000 		.word	RTC_currentTickNumber.5197
 2536 00bc 00000000 		.word	RTC_updateTimePeriod
 2537 00c0 04000000 		.word	RTC_tickRefOneSec
 2538 00c4 00000000 		.word	RTC_unixTime
 2539 00c8 10000000 		.word	RTC_unixTimeDstStart
 2540 00cc 00000000 		.word	RTC_dstStatus
 2541 00d0 08000000 		.word	RTC_dstTimeOffset
 2542 00d4 18000000 		.word	RTC_unixTimeDstStop
 2543 00d8 00000000 		.word	RTC_dstStartTime
 2544 00dc 00000000 		.word	RTC_dstStopTime
 2545              		.cfi_endproc
 2546              	.LFE44:
ARM GAS  C:\Users\okuntso\AppData\Local\Temp\ccSegaCM.s 			page 89


 2547              		.size	RTC_Update, .-RTC_Update
 2548              		.section	.text.RTC_DateTimeToUnix,"ax",%progbits
 2549              		.align	2
 2550              		.global	RTC_DateTimeToUnix
 2551              		.code	16
 2552              		.thumb_func
 2553              		.type	RTC_DateTimeToUnix, %function
 2554              	RTC_DateTimeToUnix:
 2555              	.LFB45:
1248:Generated_Source\PSoC4/RTC.c **** 
1249:Generated_Source\PSoC4/RTC.c **** 
1250:Generated_Source\PSoC4/RTC.c **** /*******************************************************************************
1251:Generated_Source\PSoC4/RTC.c **** * Function Name: RTC_DateTimeToUnix
1252:Generated_Source\PSoC4/RTC.c **** ****************************************************************************//**
1253:Generated_Source\PSoC4/RTC.c **** *
1254:Generated_Source\PSoC4/RTC.c **** * \brief
1255:Generated_Source\PSoC4/RTC.c **** *  This is an internal function to convert the date and time from
1256:Generated_Source\PSoC4/RTC.c **** *  the regular time format into the UNIX time format.
1257:Generated_Source\PSoC4/RTC.c **** *
1258:Generated_Source\PSoC4/RTC.c **** * \param
1259:Generated_Source\PSoC4/RTC.c **** *  inputDate The date in the selected in the customizer "date format".
1260:Generated_Source\PSoC4/RTC.c **** * \param
1261:Generated_Source\PSoC4/RTC.c **** *  inputTime The time in the defined "time format".
1262:Generated_Source\PSoC4/RTC.c **** *
1263:Generated_Source\PSoC4/RTC.c **** * \return Returns the date and time in the UNIX format.
1264:Generated_Source\PSoC4/RTC.c **** *
1265:Generated_Source\PSoC4/RTC.c **** *******************************************************************************/
1266:Generated_Source\PSoC4/RTC.c **** uint64 RTC_DateTimeToUnix(uint32 inputDate, uint32 inputTime)
1267:Generated_Source\PSoC4/RTC.c **** {
 2556              		.loc 2 1267 0
 2557              		.cfi_startproc
 2558              		@ args = 0, pretend = 0, frame = 64
 2559              		@ frame_needed = 1, uses_anonymous_args = 0
 2560 0000 F0B5     		push	{r4, r5, r6, r7, lr}
 2561              		.cfi_def_cfa_offset 20
 2562              		.cfi_offset 4, -20
 2563              		.cfi_offset 5, -16
 2564              		.cfi_offset 6, -12
 2565              		.cfi_offset 7, -8
 2566              		.cfi_offset 14, -4
 2567 0002 91B0     		sub	sp, sp, #68
 2568              		.cfi_def_cfa_offset 88
 2569 0004 00AF     		add	r7, sp, #0
 2570              		.cfi_def_cfa_register 7
 2571 0006 7862     		str	r0, [r7, #36]
 2572 0008 3962     		str	r1, [r7, #32]
1268:Generated_Source\PSoC4/RTC.c ****     uint32 i;
1269:Generated_Source\PSoC4/RTC.c ****     uint32 tmpYear;
1270:Generated_Source\PSoC4/RTC.c ****     uint32 tmpMonth;
1271:Generated_Source\PSoC4/RTC.c ****     uint32 tmpVal;
1272:Generated_Source\PSoC4/RTC.c ****     uint64 unixTime;
1273:Generated_Source\PSoC4/RTC.c **** 
1274:Generated_Source\PSoC4/RTC.c ****     unixTime = 0u;
 2573              		.loc 2 1274 0
 2574 000a 0023     		movs	r3, #0
 2575 000c 0024     		movs	r4, #0
 2576 000e 3B63     		str	r3, [r7, #48]
ARM GAS  C:\Users\okuntso\AppData\Local\Temp\ccSegaCM.s 			page 90


 2577 0010 7C63     		str	r4, [r7, #52]
1275:Generated_Source\PSoC4/RTC.c ****     tmpYear = RTC_GetYear(inputDate);
 2578              		.loc 2 1275 0
 2579 0012 7B6A     		ldr	r3, [r7, #36]
 2580 0014 1800     		movs	r0, r3
 2581 0016 FFF7FEFF 		bl	RTC_GetYear
 2582 001a 0300     		movs	r3, r0
 2583 001c FB62     		str	r3, [r7, #44]
1276:Generated_Source\PSoC4/RTC.c **** 
1277:Generated_Source\PSoC4/RTC.c ****     /* Calculate seconds from epoch start up to (but not including) current year. */
1278:Generated_Source\PSoC4/RTC.c ****     for(i = RTC_YEAR_0; i < tmpYear; i++)
 2584              		.loc 2 1278 0
 2585 001e 564B     		ldr	r3, .L148
 2586 0020 FB63     		str	r3, [r7, #60]
 2587 0022 19E0     		b	.L141
 2588              	.L144:
1279:Generated_Source\PSoC4/RTC.c ****     {
1280:Generated_Source\PSoC4/RTC.c ****         if(0u != RTC_LeapYear(i))
 2589              		.loc 2 1280 0
 2590 0024 FB6B     		ldr	r3, [r7, #60]
 2591 0026 1800     		movs	r0, r3
 2592 0028 FFF7FEFF 		bl	RTC_LeapYear
 2593 002c 031E     		subs	r3, r0, #0
 2594 002e 08D0     		beq	.L142
1281:Generated_Source\PSoC4/RTC.c ****         {
1282:Generated_Source\PSoC4/RTC.c ****             unixTime += RTC_SECONDS_PER_LEAP_YEAR;
 2595              		.loc 2 1282 0
 2596 0030 3B6B     		ldr	r3, [r7, #48]
 2597 0032 7C6B     		ldr	r4, [r7, #52]
 2598 0034 5149     		ldr	r1, .L148+4
 2599 0036 0022     		movs	r2, #0
 2600 0038 5B18     		adds	r3, r3, r1
 2601 003a 5441     		adcs	r4, r4, r2
 2602 003c 3B63     		str	r3, [r7, #48]
 2603 003e 7C63     		str	r4, [r7, #52]
 2604 0040 07E0     		b	.L143
 2605              	.L142:
1283:Generated_Source\PSoC4/RTC.c ****         }
1284:Generated_Source\PSoC4/RTC.c ****         else
1285:Generated_Source\PSoC4/RTC.c ****         {
1286:Generated_Source\PSoC4/RTC.c ****             unixTime += RTC_SECONDS_PER_NONLEAP_YEAR;
 2606              		.loc 2 1286 0
 2607 0042 3B6B     		ldr	r3, [r7, #48]
 2608 0044 7C6B     		ldr	r4, [r7, #52]
 2609 0046 4E49     		ldr	r1, .L148+8
 2610 0048 0022     		movs	r2, #0
 2611 004a 5B18     		adds	r3, r3, r1
 2612 004c 5441     		adcs	r4, r4, r2
 2613 004e 3B63     		str	r3, [r7, #48]
 2614 0050 7C63     		str	r4, [r7, #52]
 2615              	.L143:
1278:Generated_Source\PSoC4/RTC.c ****     {
 2616              		.loc 2 1278 0 discriminator 2
 2617 0052 FB6B     		ldr	r3, [r7, #60]
 2618 0054 0133     		adds	r3, r3, #1
 2619 0056 FB63     		str	r3, [r7, #60]
 2620              	.L141:
ARM GAS  C:\Users\okuntso\AppData\Local\Temp\ccSegaCM.s 			page 91


1278:Generated_Source\PSoC4/RTC.c ****     {
 2621              		.loc 2 1278 0 is_stmt 0 discriminator 1
 2622 0058 FA6B     		ldr	r2, [r7, #60]
 2623 005a FB6A     		ldr	r3, [r7, #44]
 2624 005c 9A42     		cmp	r2, r3
 2625 005e E1D3     		bcc	.L144
1287:Generated_Source\PSoC4/RTC.c ****         }
1288:Generated_Source\PSoC4/RTC.c ****     }
1289:Generated_Source\PSoC4/RTC.c **** 
1290:Generated_Source\PSoC4/RTC.c ****     /* Calculates how many seconds had elapsed in this year prior to the current month. */
1291:Generated_Source\PSoC4/RTC.c ****     tmpMonth = RTC_GetMonth(inputDate);
 2626              		.loc 2 1291 0 is_stmt 1
 2627 0060 7B6A     		ldr	r3, [r7, #36]
 2628 0062 1800     		movs	r0, r3
 2629 0064 FFF7FEFF 		bl	RTC_GetMonth
 2630 0068 0300     		movs	r3, r0
 2631 006a BB62     		str	r3, [r7, #40]
1292:Generated_Source\PSoC4/RTC.c ****     tmpVal = RTC_daysBeforeMonthTbl[tmpMonth - 1u];
 2632              		.loc 2 1292 0
 2633 006c BB6A     		ldr	r3, [r7, #40]
 2634 006e 5A1E     		subs	r2, r3, #1
 2635 0070 444B     		ldr	r3, .L148+12
 2636 0072 5200     		lsls	r2, r2, #1
 2637 0074 D35A     		ldrh	r3, [r2, r3]
 2638 0076 BB63     		str	r3, [r7, #56]
1293:Generated_Source\PSoC4/RTC.c **** 
1294:Generated_Source\PSoC4/RTC.c ****     if((tmpMonth > 2u) && (0u != RTC_LeapYear(tmpYear)))
 2639              		.loc 2 1294 0
 2640 0078 BB6A     		ldr	r3, [r7, #40]
 2641 007a 022B     		cmp	r3, #2
 2642 007c 08D9     		bls	.L145
 2643              		.loc 2 1294 0 is_stmt 0 discriminator 1
 2644 007e FB6A     		ldr	r3, [r7, #44]
 2645 0080 1800     		movs	r0, r3
 2646 0082 FFF7FEFF 		bl	RTC_LeapYear
 2647 0086 031E     		subs	r3, r0, #0
 2648 0088 02D0     		beq	.L145
1295:Generated_Source\PSoC4/RTC.c ****     {
1296:Generated_Source\PSoC4/RTC.c ****         tmpVal++;
 2649              		.loc 2 1296 0 is_stmt 1
 2650 008a BB6B     		ldr	r3, [r7, #56]
 2651 008c 0133     		adds	r3, r3, #1
 2652 008e BB63     		str	r3, [r7, #56]
 2653              	.L145:
1297:Generated_Source\PSoC4/RTC.c ****     }
1298:Generated_Source\PSoC4/RTC.c **** 
1299:Generated_Source\PSoC4/RTC.c ****     /* Calculates how many seconds are in current month days prior to today. */
1300:Generated_Source\PSoC4/RTC.c ****     unixTime += tmpVal * RTC_SECONDS_PER_DAY;
 2654              		.loc 2 1300 0
 2655 0090 BB6B     		ldr	r3, [r7, #56]
 2656 0092 3D4A     		ldr	r2, .L148+16
 2657 0094 5343     		muls	r3, r2
 2658 0096 BB61     		str	r3, [r7, #24]
 2659 0098 0023     		movs	r3, #0
 2660 009a FB61     		str	r3, [r7, #28]
 2661 009c 3B6B     		ldr	r3, [r7, #48]
 2662 009e 7C6B     		ldr	r4, [r7, #52]
ARM GAS  C:\Users\okuntso\AppData\Local\Temp\ccSegaCM.s 			page 92


 2663 00a0 B969     		ldr	r1, [r7, #24]
 2664 00a2 FA69     		ldr	r2, [r7, #28]
 2665 00a4 5B18     		adds	r3, r3, r1
 2666 00a6 5441     		adcs	r4, r4, r2
 2667 00a8 3B63     		str	r3, [r7, #48]
 2668 00aa 7C63     		str	r4, [r7, #52]
1301:Generated_Source\PSoC4/RTC.c ****     unixTime += (RTC_GetDay(inputDate) - 1u) * RTC_SECONDS_PER_DAY;
 2669              		.loc 2 1301 0
 2670 00ac 7B6A     		ldr	r3, [r7, #36]
 2671 00ae 1800     		movs	r0, r3
 2672 00b0 FFF7FEFF 		bl	RTC_GetDay
 2673 00b4 0200     		movs	r2, r0
 2674 00b6 344B     		ldr	r3, .L148+16
 2675 00b8 5343     		muls	r3, r2
 2676 00ba 344A     		ldr	r2, .L148+20
 2677 00bc 9446     		mov	ip, r2
 2678 00be 6344     		add	r3, r3, ip
 2679 00c0 3B61     		str	r3, [r7, #16]
 2680 00c2 0023     		movs	r3, #0
 2681 00c4 7B61     		str	r3, [r7, #20]
 2682 00c6 3B6B     		ldr	r3, [r7, #48]
 2683 00c8 7C6B     		ldr	r4, [r7, #52]
 2684 00ca 3969     		ldr	r1, [r7, #16]
 2685 00cc 7A69     		ldr	r2, [r7, #20]
 2686 00ce 5B18     		adds	r3, r3, r1
 2687 00d0 5441     		adcs	r4, r4, r2
 2688 00d2 3B63     		str	r3, [r7, #48]
 2689 00d4 7C63     		str	r4, [r7, #52]
1302:Generated_Source\PSoC4/RTC.c **** 
1303:Generated_Source\PSoC4/RTC.c ****     /* Calculates how many seconds have elapsed today up to the current hour. */
1304:Generated_Source\PSoC4/RTC.c ****     tmpVal = RTC_GetHours(inputTime);
 2690              		.loc 2 1304 0
 2691 00d6 3B6A     		ldr	r3, [r7, #32]
 2692 00d8 1800     		movs	r0, r3
 2693 00da FFF7FEFF 		bl	RTC_GetHours
 2694 00de 0300     		movs	r3, r0
 2695 00e0 BB63     		str	r3, [r7, #56]
1305:Generated_Source\PSoC4/RTC.c ****     if(((uint32)RTC_24_HOURS_FORMAT != RTC_GetTimeFormat(inputTime)) &&
 2696              		.loc 2 1305 0
 2697 00e2 3B6A     		ldr	r3, [r7, #32]
 2698 00e4 1800     		movs	r0, r3
 2699 00e6 FFF7FEFF 		bl	RTC_GetTimeFormat
 2700 00ea 031E     		subs	r3, r0, #0
 2701 00ec 0BD0     		beq	.L146
1306:Generated_Source\PSoC4/RTC.c ****        ((uint32)RTC_AM != RTC_GetAmPm(inputTime)) && (tmpVal < 12u))
 2702              		.loc 2 1306 0 discriminator 1
 2703 00ee 3B6A     		ldr	r3, [r7, #32]
 2704 00f0 1800     		movs	r0, r3
 2705 00f2 FFF7FEFF 		bl	RTC_GetAmPm
 2706 00f6 031E     		subs	r3, r0, #0
1305:Generated_Source\PSoC4/RTC.c ****     if(((uint32)RTC_24_HOURS_FORMAT != RTC_GetTimeFormat(inputTime)) &&
 2707              		.loc 2 1305 0 discriminator 1
 2708 00f8 05D0     		beq	.L146
 2709              		.loc 2 1306 0
 2710 00fa BB6B     		ldr	r3, [r7, #56]
 2711 00fc 0B2B     		cmp	r3, #11
 2712 00fe 02D8     		bhi	.L146
ARM GAS  C:\Users\okuntso\AppData\Local\Temp\ccSegaCM.s 			page 93


1307:Generated_Source\PSoC4/RTC.c ****     {
1308:Generated_Source\PSoC4/RTC.c ****         tmpVal += RTC_HOURS_PER_HALF_DAY;
 2713              		.loc 2 1308 0
 2714 0100 BB6B     		ldr	r3, [r7, #56]
 2715 0102 0C33     		adds	r3, r3, #12
 2716 0104 BB63     		str	r3, [r7, #56]
 2717              	.L146:
1309:Generated_Source\PSoC4/RTC.c ****     }
1310:Generated_Source\PSoC4/RTC.c ****     unixTime += tmpVal * RTC_SECONDS_PER_HOUR;
 2718              		.loc 2 1310 0
 2719 0106 BB6B     		ldr	r3, [r7, #56]
 2720 0108 E122     		movs	r2, #225
 2721 010a 1201     		lsls	r2, r2, #4
 2722 010c 5343     		muls	r3, r2
 2723 010e BB60     		str	r3, [r7, #8]
 2724 0110 0023     		movs	r3, #0
 2725 0112 FB60     		str	r3, [r7, #12]
 2726 0114 3B6B     		ldr	r3, [r7, #48]
 2727 0116 7C6B     		ldr	r4, [r7, #52]
 2728 0118 B968     		ldr	r1, [r7, #8]
 2729 011a FA68     		ldr	r2, [r7, #12]
 2730 011c 5B18     		adds	r3, r3, r1
 2731 011e 5441     		adcs	r4, r4, r2
 2732 0120 3B63     		str	r3, [r7, #48]
 2733 0122 7C63     		str	r4, [r7, #52]
1311:Generated_Source\PSoC4/RTC.c **** 
1312:Generated_Source\PSoC4/RTC.c ****     /* Calculates how many seconds have elapsed today up to the current minute. */
1313:Generated_Source\PSoC4/RTC.c ****     unixTime += RTC_GetMinutes(inputTime) * RTC_SECONDS_PER_MINUTE;
 2734              		.loc 2 1313 0
 2735 0124 3B6A     		ldr	r3, [r7, #32]
 2736 0126 1800     		movs	r0, r3
 2737 0128 FFF7FEFF 		bl	RTC_GetMinutes
 2738 012c 0200     		movs	r2, r0
 2739 012e 1300     		movs	r3, r2
 2740 0130 1B01     		lsls	r3, r3, #4
 2741 0132 9B1A     		subs	r3, r3, r2
 2742 0134 9B00     		lsls	r3, r3, #2
 2743 0136 3B60     		str	r3, [r7]
 2744 0138 0023     		movs	r3, #0
 2745 013a 7B60     		str	r3, [r7, #4]
 2746 013c 3B6B     		ldr	r3, [r7, #48]
 2747 013e 7C6B     		ldr	r4, [r7, #52]
 2748 0140 3968     		ldr	r1, [r7]
 2749 0142 7A68     		ldr	r2, [r7, #4]
 2750 0144 5B18     		adds	r3, r3, r1
 2751 0146 5441     		adcs	r4, r4, r2
 2752 0148 3B63     		str	r3, [r7, #48]
 2753 014a 7C63     		str	r4, [r7, #52]
1314:Generated_Source\PSoC4/RTC.c **** 
1315:Generated_Source\PSoC4/RTC.c ****     /* Add remaining seconds of current minute. */
1316:Generated_Source\PSoC4/RTC.c ****     unixTime += RTC_GetSecond(inputTime);
 2754              		.loc 2 1316 0
 2755 014c 3B6A     		ldr	r3, [r7, #32]
 2756 014e 1800     		movs	r0, r3
 2757 0150 FFF7FEFF 		bl	RTC_GetSecond
 2758 0154 0300     		movs	r3, r0
 2759 0156 1D00     		movs	r5, r3
ARM GAS  C:\Users\okuntso\AppData\Local\Temp\ccSegaCM.s 			page 94


 2760 0158 0023     		movs	r3, #0
 2761 015a 1E00     		movs	r6, r3
 2762 015c 3B6B     		ldr	r3, [r7, #48]
 2763 015e 7C6B     		ldr	r4, [r7, #52]
 2764 0160 5B19     		adds	r3, r3, r5
 2765 0162 7441     		adcs	r4, r4, r6
 2766 0164 3B63     		str	r3, [r7, #48]
 2767 0166 7C63     		str	r4, [r7, #52]
1317:Generated_Source\PSoC4/RTC.c **** 
1318:Generated_Source\PSoC4/RTC.c ****     return(unixTime);
 2768              		.loc 2 1318 0
 2769 0168 3B6B     		ldr	r3, [r7, #48]
 2770 016a 7C6B     		ldr	r4, [r7, #52]
1319:Generated_Source\PSoC4/RTC.c **** }
 2771              		.loc 2 1319 0
 2772 016c 1800     		movs	r0, r3
 2773 016e 2100     		movs	r1, r4
 2774 0170 BD46     		mov	sp, r7
 2775 0172 11B0     		add	sp, sp, #68
 2776              		@ sp needed
 2777 0174 F0BD     		pop	{r4, r5, r6, r7, pc}
 2778              	.L149:
 2779 0176 C046     		.align	2
 2780              	.L148:
 2781 0178 B2070000 		.word	1970
 2782 017c 0085E201 		.word	31622400
 2783 0180 8033E101 		.word	31536000
 2784 0184 00000000 		.word	RTC_daysBeforeMonthTbl
 2785 0188 80510100 		.word	86400
 2786 018c 80AEFEFF 		.word	-86400
 2787              		.cfi_endproc
 2788              	.LFE45:
 2789              		.size	RTC_DateTimeToUnix, .-RTC_DateTimeToUnix
 2790              		.global	__aeabi_uldivmod
 2791              		.section	.text.RTC_UnixToDateTime,"ax",%progbits
 2792              		.align	2
 2793              		.global	RTC_UnixToDateTime
 2794              		.code	16
 2795              		.thumb_func
 2796              		.type	RTC_UnixToDateTime, %function
 2797              	RTC_UnixToDateTime:
 2798              	.LFB46:
1320:Generated_Source\PSoC4/RTC.c **** 
1321:Generated_Source\PSoC4/RTC.c **** 
1322:Generated_Source\PSoC4/RTC.c **** /*******************************************************************************
1323:Generated_Source\PSoC4/RTC.c **** * Function Name: RTC_UnixToDateTime
1324:Generated_Source\PSoC4/RTC.c **** ****************************************************************************//**
1325:Generated_Source\PSoC4/RTC.c **** *
1326:Generated_Source\PSoC4/RTC.c **** * \brief
1327:Generated_Source\PSoC4/RTC.c **** *  This is an internal function to convert the date and time from
1328:Generated_Source\PSoC4/RTC.c **** *  the UNIX time format into the regular time format.
1329:Generated_Source\PSoC4/RTC.c **** *
1330:Generated_Source\PSoC4/RTC.c **** * \param dayOfWeek A day of a week <br>
1331:Generated_Source\PSoC4/RTC.c **** *                 RTC_SUNDAY <br>
1332:Generated_Source\PSoC4/RTC.c **** *                 RTC_MONDAY <br>
1333:Generated_Source\PSoC4/RTC.c **** *                 RTC_TUESDAY <br>
1334:Generated_Source\PSoC4/RTC.c **** *                 RTC_WEDNESDAY <br>
ARM GAS  C:\Users\okuntso\AppData\Local\Temp\ccSegaCM.s 			page 95


1335:Generated_Source\PSoC4/RTC.c **** *                 RTC_THURSDAY <br>
1336:Generated_Source\PSoC4/RTC.c **** *                 RTC_FRIDAY <br>
1337:Generated_Source\PSoC4/RTC.c **** *                 RTC_SATURDAY <br>
1338:Generated_Source\PSoC4/RTC.c **** *
1339:Generated_Source\PSoC4/RTC.c **** * \param weekOfMonth A week of a month <br>
1340:Generated_Source\PSoC4/RTC.c **** *                 RTC_FIRST <br>
1341:Generated_Source\PSoC4/RTC.c **** *                 RTC_SECOND <br>
1342:Generated_Source\PSoC4/RTC.c **** *                 RTC_THIRD <br>
1343:Generated_Source\PSoC4/RTC.c **** *                 RTC_FOURTH <br>
1344:Generated_Source\PSoC4/RTC.c **** *                 RTC_LAST <br>
1345:Generated_Source\PSoC4/RTC.c **** *
1346:Generated_Source\PSoC4/RTC.c **** * \param month A month of a year <br>
1347:Generated_Source\PSoC4/RTC.c **** *                   RTC_JANUARY <br>
1348:Generated_Source\PSoC4/RTC.c **** *                  RTC_FEBRUARY <br>
1349:Generated_Source\PSoC4/RTC.c **** *                  RTC_MARCH <br>
1350:Generated_Source\PSoC4/RTC.c **** *                  RTC_APRIL <br>
1351:Generated_Source\PSoC4/RTC.c **** *                  RTC_MAY <br>
1352:Generated_Source\PSoC4/RTC.c **** *                  RTC_JUNE <br>
1353:Generated_Source\PSoC4/RTC.c **** *                  RTC_JULY <br>
1354:Generated_Source\PSoC4/RTC.c **** *                  RTC_AUGUST <br>
1355:Generated_Source\PSoC4/RTC.c **** *                  RTC_SEPTEMBER <br>
1356:Generated_Source\PSoC4/RTC.c **** *                  RTC_OCTOBER <br>
1357:Generated_Source\PSoC4/RTC.c **** *                  RTC_NOVEMBER <br>
1358:Generated_Source\PSoC4/RTC.c **** *                  RTC_DECEMBER <br>
1359:Generated_Source\PSoC4/RTC.c **** *
1360:Generated_Source\PSoC4/RTC.c **** * \param year A year value.
1361:Generated_Source\PSoC4/RTC.c **** *
1362:Generated_Source\PSoC4/RTC.c **** * \return A date in the "date format".
1363:Generated_Source\PSoC4/RTC.c **** *
1364:Generated_Source\PSoC4/RTC.c **** *******************************************************************************/
1365:Generated_Source\PSoC4/RTC.c **** void RTC_UnixToDateTime(RTC_DATE_TIME* dateTime, uint64 unixTime, uint32 timeFormat)
1366:Generated_Source\PSoC4/RTC.c **** {
 2799              		.loc 2 1366 0
 2800              		.cfi_startproc
 2801              		@ args = 4, pretend = 0, frame = 120
 2802              		@ frame_needed = 1, uses_anonymous_args = 0
 2803 0000 F0B5     		push	{r4, r5, r6, r7, lr}
 2804              		.cfi_def_cfa_offset 20
 2805              		.cfi_offset 4, -20
 2806              		.cfi_offset 5, -16
 2807              		.cfi_offset 6, -12
 2808              		.cfi_offset 7, -8
 2809              		.cfi_offset 14, -4
 2810 0002 A1B0     		sub	sp, sp, #132
 2811              		.cfi_def_cfa_offset 152
 2812 0004 02AF     		add	r7, sp, #8
 2813              		.cfi_def_cfa 7, 144
 2814 0006 7865     		str	r0, [r7, #84]
 2815 0008 BA64     		str	r2, [r7, #72]
 2816 000a FB64     		str	r3, [r7, #76]
1367:Generated_Source\PSoC4/RTC.c ****     uint32 tmpMinute;
1368:Generated_Source\PSoC4/RTC.c ****     uint32 tmpHour;
1369:Generated_Source\PSoC4/RTC.c ****     uint32 tmpAmPmState;
1370:Generated_Source\PSoC4/RTC.c **** 
1371:Generated_Source\PSoC4/RTC.c ****     uint32 tmpDay;
1372:Generated_Source\PSoC4/RTC.c ****     uint32 tmpMonth;
1373:Generated_Source\PSoC4/RTC.c ****     uint32 tmpYear;
ARM GAS  C:\Users\okuntso\AppData\Local\Temp\ccSegaCM.s 			page 96


1374:Generated_Source\PSoC4/RTC.c **** 
1375:Generated_Source\PSoC4/RTC.c ****     uint32 tmpVar;
1376:Generated_Source\PSoC4/RTC.c **** 
1377:Generated_Source\PSoC4/RTC.c ****     tmpAmPmState = 0u;
 2817              		.loc 2 1377 0
 2818 000c 0023     		movs	r3, #0
 2819 000e 3B67     		str	r3, [r7, #112]
1378:Generated_Source\PSoC4/RTC.c ****     tmpYear = RTC_YEAR_0;
 2820              		.loc 2 1378 0
 2821 0010 9C4B     		ldr	r3, .L180
 2822 0012 BB66     		str	r3, [r7, #104]
1379:Generated_Source\PSoC4/RTC.c ****     tmpVar = RTC_SECONDS_PER_NONLEAP_YEAR;
 2823              		.loc 2 1379 0
 2824 0014 9C4B     		ldr	r3, .L180+4
 2825 0016 7B66     		str	r3, [r7, #100]
1380:Generated_Source\PSoC4/RTC.c **** 
1381:Generated_Source\PSoC4/RTC.c ****     /* Calculates current year value. Variable tmpYear
1382:Generated_Source\PSoC4/RTC.c ****     *  increments while it contains value greater than number
1383:Generated_Source\PSoC4/RTC.c ****     *  of seconds in current year.
1384:Generated_Source\PSoC4/RTC.c ****     */
1385:Generated_Source\PSoC4/RTC.c ****     while(unixTime > tmpVar)
 2826              		.loc 2 1385 0
 2827 0018 19E0     		b	.L151
 2828              	.L153:
1386:Generated_Source\PSoC4/RTC.c ****     {
1387:Generated_Source\PSoC4/RTC.c ****         unixTime -= tmpVar;
 2829              		.loc 2 1387 0
 2830 001a 7B6E     		ldr	r3, [r7, #100]
 2831 001c BB60     		str	r3, [r7, #8]
 2832 001e 0023     		movs	r3, #0
 2833 0020 FB60     		str	r3, [r7, #12]
 2834 0022 BB6C     		ldr	r3, [r7, #72]
 2835 0024 FC6C     		ldr	r4, [r7, #76]
 2836 0026 B968     		ldr	r1, [r7, #8]
 2837 0028 FA68     		ldr	r2, [r7, #12]
 2838 002a 5B1A     		subs	r3, r3, r1
 2839 002c 9441     		sbcs	r4, r4, r2
 2840 002e BB64     		str	r3, [r7, #72]
 2841 0030 FC64     		str	r4, [r7, #76]
1388:Generated_Source\PSoC4/RTC.c ****         tmpYear++;
 2842              		.loc 2 1388 0
 2843 0032 BB6E     		ldr	r3, [r7, #104]
 2844 0034 0133     		adds	r3, r3, #1
 2845 0036 BB66     		str	r3, [r7, #104]
1389:Generated_Source\PSoC4/RTC.c **** 
1390:Generated_Source\PSoC4/RTC.c ****         if(0u != RTC_LeapYear(tmpYear))
 2846              		.loc 2 1390 0
 2847 0038 BB6E     		ldr	r3, [r7, #104]
 2848 003a 1800     		movs	r0, r3
 2849 003c FFF7FEFF 		bl	RTC_LeapYear
 2850 0040 031E     		subs	r3, r0, #0
 2851 0042 02D0     		beq	.L152
1391:Generated_Source\PSoC4/RTC.c ****         {
1392:Generated_Source\PSoC4/RTC.c ****             tmpVar = RTC_SECONDS_PER_LEAP_YEAR;
 2852              		.loc 2 1392 0
 2853 0044 914B     		ldr	r3, .L180+8
 2854 0046 7B66     		str	r3, [r7, #100]
ARM GAS  C:\Users\okuntso\AppData\Local\Temp\ccSegaCM.s 			page 97


 2855 0048 01E0     		b	.L151
 2856              	.L152:
1393:Generated_Source\PSoC4/RTC.c ****         }
1394:Generated_Source\PSoC4/RTC.c ****         else
1395:Generated_Source\PSoC4/RTC.c ****         {
1396:Generated_Source\PSoC4/RTC.c ****             tmpVar = RTC_SECONDS_PER_NONLEAP_YEAR;
 2857              		.loc 2 1396 0
 2858 004a 8F4B     		ldr	r3, .L180+4
 2859 004c 7B66     		str	r3, [r7, #100]
 2860              	.L151:
1385:Generated_Source\PSoC4/RTC.c ****     {
 2861              		.loc 2 1385 0
 2862 004e 7B6E     		ldr	r3, [r7, #100]
 2863 0050 1D00     		movs	r5, r3
 2864 0052 0023     		movs	r3, #0
 2865 0054 1E00     		movs	r6, r3
 2866 0056 FB6C     		ldr	r3, [r7, #76]
 2867 0058 B342     		cmp	r3, r6
 2868 005a DED8     		bhi	.L153
 2869 005c FB6C     		ldr	r3, [r7, #76]
 2870 005e B342     		cmp	r3, r6
 2871 0060 02D1     		bne	.L174
 2872 0062 BB6C     		ldr	r3, [r7, #72]
 2873 0064 AB42     		cmp	r3, r5
 2874 0066 D8D8     		bhi	.L153
 2875              	.L174:
1397:Generated_Source\PSoC4/RTC.c ****         }
1398:Generated_Source\PSoC4/RTC.c **** 
1399:Generated_Source\PSoC4/RTC.c ****     }
1400:Generated_Source\PSoC4/RTC.c **** 
1401:Generated_Source\PSoC4/RTC.c ****     /* Calculates current month value. tmpMonth variable increments
1402:Generated_Source\PSoC4/RTC.c ****      * while unixTime variable value is greater than time
1403:Generated_Source\PSoC4/RTC.c ****      * interval from beginning of current year to beginning of
1404:Generated_Source\PSoC4/RTC.c ****      * current month
1405:Generated_Source\PSoC4/RTC.c ****     */
1406:Generated_Source\PSoC4/RTC.c ****     tmpMonth = (uint32)RTC_JANUARY;
 2876              		.loc 2 1406 0
 2877 0068 0123     		movs	r3, #1
 2878 006a FB66     		str	r3, [r7, #108]
1407:Generated_Source\PSoC4/RTC.c ****     tmpVar = RTC_DaysInMonth(tmpMonth, tmpYear) * RTC_SECONDS_PER_DAY;
 2879              		.loc 2 1407 0
 2880 006c BA6E     		ldr	r2, [r7, #104]
 2881 006e FB6E     		ldr	r3, [r7, #108]
 2882 0070 1100     		movs	r1, r2
 2883 0072 1800     		movs	r0, r3
 2884 0074 FFF7FEFF 		bl	RTC_DaysInMonth
 2885 0078 0200     		movs	r2, r0
 2886 007a 854B     		ldr	r3, .L180+12
 2887 007c 5343     		muls	r3, r2
 2888 007e 7B66     		str	r3, [r7, #100]
1408:Generated_Source\PSoC4/RTC.c **** 
1409:Generated_Source\PSoC4/RTC.c ****     while(unixTime >= tmpVar)
 2889              		.loc 2 1409 0
 2890 0080 18E0     		b	.L155
 2891              	.L156:
1410:Generated_Source\PSoC4/RTC.c ****     {
1411:Generated_Source\PSoC4/RTC.c ****         unixTime -= tmpVar;
ARM GAS  C:\Users\okuntso\AppData\Local\Temp\ccSegaCM.s 			page 98


 2892              		.loc 2 1411 0
 2893 0082 7B6E     		ldr	r3, [r7, #100]
 2894 0084 3B60     		str	r3, [r7]
 2895 0086 0023     		movs	r3, #0
 2896 0088 7B60     		str	r3, [r7, #4]
 2897 008a BB6C     		ldr	r3, [r7, #72]
 2898 008c FC6C     		ldr	r4, [r7, #76]
 2899 008e 3968     		ldr	r1, [r7]
 2900 0090 7A68     		ldr	r2, [r7, #4]
 2901 0092 5B1A     		subs	r3, r3, r1
 2902 0094 9441     		sbcs	r4, r4, r2
 2903 0096 BB64     		str	r3, [r7, #72]
 2904 0098 FC64     		str	r4, [r7, #76]
1412:Generated_Source\PSoC4/RTC.c ****         tmpMonth++;
 2905              		.loc 2 1412 0
 2906 009a FB6E     		ldr	r3, [r7, #108]
 2907 009c 0133     		adds	r3, r3, #1
 2908 009e FB66     		str	r3, [r7, #108]
1413:Generated_Source\PSoC4/RTC.c ****         tmpVar = RTC_DaysInMonth(tmpMonth, tmpYear) * RTC_SECONDS_PER_DAY;
 2909              		.loc 2 1413 0
 2910 00a0 BA6E     		ldr	r2, [r7, #104]
 2911 00a2 FB6E     		ldr	r3, [r7, #108]
 2912 00a4 1100     		movs	r1, r2
 2913 00a6 1800     		movs	r0, r3
 2914 00a8 FFF7FEFF 		bl	RTC_DaysInMonth
 2915 00ac 0200     		movs	r2, r0
 2916 00ae 784B     		ldr	r3, .L180+12
 2917 00b0 5343     		muls	r3, r2
 2918 00b2 7B66     		str	r3, [r7, #100]
 2919              	.L155:
1409:Generated_Source\PSoC4/RTC.c ****     {
 2920              		.loc 2 1409 0
 2921 00b4 7B6E     		ldr	r3, [r7, #100]
 2922 00b6 3B64     		str	r3, [r7, #64]
 2923 00b8 0023     		movs	r3, #0
 2924 00ba 7B64     		str	r3, [r7, #68]
 2925 00bc FB6C     		ldr	r3, [r7, #76]
 2926 00be 7A6C     		ldr	r2, [r7, #68]
 2927 00c0 9342     		cmp	r3, r2
 2928 00c2 07D3     		bcc	.L175
 2929 00c4 FB6C     		ldr	r3, [r7, #76]
 2930 00c6 7A6C     		ldr	r2, [r7, #68]
 2931 00c8 9342     		cmp	r3, r2
 2932 00ca DAD1     		bne	.L156
 2933 00cc BB6C     		ldr	r3, [r7, #72]
 2934 00ce 3A6C     		ldr	r2, [r7, #64]
 2935 00d0 9342     		cmp	r3, r2
 2936 00d2 D6D2     		bcs	.L156
 2937              	.L175:
1414:Generated_Source\PSoC4/RTC.c ****     }
1415:Generated_Source\PSoC4/RTC.c **** 
1416:Generated_Source\PSoC4/RTC.c ****     /* Calculates current day value. */
1417:Generated_Source\PSoC4/RTC.c ****     tmpDay = (unixTime / RTC_SECONDS_PER_DAY);
 2938              		.loc 2 1417 0
 2939 00d4 B86C     		ldr	r0, [r7, #72]
 2940 00d6 F96C     		ldr	r1, [r7, #76]
 2941 00d8 6D4A     		ldr	r2, .L180+12
ARM GAS  C:\Users\okuntso\AppData\Local\Temp\ccSegaCM.s 			page 99


 2942 00da 0023     		movs	r3, #0
 2943 00dc FFF7FEFF 		bl	__aeabi_uldivmod
 2944 00e0 0300     		movs	r3, r0
 2945 00e2 0C00     		movs	r4, r1
 2946 00e4 3B66     		str	r3, [r7, #96]
1418:Generated_Source\PSoC4/RTC.c ****     tmpVar = tmpDay * RTC_SECONDS_PER_DAY;
 2947              		.loc 2 1418 0
 2948 00e6 3A6E     		ldr	r2, [r7, #96]
 2949 00e8 694B     		ldr	r3, .L180+12
 2950 00ea 5343     		muls	r3, r2
 2951 00ec 7B66     		str	r3, [r7, #100]
1419:Generated_Source\PSoC4/RTC.c ****     unixTime -= (unixTime >= tmpVar) ? tmpVar : 0u;
 2952              		.loc 2 1419 0
 2953 00ee 7B6E     		ldr	r3, [r7, #100]
 2954 00f0 BB63     		str	r3, [r7, #56]
 2955 00f2 0023     		movs	r3, #0
 2956 00f4 FB63     		str	r3, [r7, #60]
 2957 00f6 FB6C     		ldr	r3, [r7, #76]
 2958 00f8 FA6B     		ldr	r2, [r7, #60]
 2959 00fa 9342     		cmp	r3, r2
 2960 00fc 0CD3     		bcc	.L158
 2961 00fe FB6C     		ldr	r3, [r7, #76]
 2962 0100 FA6B     		ldr	r2, [r7, #60]
 2963 0102 9342     		cmp	r3, r2
 2964 0104 03D1     		bne	.L176
 2965 0106 BB6C     		ldr	r3, [r7, #72]
 2966 0108 BA6B     		ldr	r2, [r7, #56]
 2967 010a 9342     		cmp	r3, r2
 2968 010c 04D3     		bcc	.L158
 2969              	.L176:
 2970              		.loc 2 1419 0 is_stmt 0 discriminator 1
 2971 010e 7B6E     		ldr	r3, [r7, #100]
 2972 0110 3B62     		str	r3, [r7, #32]
 2973 0112 0023     		movs	r3, #0
 2974 0114 7B62     		str	r3, [r7, #36]
 2975 0116 03E0     		b	.L160
 2976              	.L158:
 2977              		.loc 2 1419 0 discriminator 2
 2978 0118 0023     		movs	r3, #0
 2979 011a 0024     		movs	r4, #0
 2980 011c 3B62     		str	r3, [r7, #32]
 2981 011e 7C62     		str	r4, [r7, #36]
 2982              	.L160:
 2983              		.loc 2 1419 0 discriminator 4
 2984 0120 BB6C     		ldr	r3, [r7, #72]
 2985 0122 FC6C     		ldr	r4, [r7, #76]
 2986 0124 396A     		ldr	r1, [r7, #32]
 2987 0126 7A6A     		ldr	r2, [r7, #36]
 2988 0128 5B1A     		subs	r3, r3, r1
 2989 012a 9441     		sbcs	r4, r4, r2
 2990 012c BB64     		str	r3, [r7, #72]
 2991 012e FC64     		str	r4, [r7, #76]
1420:Generated_Source\PSoC4/RTC.c ****     tmpDay += 1u;
 2992              		.loc 2 1420 0 is_stmt 1 discriminator 4
 2993 0130 3B6E     		ldr	r3, [r7, #96]
 2994 0132 0133     		adds	r3, r3, #1
 2995 0134 3B66     		str	r3, [r7, #96]
ARM GAS  C:\Users\okuntso\AppData\Local\Temp\ccSegaCM.s 			page 100


1421:Generated_Source\PSoC4/RTC.c **** 
1422:Generated_Source\PSoC4/RTC.c ****     /* Calculates current hour value. If function works in 12-Hour mode,
1423:Generated_Source\PSoC4/RTC.c ****      * it converts time to 12-Hours mode and calculates AmPm status */
1424:Generated_Source\PSoC4/RTC.c ****     tmpHour = unixTime / RTC_SECONDS_PER_HOUR;
 2996              		.loc 2 1424 0 discriminator 4
 2997 0136 B86C     		ldr	r0, [r7, #72]
 2998 0138 F96C     		ldr	r1, [r7, #76]
 2999 013a E122     		movs	r2, #225
 3000 013c 1201     		lsls	r2, r2, #4
 3001 013e 0023     		movs	r3, #0
 3002 0140 FFF7FEFF 		bl	__aeabi_uldivmod
 3003 0144 0300     		movs	r3, r0
 3004 0146 0C00     		movs	r4, r1
 3005 0148 7B67     		str	r3, [r7, #116]
1425:Generated_Source\PSoC4/RTC.c ****     tmpVar  = tmpHour * RTC_SECONDS_PER_HOUR;
 3006              		.loc 2 1425 0 discriminator 4
 3007 014a 7B6F     		ldr	r3, [r7, #116]
 3008 014c E122     		movs	r2, #225
 3009 014e 1201     		lsls	r2, r2, #4
 3010 0150 5343     		muls	r3, r2
 3011 0152 7B66     		str	r3, [r7, #100]
1426:Generated_Source\PSoC4/RTC.c ****     if((uint32)RTC_24_HOURS_FORMAT != timeFormat)
 3012              		.loc 2 1426 0 discriminator 4
 3013 0154 9023     		movs	r3, #144
 3014 0156 FB18     		adds	r3, r7, r3
 3015 0158 1B68     		ldr	r3, [r3]
 3016 015a 002B     		cmp	r3, #0
 3017 015c 1DD0     		beq	.L161
1427:Generated_Source\PSoC4/RTC.c ****     {
1428:Generated_Source\PSoC4/RTC.c ****         if(unixTime > RTC_UNIX_TIME_PM)
 3018              		.loc 2 1428 0
 3019 015e FB6C     		ldr	r3, [r7, #76]
 3020 0160 002B     		cmp	r3, #0
 3021 0162 06D1     		bne	.L177
 3022 0164 FB6C     		ldr	r3, [r7, #76]
 3023 0166 002B     		cmp	r3, #0
 3024 0168 0ED1     		bne	.L162
 3025 016a BB6C     		ldr	r3, [r7, #72]
 3026 016c 494A     		ldr	r2, .L180+16
 3027 016e 9342     		cmp	r3, r2
 3028 0170 0AD9     		bls	.L162
 3029              	.L177:
1429:Generated_Source\PSoC4/RTC.c ****         {
1430:Generated_Source\PSoC4/RTC.c ****             tmpAmPmState = RTC_PM;
 3030              		.loc 2 1430 0
 3031 0172 0123     		movs	r3, #1
 3032 0174 3B67     		str	r3, [r7, #112]
1431:Generated_Source\PSoC4/RTC.c ****             tmpHour = (tmpHour > 12u) ? (tmpHour - 12u) : tmpHour;
 3033              		.loc 2 1431 0
 3034 0176 7B6F     		ldr	r3, [r7, #116]
 3035 0178 0C2B     		cmp	r3, #12
 3036 017a 02D9     		bls	.L164
 3037              		.loc 2 1431 0 is_stmt 0 discriminator 1
 3038 017c 7B6F     		ldr	r3, [r7, #116]
 3039 017e 0C3B     		subs	r3, r3, #12
 3040 0180 00E0     		b	.L165
 3041              	.L164:
ARM GAS  C:\Users\okuntso\AppData\Local\Temp\ccSegaCM.s 			page 101


 3042              		.loc 2 1431 0 discriminator 2
 3043 0182 7B6F     		ldr	r3, [r7, #116]
 3044              	.L165:
 3045              		.loc 2 1431 0 discriminator 4
 3046 0184 7B67     		str	r3, [r7, #116]
 3047 0186 08E0     		b	.L161
 3048              	.L162:
1432:Generated_Source\PSoC4/RTC.c ****         }
1433:Generated_Source\PSoC4/RTC.c ****         else
1434:Generated_Source\PSoC4/RTC.c ****         {
1435:Generated_Source\PSoC4/RTC.c ****             tmpAmPmState = RTC_AM;
 3049              		.loc 2 1435 0 is_stmt 1
 3050 0188 0023     		movs	r3, #0
 3051 018a 3B67     		str	r3, [r7, #112]
1436:Generated_Source\PSoC4/RTC.c ****             tmpHour = (0u != tmpHour) ? tmpHour : 12u;
 3052              		.loc 2 1436 0
 3053 018c 7B6F     		ldr	r3, [r7, #116]
 3054 018e 002B     		cmp	r3, #0
 3055 0190 01D0     		beq	.L166
 3056              		.loc 2 1436 0 is_stmt 0 discriminator 1
 3057 0192 7B6F     		ldr	r3, [r7, #116]
 3058 0194 00E0     		b	.L167
 3059              	.L166:
 3060              		.loc 2 1436 0 discriminator 2
 3061 0196 0C23     		movs	r3, #12
 3062              	.L167:
 3063              		.loc 2 1436 0 discriminator 4
 3064 0198 7B67     		str	r3, [r7, #116]
 3065              	.L161:
1437:Generated_Source\PSoC4/RTC.c ****         }
1438:Generated_Source\PSoC4/RTC.c ****     }
1439:Generated_Source\PSoC4/RTC.c ****     unixTime -= (unixTime >= tmpVar) ? tmpVar : 0u;
 3066              		.loc 2 1439 0 is_stmt 1
 3067 019a 7B6E     		ldr	r3, [r7, #100]
 3068 019c 3B63     		str	r3, [r7, #48]
 3069 019e 0023     		movs	r3, #0
 3070 01a0 7B63     		str	r3, [r7, #52]
 3071 01a2 FB6C     		ldr	r3, [r7, #76]
 3072 01a4 7A6B     		ldr	r2, [r7, #52]
 3073 01a6 9342     		cmp	r3, r2
 3074 01a8 0CD3     		bcc	.L168
 3075 01aa FB6C     		ldr	r3, [r7, #76]
 3076 01ac 7A6B     		ldr	r2, [r7, #52]
 3077 01ae 9342     		cmp	r3, r2
 3078 01b0 03D1     		bne	.L178
 3079 01b2 BB6C     		ldr	r3, [r7, #72]
 3080 01b4 3A6B     		ldr	r2, [r7, #48]
 3081 01b6 9342     		cmp	r3, r2
 3082 01b8 04D3     		bcc	.L168
 3083              	.L178:
 3084              		.loc 2 1439 0 is_stmt 0 discriminator 1
 3085 01ba 7B6E     		ldr	r3, [r7, #100]
 3086 01bc BB61     		str	r3, [r7, #24]
 3087 01be 0023     		movs	r3, #0
 3088 01c0 FB61     		str	r3, [r7, #28]
 3089 01c2 03E0     		b	.L170
 3090              	.L168:
ARM GAS  C:\Users\okuntso\AppData\Local\Temp\ccSegaCM.s 			page 102


 3091              		.loc 2 1439 0 discriminator 2
 3092 01c4 0023     		movs	r3, #0
 3093 01c6 0024     		movs	r4, #0
 3094 01c8 BB61     		str	r3, [r7, #24]
 3095 01ca FC61     		str	r4, [r7, #28]
 3096              	.L170:
 3097              		.loc 2 1439 0 discriminator 4
 3098 01cc BB6C     		ldr	r3, [r7, #72]
 3099 01ce FC6C     		ldr	r4, [r7, #76]
 3100 01d0 B969     		ldr	r1, [r7, #24]
 3101 01d2 FA69     		ldr	r2, [r7, #28]
 3102 01d4 5B1A     		subs	r3, r3, r1
 3103 01d6 9441     		sbcs	r4, r4, r2
 3104 01d8 BB64     		str	r3, [r7, #72]
 3105 01da FC64     		str	r4, [r7, #76]
1440:Generated_Source\PSoC4/RTC.c **** 
1441:Generated_Source\PSoC4/RTC.c ****     /* Calculates current minute.  */
1442:Generated_Source\PSoC4/RTC.c ****     tmpMinute = unixTime / RTC_SECONDS_PER_MINUTE;
 3106              		.loc 2 1442 0 is_stmt 1 discriminator 4
 3107 01dc B86C     		ldr	r0, [r7, #72]
 3108 01de F96C     		ldr	r1, [r7, #76]
 3109 01e0 3C22     		movs	r2, #60
 3110 01e2 0023     		movs	r3, #0
 3111 01e4 FFF7FEFF 		bl	__aeabi_uldivmod
 3112 01e8 0300     		movs	r3, r0
 3113 01ea 0C00     		movs	r4, r1
 3114 01ec FB65     		str	r3, [r7, #92]
1443:Generated_Source\PSoC4/RTC.c ****     tmpVar = tmpMinute * RTC_SECONDS_PER_MINUTE;
 3115              		.loc 2 1443 0 discriminator 4
 3116 01ee FA6D     		ldr	r2, [r7, #92]
 3117 01f0 1300     		movs	r3, r2
 3118 01f2 1B01     		lsls	r3, r3, #4
 3119 01f4 9B1A     		subs	r3, r3, r2
 3120 01f6 9B00     		lsls	r3, r3, #2
 3121 01f8 7B66     		str	r3, [r7, #100]
1444:Generated_Source\PSoC4/RTC.c **** 
1445:Generated_Source\PSoC4/RTC.c ****     /* Calculates current second. */
1446:Generated_Source\PSoC4/RTC.c ****     unixTime -= (unixTime >= tmpVar) ? tmpVar : 0u;
 3122              		.loc 2 1446 0 discriminator 4
 3123 01fa 7B6E     		ldr	r3, [r7, #100]
 3124 01fc BB62     		str	r3, [r7, #40]
 3125 01fe 0023     		movs	r3, #0
 3126 0200 FB62     		str	r3, [r7, #44]
 3127 0202 FB6C     		ldr	r3, [r7, #76]
 3128 0204 FA6A     		ldr	r2, [r7, #44]
 3129 0206 9342     		cmp	r3, r2
 3130 0208 0CD3     		bcc	.L171
 3131 020a FB6C     		ldr	r3, [r7, #76]
 3132 020c FA6A     		ldr	r2, [r7, #44]
 3133 020e 9342     		cmp	r3, r2
 3134 0210 03D1     		bne	.L179
 3135 0212 BB6C     		ldr	r3, [r7, #72]
 3136 0214 BA6A     		ldr	r2, [r7, #40]
 3137 0216 9342     		cmp	r3, r2
 3138 0218 04D3     		bcc	.L171
 3139              	.L179:
 3140              		.loc 2 1446 0 is_stmt 0 discriminator 1
ARM GAS  C:\Users\okuntso\AppData\Local\Temp\ccSegaCM.s 			page 103


 3141 021a 7B6E     		ldr	r3, [r7, #100]
 3142 021c 3B61     		str	r3, [r7, #16]
 3143 021e 0023     		movs	r3, #0
 3144 0220 7B61     		str	r3, [r7, #20]
 3145 0222 03E0     		b	.L173
 3146              	.L171:
 3147              		.loc 2 1446 0 discriminator 2
 3148 0224 0023     		movs	r3, #0
 3149 0226 0024     		movs	r4, #0
 3150 0228 3B61     		str	r3, [r7, #16]
 3151 022a 7C61     		str	r4, [r7, #20]
 3152              	.L173:
 3153              		.loc 2 1446 0 discriminator 4
 3154 022c BB6C     		ldr	r3, [r7, #72]
 3155 022e FC6C     		ldr	r4, [r7, #76]
 3156 0230 3969     		ldr	r1, [r7, #16]
 3157 0232 7A69     		ldr	r2, [r7, #20]
 3158 0234 5B1A     		subs	r3, r3, r1
 3159 0236 9441     		sbcs	r4, r4, r2
 3160 0238 BB64     		str	r3, [r7, #72]
 3161 023a FC64     		str	r4, [r7, #76]
1447:Generated_Source\PSoC4/RTC.c **** 
1448:Generated_Source\PSoC4/RTC.c **** 
1449:Generated_Source\PSoC4/RTC.c ****     dateTime->date = RTC_ConstructDate(tmpMonth, tmpDay, tmpYear);
 3162              		.loc 2 1449 0 is_stmt 1 discriminator 4
 3163 023c BA6E     		ldr	r2, [r7, #104]
 3164 023e 396E     		ldr	r1, [r7, #96]
 3165 0240 FB6E     		ldr	r3, [r7, #108]
 3166 0242 1800     		movs	r0, r3
 3167 0244 FFF7FEFF 		bl	RTC_ConstructDate
 3168 0248 0200     		movs	r2, r0
 3169 024a 7B6D     		ldr	r3, [r7, #84]
 3170 024c 5A60     		str	r2, [r3, #4]
1450:Generated_Source\PSoC4/RTC.c ****     dateTime->time = RTC_ConstructTime(timeFormat, tmpAmPmState, tmpHour, tmpMinute, unixTime);
 3171              		.loc 2 1450 0 discriminator 4
 3172 024e BB6C     		ldr	r3, [r7, #72]
 3173 0250 FC6D     		ldr	r4, [r7, #92]
 3174 0252 7A6F     		ldr	r2, [r7, #116]
 3175 0254 396F     		ldr	r1, [r7, #112]
 3176 0256 9020     		movs	r0, #144
 3177 0258 3818     		adds	r0, r7, r0
 3178 025a 0068     		ldr	r0, [r0]
 3179 025c 0093     		str	r3, [sp]
 3180 025e 2300     		movs	r3, r4
 3181 0260 FFF7FEFF 		bl	RTC_ConstructTime
 3182 0264 0200     		movs	r2, r0
 3183 0266 7B6D     		ldr	r3, [r7, #84]
 3184 0268 1A60     		str	r2, [r3]
1451:Generated_Source\PSoC4/RTC.c ****     dateTime->dayOfWeek = RTC_GetDayOfWeek(tmpDay, tmpMonth, tmpYear);
 3185              		.loc 2 1451 0 discriminator 4
 3186 026a BA6E     		ldr	r2, [r7, #104]
 3187 026c F96E     		ldr	r1, [r7, #108]
 3188 026e 3B6E     		ldr	r3, [r7, #96]
 3189 0270 1800     		movs	r0, r3
 3190 0272 FFF7FEFF 		bl	RTC_GetDayOfWeek
 3191 0276 0200     		movs	r2, r0
 3192 0278 7B6D     		ldr	r3, [r7, #84]
ARM GAS  C:\Users\okuntso\AppData\Local\Temp\ccSegaCM.s 			page 104


 3193 027a 9A60     		str	r2, [r3, #8]
1452:Generated_Source\PSoC4/RTC.c **** }
 3194              		.loc 2 1452 0 discriminator 4
 3195 027c C046     		nop
 3196 027e BD46     		mov	sp, r7
 3197 0280 1FB0     		add	sp, sp, #124
 3198              		@ sp needed
 3199 0282 F0BD     		pop	{r4, r5, r6, r7, pc}
 3200              	.L181:
 3201              		.align	2
 3202              	.L180:
 3203 0284 B2070000 		.word	1970
 3204 0288 8033E101 		.word	31536000
 3205 028c 0085E201 		.word	31622400
 3206 0290 80510100 		.word	86400
 3207 0294 C1A80000 		.word	43201
 3208              		.cfi_endproc
 3209              	.LFE46:
 3210              		.size	RTC_UnixToDateTime, .-RTC_UnixToDateTime
 3211              		.section	.text.RTC_RelativeToFixed,"ax",%progbits
 3212              		.align	2
 3213              		.global	RTC_RelativeToFixed
 3214              		.code	16
 3215              		.thumb_func
 3216              		.type	RTC_RelativeToFixed, %function
 3217              	RTC_RelativeToFixed:
 3218              	.LFB47:
1453:Generated_Source\PSoC4/RTC.c **** 
1454:Generated_Source\PSoC4/RTC.c **** 
1455:Generated_Source\PSoC4/RTC.c **** /*******************************************************************************
1456:Generated_Source\PSoC4/RTC.c **** * Function Name: RTC_RelativeToFixed
1457:Generated_Source\PSoC4/RTC.c **** ****************************************************************************//**
1458:Generated_Source\PSoC4/RTC.c **** *
1459:Generated_Source\PSoC4/RTC.c **** * \brief
1460:Generated_Source\PSoC4/RTC.c **** * This is an internal function to convert a relative date into
1461:Generated_Source\PSoC4/RTC.c **** * a fixed date.
1462:Generated_Source\PSoC4/RTC.c **** *
1463:Generated_Source\PSoC4/RTC.c **** * \param dayOfWeek A day of a week <br>
1464:Generated_Source\PSoC4/RTC.c **** *                 RTC_SUNDAY <br>
1465:Generated_Source\PSoC4/RTC.c **** *                 RTC_MONDAY <br>
1466:Generated_Source\PSoC4/RTC.c **** *                 RTC_TUESDAY <br>
1467:Generated_Source\PSoC4/RTC.c **** *                 RTC_WEDNESDAY <br>
1468:Generated_Source\PSoC4/RTC.c **** *                 RTC_THURSDAY <br>
1469:Generated_Source\PSoC4/RTC.c **** *                 RTC_FRIDAY <br>
1470:Generated_Source\PSoC4/RTC.c **** *                 RTC_SATURDAY <br>
1471:Generated_Source\PSoC4/RTC.c **** *
1472:Generated_Source\PSoC4/RTC.c **** *  \param weekOfMonth A week of a month <br>
1473:Generated_Source\PSoC4/RTC.c **** *                 RTC_FIRST <br>
1474:Generated_Source\PSoC4/RTC.c **** *                 RTC_SECOND <br>
1475:Generated_Source\PSoC4/RTC.c **** *                 RTC_THIRD <br>
1476:Generated_Source\PSoC4/RTC.c **** *                 RTC_FOURTH <br>
1477:Generated_Source\PSoC4/RTC.c **** *                 RTC_FIFTH <br>
1478:Generated_Source\PSoC4/RTC.c **** *                 RTC_LAST <br>
1479:Generated_Source\PSoC4/RTC.c **** *
1480:Generated_Source\PSoC4/RTC.c **** * \param month A month of a year <br>
1481:Generated_Source\PSoC4/RTC.c **** *                  RTC_JANUARY <br>
1482:Generated_Source\PSoC4/RTC.c **** *                  RTC_FEBRUARY <br>
ARM GAS  C:\Users\okuntso\AppData\Local\Temp\ccSegaCM.s 			page 105


1483:Generated_Source\PSoC4/RTC.c **** *                  RTC_MARCH <br>
1484:Generated_Source\PSoC4/RTC.c **** *                  RTC_APRIL <br>
1485:Generated_Source\PSoC4/RTC.c **** *                  RTC_MAY <br>
1486:Generated_Source\PSoC4/RTC.c **** *                  RTC_JUNE <br>
1487:Generated_Source\PSoC4/RTC.c **** *                  RTC_JULY <br>
1488:Generated_Source\PSoC4/RTC.c **** *                  RTC_AUGUST <br>
1489:Generated_Source\PSoC4/RTC.c **** *                  RTC_SEPTEMBER <br>
1490:Generated_Source\PSoC4/RTC.c **** *                  RTC_OCTOBER <br>
1491:Generated_Source\PSoC4/RTC.c **** *                  RTC_NOVEMBER <br>
1492:Generated_Source\PSoC4/RTC.c **** *                  RTC_DECEMBER <br>
1493:Generated_Source\PSoC4/RTC.c **** *
1494:Generated_Source\PSoC4/RTC.c **** * \param year A year value.
1495:Generated_Source\PSoC4/RTC.c **** *
1496:Generated_Source\PSoC4/RTC.c **** * \return A date in the "date format".
1497:Generated_Source\PSoC4/RTC.c **** *
1498:Generated_Source\PSoC4/RTC.c **** *******************************************************************************/
1499:Generated_Source\PSoC4/RTC.c **** uint32 RTC_RelativeToFixed(uint32 dayOfWeek, uint32 weekOfMonth, uint32 month, uint32 year)
1500:Generated_Source\PSoC4/RTC.c **** {
 3219              		.loc 2 1500 0
 3220              		.cfi_startproc
 3221              		@ args = 0, pretend = 0, frame = 40
 3222              		@ frame_needed = 1, uses_anonymous_args = 0
 3223 0000 80B5     		push	{r7, lr}
 3224              		.cfi_def_cfa_offset 8
 3225              		.cfi_offset 7, -8
 3226              		.cfi_offset 14, -4
 3227 0002 8AB0     		sub	sp, sp, #40
 3228              		.cfi_def_cfa_offset 48
 3229 0004 00AF     		add	r7, sp, #0
 3230              		.cfi_def_cfa_register 7
 3231 0006 F860     		str	r0, [r7, #12]
 3232 0008 B960     		str	r1, [r7, #8]
 3233 000a 7A60     		str	r2, [r7, #4]
 3234 000c 3B60     		str	r3, [r7]
1501:Generated_Source\PSoC4/RTC.c ****     uint32 curDay;
1502:Generated_Source\PSoC4/RTC.c ****     uint32 curWeek;
1503:Generated_Source\PSoC4/RTC.c ****     uint32 daysInMonth;
1504:Generated_Source\PSoC4/RTC.c ****     uint32 dayOfMonthTmp;
1505:Generated_Source\PSoC4/RTC.c **** 
1506:Generated_Source\PSoC4/RTC.c ****     uint32 retVal;
1507:Generated_Source\PSoC4/RTC.c **** 
1508:Generated_Source\PSoC4/RTC.c ****     curDay      = 1u;
 3235              		.loc 2 1508 0
 3236 000e 0123     		movs	r3, #1
 3237 0010 7B62     		str	r3, [r7, #36]
1509:Generated_Source\PSoC4/RTC.c ****     curWeek     = (uint32)RTC_FIRST;
 3238              		.loc 2 1509 0
 3239 0012 0123     		movs	r3, #1
 3240 0014 3B62     		str	r3, [r7, #32]
1510:Generated_Source\PSoC4/RTC.c ****     daysInMonth = RTC_DaysInMonth(month, year);
 3241              		.loc 2 1510 0
 3242 0016 3A68     		ldr	r2, [r7]
 3243 0018 7B68     		ldr	r3, [r7, #4]
 3244 001a 1100     		movs	r1, r2
 3245 001c 1800     		movs	r0, r3
 3246 001e FFF7FEFF 		bl	RTC_DaysInMonth
 3247 0022 0300     		movs	r3, r0
ARM GAS  C:\Users\okuntso\AppData\Local\Temp\ccSegaCM.s 			page 106


 3248 0024 BB61     		str	r3, [r7, #24]
1511:Generated_Source\PSoC4/RTC.c ****     dayOfMonthTmp = curDay;
 3249              		.loc 2 1511 0
 3250 0026 7B6A     		ldr	r3, [r7, #36]
 3251 0028 FB61     		str	r3, [r7, #28]
1512:Generated_Source\PSoC4/RTC.c **** 
1513:Generated_Source\PSoC4/RTC.c ****     while((curWeek <= weekOfMonth) && (curDay <= daysInMonth))
 3252              		.loc 2 1513 0
 3253 002a 11E0     		b	.L183
 3254              	.L186:
1514:Generated_Source\PSoC4/RTC.c ****     {
1515:Generated_Source\PSoC4/RTC.c ****         if(dayOfWeek == RTC_GetDayOfWeek(curDay, month, year))
 3255              		.loc 2 1515 0
 3256 002c 3A68     		ldr	r2, [r7]
 3257 002e 7968     		ldr	r1, [r7, #4]
 3258 0030 7B6A     		ldr	r3, [r7, #36]
 3259 0032 1800     		movs	r0, r3
 3260 0034 FFF7FEFF 		bl	RTC_GetDayOfWeek
 3261 0038 0200     		movs	r2, r0
 3262 003a FB68     		ldr	r3, [r7, #12]
 3263 003c 9A42     		cmp	r2, r3
 3264 003e 04D1     		bne	.L184
1516:Generated_Source\PSoC4/RTC.c ****         {
1517:Generated_Source\PSoC4/RTC.c ****             dayOfMonthTmp = curDay;
 3265              		.loc 2 1517 0
 3266 0040 7B6A     		ldr	r3, [r7, #36]
 3267 0042 FB61     		str	r3, [r7, #28]
1518:Generated_Source\PSoC4/RTC.c ****             curWeek++;
 3268              		.loc 2 1518 0
 3269 0044 3B6A     		ldr	r3, [r7, #32]
 3270 0046 0133     		adds	r3, r3, #1
 3271 0048 3B62     		str	r3, [r7, #32]
 3272              	.L184:
1519:Generated_Source\PSoC4/RTC.c ****         }
1520:Generated_Source\PSoC4/RTC.c ****         curDay++;
 3273              		.loc 2 1520 0
 3274 004a 7B6A     		ldr	r3, [r7, #36]
 3275 004c 0133     		adds	r3, r3, #1
 3276 004e 7B62     		str	r3, [r7, #36]
 3277              	.L183:
1513:Generated_Source\PSoC4/RTC.c ****     {
 3278              		.loc 2 1513 0
 3279 0050 3A6A     		ldr	r2, [r7, #32]
 3280 0052 BB68     		ldr	r3, [r7, #8]
 3281 0054 9A42     		cmp	r2, r3
 3282 0056 03D8     		bhi	.L185
1513:Generated_Source\PSoC4/RTC.c ****     {
 3283              		.loc 2 1513 0 is_stmt 0 discriminator 1
 3284 0058 7A6A     		ldr	r2, [r7, #36]
 3285 005a BB69     		ldr	r3, [r7, #24]
 3286 005c 9A42     		cmp	r2, r3
 3287 005e E5D9     		bls	.L186
 3288              	.L185:
1521:Generated_Source\PSoC4/RTC.c ****     }
1522:Generated_Source\PSoC4/RTC.c **** 
1523:Generated_Source\PSoC4/RTC.c ****     retVal = RTC_ConstructDate(month, dayOfMonthTmp, year);
 3289              		.loc 2 1523 0 is_stmt 1
ARM GAS  C:\Users\okuntso\AppData\Local\Temp\ccSegaCM.s 			page 107


 3290 0060 3A68     		ldr	r2, [r7]
 3291 0062 F969     		ldr	r1, [r7, #28]
 3292 0064 7B68     		ldr	r3, [r7, #4]
 3293 0066 1800     		movs	r0, r3
 3294 0068 FFF7FEFF 		bl	RTC_ConstructDate
 3295 006c 0300     		movs	r3, r0
 3296 006e 7B61     		str	r3, [r7, #20]
1524:Generated_Source\PSoC4/RTC.c **** 
1525:Generated_Source\PSoC4/RTC.c ****     return(retVal);
 3297              		.loc 2 1525 0
 3298 0070 7B69     		ldr	r3, [r7, #20]
1526:Generated_Source\PSoC4/RTC.c **** }
 3299              		.loc 2 1526 0
 3300 0072 1800     		movs	r0, r3
 3301 0074 BD46     		mov	sp, r7
 3302 0076 0AB0     		add	sp, sp, #40
 3303              		@ sp needed
 3304 0078 80BD     		pop	{r7, pc}
 3305              		.cfi_endproc
 3306              	.LFE47:
 3307              		.size	RTC_RelativeToFixed, .-RTC_RelativeToFixed
 3308 007a C046     		.section	.text.RTC_DaysInMonth,"ax",%progbits
 3309              		.align	2
 3310              		.global	RTC_DaysInMonth
 3311              		.code	16
 3312              		.thumb_func
 3313              		.type	RTC_DaysInMonth, %function
 3314              	RTC_DaysInMonth:
 3315              	.LFB48:
1527:Generated_Source\PSoC4/RTC.c **** 
1528:Generated_Source\PSoC4/RTC.c **** 
1529:Generated_Source\PSoC4/RTC.c **** /*******************************************************************************
1530:Generated_Source\PSoC4/RTC.c **** * Function Name: RTC_DaysInMonth
1531:Generated_Source\PSoC4/RTC.c **** ****************************************************************************//**
1532:Generated_Source\PSoC4/RTC.c **** *
1533:Generated_Source\PSoC4/RTC.c **** * \brief
1534:Generated_Source\PSoC4/RTC.c **** *  Returns a number of days in a month passed through the parameters.
1535:Generated_Source\PSoC4/RTC.c **** *
1536:Generated_Source\PSoC4/RTC.c **** * \param
1537:Generated_Source\PSoC4/RTC.c **** *  month A month of a year
1538:Generated_Source\PSoC4/RTC.c **** *  RTC_JANUARY
1539:Generated_Source\PSoC4/RTC.c **** *  RTC_FEBRUARY
1540:Generated_Source\PSoC4/RTC.c **** *  RTC_MARCH
1541:Generated_Source\PSoC4/RTC.c **** *  RTC_APRIL
1542:Generated_Source\PSoC4/RTC.c **** *  RTC_MAY
1543:Generated_Source\PSoC4/RTC.c **** *  RTC_JUNE
1544:Generated_Source\PSoC4/RTC.c **** *  RTC_JULY
1545:Generated_Source\PSoC4/RTC.c **** *  RTC_AUGUST
1546:Generated_Source\PSoC4/RTC.c **** *  RTC_SEPTEMBER
1547:Generated_Source\PSoC4/RTC.c **** *  RTC_OCTOBER
1548:Generated_Source\PSoC4/RTC.c **** *  RTC_NOVEMBER
1549:Generated_Source\PSoC4/RTC.c **** *  RTC_DECEMBER
1550:Generated_Source\PSoC4/RTC.c **** *
1551:Generated_Source\PSoC4/RTC.c **** * \param
1552:Generated_Source\PSoC4/RTC.c **** * year A year value.
1553:Generated_Source\PSoC4/RTC.c **** *
1554:Generated_Source\PSoC4/RTC.c **** * \return
ARM GAS  C:\Users\okuntso\AppData\Local\Temp\ccSegaCM.s 			page 108


1555:Generated_Source\PSoC4/RTC.c **** *  A number of days in a month in the year passed through the parameters.
1556:Generated_Source\PSoC4/RTC.c **** *
1557:Generated_Source\PSoC4/RTC.c **** *******************************************************************************/
1558:Generated_Source\PSoC4/RTC.c **** uint32 RTC_DaysInMonth(uint32 month, uint32 year)
1559:Generated_Source\PSoC4/RTC.c **** {
 3316              		.loc 2 1559 0
 3317              		.cfi_startproc
 3318              		@ args = 0, pretend = 0, frame = 16
 3319              		@ frame_needed = 1, uses_anonymous_args = 0
 3320 0000 80B5     		push	{r7, lr}
 3321              		.cfi_def_cfa_offset 8
 3322              		.cfi_offset 7, -8
 3323              		.cfi_offset 14, -4
 3324 0002 84B0     		sub	sp, sp, #16
 3325              		.cfi_def_cfa_offset 24
 3326 0004 00AF     		add	r7, sp, #0
 3327              		.cfi_def_cfa_register 7
 3328 0006 7860     		str	r0, [r7, #4]
 3329 0008 3960     		str	r1, [r7]
1560:Generated_Source\PSoC4/RTC.c ****     uint32 retVal;
1561:Generated_Source\PSoC4/RTC.c **** 
1562:Generated_Source\PSoC4/RTC.c ****     retVal = RTC_daysInMonthTbl[month - 1u];
 3330              		.loc 2 1562 0
 3331 000a 7B68     		ldr	r3, [r7, #4]
 3332 000c 013B     		subs	r3, r3, #1
 3333 000e 0A4A     		ldr	r2, .L191
 3334 0010 D35C     		ldrb	r3, [r2, r3]
 3335 0012 FB60     		str	r3, [r7, #12]
1563:Generated_Source\PSoC4/RTC.c ****     if((uint32)RTC_FEBRUARY == month)
 3336              		.loc 2 1563 0
 3337 0014 7B68     		ldr	r3, [r7, #4]
 3338 0016 022B     		cmp	r3, #2
 3339 0018 08D1     		bne	.L189
1564:Generated_Source\PSoC4/RTC.c ****     {
1565:Generated_Source\PSoC4/RTC.c ****         if(0u != RTC_LeapYear(year))
 3340              		.loc 2 1565 0
 3341 001a 3B68     		ldr	r3, [r7]
 3342 001c 1800     		movs	r0, r3
 3343 001e FFF7FEFF 		bl	RTC_LeapYear
 3344 0022 031E     		subs	r3, r0, #0
 3345 0024 02D0     		beq	.L189
1566:Generated_Source\PSoC4/RTC.c ****         {
1567:Generated_Source\PSoC4/RTC.c ****             retVal++;
 3346              		.loc 2 1567 0
 3347 0026 FB68     		ldr	r3, [r7, #12]
 3348 0028 0133     		adds	r3, r3, #1
 3349 002a FB60     		str	r3, [r7, #12]
 3350              	.L189:
1568:Generated_Source\PSoC4/RTC.c ****         }
1569:Generated_Source\PSoC4/RTC.c ****     }
1570:Generated_Source\PSoC4/RTC.c **** 
1571:Generated_Source\PSoC4/RTC.c ****     return(retVal);
 3351              		.loc 2 1571 0
 3352 002c FB68     		ldr	r3, [r7, #12]
1572:Generated_Source\PSoC4/RTC.c **** }
 3353              		.loc 2 1572 0
 3354 002e 1800     		movs	r0, r3
ARM GAS  C:\Users\okuntso\AppData\Local\Temp\ccSegaCM.s 			page 109


 3355 0030 BD46     		mov	sp, r7
 3356 0032 04B0     		add	sp, sp, #16
 3357              		@ sp needed
 3358 0034 80BD     		pop	{r7, pc}
 3359              	.L192:
 3360 0036 C046     		.align	2
 3361              	.L191:
 3362 0038 00000000 		.word	RTC_daysInMonthTbl
 3363              		.cfi_endproc
 3364              	.LFE48:
 3365              		.size	RTC_DaysInMonth, .-RTC_DaysInMonth
 3366              		.section	.text.RTC_DaysBeforeMonth,"ax",%progbits
 3367              		.align	2
 3368              		.global	RTC_DaysBeforeMonth
 3369              		.code	16
 3370              		.thumb_func
 3371              		.type	RTC_DaysBeforeMonth, %function
 3372              	RTC_DaysBeforeMonth:
 3373              	.LFB49:
1573:Generated_Source\PSoC4/RTC.c **** 
1574:Generated_Source\PSoC4/RTC.c **** 
1575:Generated_Source\PSoC4/RTC.c **** /*******************************************************************************
1576:Generated_Source\PSoC4/RTC.c **** * Function Name: RTC_DaysBeforeMonth
1577:Generated_Source\PSoC4/RTC.c **** ****************************************************************************//**
1578:Generated_Source\PSoC4/RTC.c **** *
1579:Generated_Source\PSoC4/RTC.c **** * \brief
1580:Generated_Source\PSoC4/RTC.c **** *  Calculates how many days elapsed from the beginning of the year to the
1581:Generated_Source\PSoC4/RTC.c **** *  beginning of the current month.
1582:Generated_Source\PSoC4/RTC.c **** *
1583:Generated_Source\PSoC4/RTC.c **** * \param
1584:Generated_Source\PSoC4/RTC.c **** *  month A month of a year
1585:Generated_Source\PSoC4/RTC.c **** *  RTC_JANUARY
1586:Generated_Source\PSoC4/RTC.c **** *  RTC_FEBRUARY
1587:Generated_Source\PSoC4/RTC.c **** *  RTC_MARCH
1588:Generated_Source\PSoC4/RTC.c **** *  RTC_APRIL
1589:Generated_Source\PSoC4/RTC.c **** *  RTC_MAY
1590:Generated_Source\PSoC4/RTC.c **** *  RTC_JUNE
1591:Generated_Source\PSoC4/RTC.c **** *  RTC_JULY
1592:Generated_Source\PSoC4/RTC.c **** *  RTC_AUGUST
1593:Generated_Source\PSoC4/RTC.c **** *  RTC_SEPTEMBER
1594:Generated_Source\PSoC4/RTC.c **** *  RTC_OCTOBER
1595:Generated_Source\PSoC4/RTC.c **** *  RTC_NOVEMBER
1596:Generated_Source\PSoC4/RTC.c **** *  RTC_DECEMBER
1597:Generated_Source\PSoC4/RTC.c **** *
1598:Generated_Source\PSoC4/RTC.c **** * \param
1599:Generated_Source\PSoC4/RTC.c **** * year A year value.
1600:Generated_Source\PSoC4/RTC.c **** *
1601:Generated_Source\PSoC4/RTC.c **** * \return
1602:Generated_Source\PSoC4/RTC.c **** *  A number of days elapsed from the beginning of the year to the
1603:Generated_Source\PSoC4/RTC.c **** *  beginning of the current month passed through the parameters.
1604:Generated_Source\PSoC4/RTC.c **** *
1605:Generated_Source\PSoC4/RTC.c **** *******************************************************************************/
1606:Generated_Source\PSoC4/RTC.c **** uint32 RTC_DaysBeforeMonth(uint32 month, uint32 year)
1607:Generated_Source\PSoC4/RTC.c **** {
 3374              		.loc 2 1607 0
 3375              		.cfi_startproc
 3376              		@ args = 0, pretend = 0, frame = 16
ARM GAS  C:\Users\okuntso\AppData\Local\Temp\ccSegaCM.s 			page 110


 3377              		@ frame_needed = 1, uses_anonymous_args = 0
 3378 0000 80B5     		push	{r7, lr}
 3379              		.cfi_def_cfa_offset 8
 3380              		.cfi_offset 7, -8
 3381              		.cfi_offset 14, -4
 3382 0002 84B0     		sub	sp, sp, #16
 3383              		.cfi_def_cfa_offset 24
 3384 0004 00AF     		add	r7, sp, #0
 3385              		.cfi_def_cfa_register 7
 3386 0006 7860     		str	r0, [r7, #4]
 3387 0008 3960     		str	r1, [r7]
1608:Generated_Source\PSoC4/RTC.c ****     uint32 retVal;
1609:Generated_Source\PSoC4/RTC.c **** 
1610:Generated_Source\PSoC4/RTC.c ****     retVal = RTC_daysBeforeMonthTbl[month];
 3388              		.loc 2 1610 0
 3389 000a 0B4B     		ldr	r3, .L196
 3390 000c 7A68     		ldr	r2, [r7, #4]
 3391 000e 5200     		lsls	r2, r2, #1
 3392 0010 D35A     		ldrh	r3, [r2, r3]
 3393 0012 FB60     		str	r3, [r7, #12]
1611:Generated_Source\PSoC4/RTC.c ****     if((0u == RTC_LeapYear(year)) && (month > (uint32)RTC_FEBRUARY))
 3394              		.loc 2 1611 0
 3395 0014 3B68     		ldr	r3, [r7]
 3396 0016 1800     		movs	r0, r3
 3397 0018 FFF7FEFF 		bl	RTC_LeapYear
 3398 001c 031E     		subs	r3, r0, #0
 3399 001e 05D1     		bne	.L194
 3400              		.loc 2 1611 0 is_stmt 0 discriminator 1
 3401 0020 7B68     		ldr	r3, [r7, #4]
 3402 0022 022B     		cmp	r3, #2
 3403 0024 02D9     		bls	.L194
1612:Generated_Source\PSoC4/RTC.c ****     {
1613:Generated_Source\PSoC4/RTC.c ****         retVal++;
 3404              		.loc 2 1613 0 is_stmt 1
 3405 0026 FB68     		ldr	r3, [r7, #12]
 3406 0028 0133     		adds	r3, r3, #1
 3407 002a FB60     		str	r3, [r7, #12]
 3408              	.L194:
1614:Generated_Source\PSoC4/RTC.c ****     }
1615:Generated_Source\PSoC4/RTC.c **** 
1616:Generated_Source\PSoC4/RTC.c ****     return(retVal);
 3409              		.loc 2 1616 0
 3410 002c FB68     		ldr	r3, [r7, #12]
1617:Generated_Source\PSoC4/RTC.c **** }
 3411              		.loc 2 1617 0
 3412 002e 1800     		movs	r0, r3
 3413 0030 BD46     		mov	sp, r7
 3414 0032 04B0     		add	sp, sp, #16
 3415              		@ sp needed
 3416 0034 80BD     		pop	{r7, pc}
 3417              	.L197:
 3418 0036 C046     		.align	2
 3419              	.L196:
 3420 0038 00000000 		.word	RTC_daysBeforeMonthTbl
 3421              		.cfi_endproc
 3422              	.LFE49:
 3423              		.size	RTC_DaysBeforeMonth, .-RTC_DaysBeforeMonth
ARM GAS  C:\Users\okuntso\AppData\Local\Temp\ccSegaCM.s 			page 111


 3424              		.bss
 3425              		.align	2
 3426              	RTC_currentTickNumber.5197:
 3427 0020 00000000 		.space	4
 3428              		.text
 3429              	.Letext0:
 3430              		.file 3 "Generated_Source\\PSoC4/cytypes.h"
 3431              		.section	.debug_info,"",%progbits
 3432              	.Ldebug_info0:
 3433 0000 060C0000 		.4byte	0xc06
 3434 0004 0400     		.2byte	0x4
 3435 0006 00000000 		.4byte	.Ldebug_abbrev0
 3436 000a 04       		.byte	0x4
 3437 000b 01       		.uleb128 0x1
 3438 000c 77030000 		.4byte	.LASF120
 3439 0010 0C       		.byte	0xc
 3440 0011 63040000 		.4byte	.LASF121
 3441 0015 32020000 		.4byte	.LASF122
 3442 0019 00000000 		.4byte	.Ldebug_ranges0+0
 3443 001d 00000000 		.4byte	0
 3444 0021 00000000 		.4byte	.Ldebug_line0
 3445 0025 02       		.uleb128 0x2
 3446 0026 01       		.byte	0x1
 3447 0027 06       		.byte	0x6
 3448 0028 68010000 		.4byte	.LASF0
 3449 002c 02       		.uleb128 0x2
 3450 002d 01       		.byte	0x1
 3451 002e 08       		.byte	0x8
 3452 002f 28050000 		.4byte	.LASF1
 3453 0033 02       		.uleb128 0x2
 3454 0034 02       		.byte	0x2
 3455 0035 05       		.byte	0x5
 3456 0036 6D050000 		.4byte	.LASF2
 3457 003a 02       		.uleb128 0x2
 3458 003b 02       		.byte	0x2
 3459 003c 07       		.byte	0x7
 3460 003d 4D030000 		.4byte	.LASF3
 3461 0041 02       		.uleb128 0x2
 3462 0042 04       		.byte	0x4
 3463 0043 05       		.byte	0x5
 3464 0044 CE010000 		.4byte	.LASF4
 3465 0048 02       		.uleb128 0x2
 3466 0049 04       		.byte	0x4
 3467 004a 07       		.byte	0x7
 3468 004b 20030000 		.4byte	.LASF5
 3469 004f 02       		.uleb128 0x2
 3470 0050 08       		.byte	0x8
 3471 0051 05       		.byte	0x5
 3472 0052 5A010000 		.4byte	.LASF6
 3473 0056 02       		.uleb128 0x2
 3474 0057 08       		.byte	0x8
 3475 0058 07       		.byte	0x7
 3476 0059 CD000000 		.4byte	.LASF7
 3477 005d 03       		.uleb128 0x3
 3478 005e 04       		.byte	0x4
 3479 005f 05       		.byte	0x5
 3480 0060 696E7400 		.ascii	"int\000"
ARM GAS  C:\Users\okuntso\AppData\Local\Temp\ccSegaCM.s 			page 112


 3481 0064 02       		.uleb128 0x2
 3482 0065 04       		.byte	0x4
 3483 0066 07       		.byte	0x7
 3484 0067 EC020000 		.4byte	.LASF8
 3485 006b 04       		.uleb128 0x4
 3486 006c FA010000 		.4byte	.LASF9
 3487 0070 03       		.byte	0x3
 3488 0071 D201     		.2byte	0x1d2
 3489 0073 2C000000 		.4byte	0x2c
 3490 0077 04       		.uleb128 0x4
 3491 0078 1D000000 		.4byte	.LASF10
 3492 007c 03       		.byte	0x3
 3493 007d D301     		.2byte	0x1d3
 3494 007f 3A000000 		.4byte	0x3a
 3495 0083 04       		.uleb128 0x4
 3496 0084 93020000 		.4byte	.LASF11
 3497 0088 03       		.byte	0x3
 3498 0089 D401     		.2byte	0x1d4
 3499 008b 48000000 		.4byte	0x48
 3500 008f 02       		.uleb128 0x2
 3501 0090 04       		.byte	0x4
 3502 0091 04       		.byte	0x4
 3503 0092 E5040000 		.4byte	.LASF12
 3504 0096 02       		.uleb128 0x2
 3505 0097 08       		.byte	0x8
 3506 0098 04       		.byte	0x4
 3507 0099 2B020000 		.4byte	.LASF13
 3508 009d 04       		.uleb128 0x4
 3509 009e 66050000 		.4byte	.LASF14
 3510 00a2 03       		.byte	0x3
 3511 00a3 DE01     		.2byte	0x1de
 3512 00a5 56000000 		.4byte	0x56
 3513 00a9 02       		.uleb128 0x2
 3514 00aa 01       		.byte	0x1
 3515 00ab 08       		.byte	0x8
 3516 00ac FF050000 		.4byte	.LASF15
 3517 00b0 05       		.uleb128 0x5
 3518 00b1 83000000 		.4byte	0x83
 3519 00b5 02       		.uleb128 0x2
 3520 00b6 08       		.byte	0x8
 3521 00b7 04       		.byte	0x4
 3522 00b8 80040000 		.4byte	.LASF16
 3523 00bc 02       		.uleb128 0x2
 3524 00bd 04       		.byte	0x4
 3525 00be 07       		.byte	0x7
 3526 00bf 46040000 		.4byte	.LASF17
 3527 00c3 06       		.uleb128 0x6
 3528 00c4 01       		.byte	0x1
 3529 00c5 2C000000 		.4byte	0x2c
 3530 00c9 01       		.byte	0x1
 3531 00ca 1B       		.byte	0x1b
 3532 00cb DC000000 		.4byte	0xdc
 3533 00cf 07       		.uleb128 0x7
 3534 00d0 8C040000 		.4byte	.LASF18
 3535 00d4 00       		.byte	0
 3536 00d5 07       		.uleb128 0x7
 3537 00d6 80050000 		.4byte	.LASF19
ARM GAS  C:\Users\okuntso\AppData\Local\Temp\ccSegaCM.s 			page 113


 3538 00da 01       		.byte	0x1
 3539 00db 00       		.byte	0
 3540 00dc 08       		.uleb128 0x8
 3541 00dd 22040000 		.4byte	.LASF20
 3542 00e1 01       		.byte	0x1
 3543 00e2 1E       		.byte	0x1e
 3544 00e3 C3000000 		.4byte	0xc3
 3545 00e7 09       		.uleb128 0x9
 3546 00e8 10       		.byte	0x10
 3547 00e9 01       		.byte	0x1
 3548 00ea 29       		.byte	0x29
 3549 00eb 20010000 		.4byte	0x120
 3550 00ef 0A       		.uleb128 0xa
 3551 00f0 DB040000 		.4byte	.LASF21
 3552 00f4 01       		.byte	0x1
 3553 00f5 2B       		.byte	0x2b
 3554 00f6 83000000 		.4byte	0x83
 3555 00fa 00       		.byte	0
 3556 00fb 0A       		.uleb128 0xa
 3557 00fc 60030000 		.4byte	.LASF22
 3558 0100 01       		.byte	0x1
 3559 0101 2C       		.byte	0x2c
 3560 0102 83000000 		.4byte	0x83
 3561 0106 04       		.byte	0x4
 3562 0107 0A       		.uleb128 0xa
 3563 0108 18040000 		.4byte	.LASF23
 3564 010c 01       		.byte	0x1
 3565 010d 2D       		.byte	0x2d
 3566 010e 83000000 		.4byte	0x83
 3567 0112 08       		.byte	0x8
 3568 0113 0A       		.uleb128 0xa
 3569 0114 A2060000 		.4byte	.LASF24
 3570 0118 01       		.byte	0x1
 3571 0119 2E       		.byte	0x2e
 3572 011a 83000000 		.4byte	0x83
 3573 011e 0C       		.byte	0xc
 3574 011f 00       		.byte	0
 3575 0120 08       		.uleb128 0x8
 3576 0121 E5050000 		.4byte	.LASF25
 3577 0125 01       		.byte	0x1
 3578 0126 2F       		.byte	0x2f
 3579 0127 E7000000 		.4byte	0xe7
 3580 012b 09       		.uleb128 0x9
 3581 012c 18       		.byte	0x18
 3582 012d 01       		.byte	0x1
 3583 012e 36       		.byte	0x36
 3584 012f 7C010000 		.4byte	0x17c
 3585 0133 0A       		.uleb128 0xa
 3586 0134 E0040000 		.4byte	.LASF26
 3587 0138 01       		.byte	0x1
 3588 0139 38       		.byte	0x38
 3589 013a 83000000 		.4byte	0x83
 3590 013e 00       		.byte	0
 3591 013f 0A       		.uleb128 0xa
 3592 0140 18040000 		.4byte	.LASF23
 3593 0144 01       		.byte	0x1
 3594 0145 39       		.byte	0x39
ARM GAS  C:\Users\okuntso\AppData\Local\Temp\ccSegaCM.s 			page 114


 3595 0146 83000000 		.4byte	0x83
 3596 014a 04       		.byte	0x4
 3597 014b 0A       		.uleb128 0xa
 3598 014c EB040000 		.4byte	.LASF27
 3599 0150 01       		.byte	0x1
 3600 0151 3A       		.byte	0x3a
 3601 0152 83000000 		.4byte	0x83
 3602 0156 08       		.byte	0x8
 3603 0157 0A       		.uleb128 0xa
 3604 0158 0E010000 		.4byte	.LASF28
 3605 015c 01       		.byte	0x1
 3606 015d 3B       		.byte	0x3b
 3607 015e 83000000 		.4byte	0x83
 3608 0162 0C       		.byte	0xc
 3609 0163 0A       		.uleb128 0xa
 3610 0164 E6020000 		.4byte	.LASF29
 3611 0168 01       		.byte	0x1
 3612 0169 3C       		.byte	0x3c
 3613 016a 83000000 		.4byte	0x83
 3614 016e 10       		.byte	0x10
 3615 016f 0A       		.uleb128 0xa
 3616 0170 F9020000 		.4byte	.LASF30
 3617 0174 01       		.byte	0x1
 3618 0175 3D       		.byte	0x3d
 3619 0176 6B000000 		.4byte	0x6b
 3620 017a 14       		.byte	0x14
 3621 017b 00       		.byte	0
 3622 017c 08       		.uleb128 0x8
 3623 017d B8060000 		.4byte	.LASF31
 3624 0181 01       		.byte	0x1
 3625 0182 3E       		.byte	0x3e
 3626 0183 2B010000 		.4byte	0x12b
 3627 0187 0B       		.uleb128 0xb
 3628 0188 E4060000 		.4byte	.LASF33
 3629 018c 01       		.byte	0x1
 3630 018d BA01     		.2byte	0x1ba
 3631 018f 83000000 		.4byte	0x83
 3632 0193 00000000 		.4byte	.LFB0
 3633 0197 24000000 		.4byte	.LFE0-.LFB0
 3634 019b 01       		.uleb128 0x1
 3635 019c 9C       		.byte	0x9c
 3636 019d C0010000 		.4byte	0x1c0
 3637 01a1 0C       		.uleb128 0xc
 3638 01a2 76617200 		.ascii	"var\000"
 3639 01a6 01       		.byte	0x1
 3640 01a7 BA01     		.2byte	0x1ba
 3641 01a9 83000000 		.4byte	0x83
 3642 01ad 02       		.uleb128 0x2
 3643 01ae 91       		.byte	0x91
 3644 01af 74       		.sleb128 -12
 3645 01b0 0D       		.uleb128 0xd
 3646 01b1 CE020000 		.4byte	.LASF32
 3647 01b5 01       		.byte	0x1
 3648 01b6 BA01     		.2byte	0x1ba
 3649 01b8 83000000 		.4byte	0x83
 3650 01bc 02       		.uleb128 0x2
 3651 01bd 91       		.byte	0x91
ARM GAS  C:\Users\okuntso\AppData\Local\Temp\ccSegaCM.s 			page 115


 3652 01be 70       		.sleb128 -16
 3653 01bf 00       		.byte	0
 3654 01c0 0E       		.uleb128 0xe
 3655 01c1 71000000 		.4byte	.LASF34
 3656 01c5 01       		.byte	0x1
 3657 01c6 D201     		.2byte	0x1d2
 3658 01c8 83000000 		.4byte	0x83
 3659 01cc 00000000 		.4byte	.LFB1
 3660 01d0 42000000 		.4byte	.LFE1-.LFB1
 3661 01d4 01       		.uleb128 0x1
 3662 01d5 9C       		.byte	0x9c
 3663 01d6 F9010000 		.4byte	0x1f9
 3664 01da 0D       		.uleb128 0xd
 3665 01db AD010000 		.4byte	.LASF35
 3666 01df 01       		.byte	0x1
 3667 01e0 D201     		.2byte	0x1d2
 3668 01e2 83000000 		.4byte	0x83
 3669 01e6 02       		.uleb128 0x2
 3670 01e7 91       		.byte	0x91
 3671 01e8 6C       		.sleb128 -20
 3672 01e9 0F       		.uleb128 0xf
 3673 01ea 24000000 		.4byte	.LASF38
 3674 01ee 01       		.byte	0x1
 3675 01ef D401     		.2byte	0x1d4
 3676 01f1 83000000 		.4byte	0x83
 3677 01f5 02       		.uleb128 0x2
 3678 01f6 91       		.byte	0x91
 3679 01f7 74       		.sleb128 -12
 3680 01f8 00       		.byte	0
 3681 01f9 0B       		.uleb128 0xb
 3682 01fa 2B000000 		.4byte	.LASF36
 3683 01fe 01       		.byte	0x1
 3684 01ff F101     		.2byte	0x1f1
 3685 0201 83000000 		.4byte	0x83
 3686 0205 00000000 		.4byte	.LFB2
 3687 0209 30000000 		.4byte	.LFE2-.LFB2
 3688 020d 01       		.uleb128 0x1
 3689 020e 9C       		.byte	0x9c
 3690 020f 32020000 		.4byte	0x232
 3691 0213 0D       		.uleb128 0xd
 3692 0214 5C050000 		.4byte	.LASF37
 3693 0218 01       		.byte	0x1
 3694 0219 F101     		.2byte	0x1f1
 3695 021b 83000000 		.4byte	0x83
 3696 021f 02       		.uleb128 0x2
 3697 0220 91       		.byte	0x91
 3698 0221 6C       		.sleb128 -20
 3699 0222 0F       		.uleb128 0xf
 3700 0223 24000000 		.4byte	.LASF38
 3701 0227 01       		.byte	0x1
 3702 0228 F301     		.2byte	0x1f3
 3703 022a 83000000 		.4byte	0x83
 3704 022e 02       		.uleb128 0x2
 3705 022f 91       		.byte	0x91
 3706 0230 74       		.sleb128 -12
 3707 0231 00       		.byte	0
 3708 0232 0B       		.uleb128 0xb
ARM GAS  C:\Users\okuntso\AppData\Local\Temp\ccSegaCM.s 			page 116


 3709 0233 EB010000 		.4byte	.LASF39
 3710 0237 01       		.byte	0x1
 3711 0238 0B02     		.2byte	0x20b
 3712 023a 83000000 		.4byte	0x83
 3713 023e 00000000 		.4byte	.LFB3
 3714 0242 32000000 		.4byte	.LFE3-.LFB3
 3715 0246 01       		.uleb128 0x1
 3716 0247 9C       		.byte	0x9c
 3717 0248 6B020000 		.4byte	0x26b
 3718 024c 0D       		.uleb128 0xd
 3719 024d 5C050000 		.4byte	.LASF37
 3720 0251 01       		.byte	0x1
 3721 0252 0B02     		.2byte	0x20b
 3722 0254 83000000 		.4byte	0x83
 3723 0258 02       		.uleb128 0x2
 3724 0259 91       		.byte	0x91
 3725 025a 6C       		.sleb128 -20
 3726 025b 0F       		.uleb128 0xf
 3727 025c 24000000 		.4byte	.LASF38
 3728 0260 01       		.byte	0x1
 3729 0261 0D02     		.2byte	0x20d
 3730 0263 83000000 		.4byte	0x83
 3731 0267 02       		.uleb128 0x2
 3732 0268 91       		.byte	0x91
 3733 0269 74       		.sleb128 -12
 3734 026a 00       		.byte	0
 3735 026b 0B       		.uleb128 0xb
 3736 026c 32030000 		.4byte	.LASF40
 3737 0270 01       		.byte	0x1
 3738 0271 2402     		.2byte	0x224
 3739 0273 83000000 		.4byte	0x83
 3740 0277 00000000 		.4byte	.LFB4
 3741 027b 32000000 		.4byte	.LFE4-.LFB4
 3742 027f 01       		.uleb128 0x1
 3743 0280 9C       		.byte	0x9c
 3744 0281 A4020000 		.4byte	0x2a4
 3745 0285 0D       		.uleb128 0xd
 3746 0286 5C050000 		.4byte	.LASF37
 3747 028a 01       		.byte	0x1
 3748 028b 2402     		.2byte	0x224
 3749 028d 83000000 		.4byte	0x83
 3750 0291 02       		.uleb128 0x2
 3751 0292 91       		.byte	0x91
 3752 0293 6C       		.sleb128 -20
 3753 0294 0F       		.uleb128 0xf
 3754 0295 24000000 		.4byte	.LASF38
 3755 0299 01       		.byte	0x1
 3756 029a 2602     		.2byte	0x226
 3757 029c 83000000 		.4byte	0x83
 3758 02a0 02       		.uleb128 0x2
 3759 02a1 91       		.byte	0x91
 3760 02a2 74       		.sleb128 -12
 3761 02a3 00       		.byte	0
 3762 02a4 0E       		.uleb128 0xe
 3763 02a5 88060000 		.4byte	.LASF41
 3764 02a9 01       		.byte	0x1
 3765 02aa 3F02     		.2byte	0x23f
ARM GAS  C:\Users\okuntso\AppData\Local\Temp\ccSegaCM.s 			page 117


 3766 02ac 83000000 		.4byte	0x83
 3767 02b0 00000000 		.4byte	.LFB5
 3768 02b4 20000000 		.4byte	.LFE5-.LFB5
 3769 02b8 01       		.uleb128 0x1
 3770 02b9 9C       		.byte	0x9c
 3771 02ba CE020000 		.4byte	0x2ce
 3772 02be 0D       		.uleb128 0xd
 3773 02bf 5C050000 		.4byte	.LASF37
 3774 02c3 01       		.byte	0x1
 3775 02c4 3F02     		.2byte	0x23f
 3776 02c6 83000000 		.4byte	0x83
 3777 02ca 02       		.uleb128 0x2
 3778 02cb 91       		.byte	0x91
 3779 02cc 74       		.sleb128 -12
 3780 02cd 00       		.byte	0
 3781 02ce 0B       		.uleb128 0xb
 3782 02cf 63060000 		.4byte	.LASF42
 3783 02d3 01       		.byte	0x1
 3784 02d4 5302     		.2byte	0x253
 3785 02d6 83000000 		.4byte	0x83
 3786 02da 00000000 		.4byte	.LFB6
 3787 02de 32000000 		.4byte	.LFE6-.LFB6
 3788 02e2 01       		.uleb128 0x1
 3789 02e3 9C       		.byte	0x9c
 3790 02e4 07030000 		.4byte	0x307
 3791 02e8 0D       		.uleb128 0xd
 3792 02e9 60030000 		.4byte	.LASF22
 3793 02ed 01       		.byte	0x1
 3794 02ee 5302     		.2byte	0x253
 3795 02f0 83000000 		.4byte	0x83
 3796 02f4 02       		.uleb128 0x2
 3797 02f5 91       		.byte	0x91
 3798 02f6 6C       		.sleb128 -20
 3799 02f7 0F       		.uleb128 0xf
 3800 02f8 24000000 		.4byte	.LASF38
 3801 02fc 01       		.byte	0x1
 3802 02fd 5502     		.2byte	0x255
 3803 02ff 83000000 		.4byte	0x83
 3804 0303 02       		.uleb128 0x2
 3805 0304 91       		.byte	0x91
 3806 0305 74       		.sleb128 -12
 3807 0306 00       		.byte	0
 3808 0307 0B       		.uleb128 0xb
 3809 0308 10000000 		.4byte	.LASF43
 3810 030c 01       		.byte	0x1
 3811 030d 6C02     		.2byte	0x26c
 3812 030f 83000000 		.4byte	0x83
 3813 0313 00000000 		.4byte	.LFB7
 3814 0317 32000000 		.4byte	.LFE7-.LFB7
 3815 031b 01       		.uleb128 0x1
 3816 031c 9C       		.byte	0x9c
 3817 031d 40030000 		.4byte	0x340
 3818 0321 0D       		.uleb128 0xd
 3819 0322 60030000 		.4byte	.LASF22
 3820 0326 01       		.byte	0x1
 3821 0327 6C02     		.2byte	0x26c
 3822 0329 83000000 		.4byte	0x83
ARM GAS  C:\Users\okuntso\AppData\Local\Temp\ccSegaCM.s 			page 118


 3823 032d 02       		.uleb128 0x2
 3824 032e 91       		.byte	0x91
 3825 032f 6C       		.sleb128 -20
 3826 0330 0F       		.uleb128 0xf
 3827 0331 24000000 		.4byte	.LASF38
 3828 0335 01       		.byte	0x1
 3829 0336 6E02     		.2byte	0x26e
 3830 0338 83000000 		.4byte	0x83
 3831 033c 02       		.uleb128 0x2
 3832 033d 91       		.byte	0x91
 3833 033e 74       		.sleb128 -12
 3834 033f 00       		.byte	0
 3835 0340 0B       		.uleb128 0xb
 3836 0341 81020000 		.4byte	.LASF44
 3837 0345 01       		.byte	0x1
 3838 0346 8502     		.2byte	0x285
 3839 0348 83000000 		.4byte	0x83
 3840 034c 00000000 		.4byte	.LFB8
 3841 0350 58000000 		.4byte	.LFE8-.LFB8
 3842 0354 01       		.uleb128 0x1
 3843 0355 9C       		.byte	0x9c
 3844 0356 79030000 		.4byte	0x379
 3845 035a 0D       		.uleb128 0xd
 3846 035b 60030000 		.4byte	.LASF22
 3847 035f 01       		.byte	0x1
 3848 0360 8502     		.2byte	0x285
 3849 0362 83000000 		.4byte	0x83
 3850 0366 02       		.uleb128 0x2
 3851 0367 91       		.byte	0x91
 3852 0368 6C       		.sleb128 -20
 3853 0369 0F       		.uleb128 0xf
 3854 036a 24000000 		.4byte	.LASF38
 3855 036e 01       		.byte	0x1
 3856 036f 8702     		.2byte	0x287
 3857 0371 83000000 		.4byte	0x83
 3858 0375 02       		.uleb128 0x2
 3859 0376 91       		.byte	0x91
 3860 0377 74       		.sleb128 -12
 3861 0378 00       		.byte	0
 3862 0379 0B       		.uleb128 0xb
 3863 037a 4C000000 		.4byte	.LASF45
 3864 037e 01       		.byte	0x1
 3865 037f 0304     		.2byte	0x403
 3866 0381 83000000 		.4byte	0x83
 3867 0385 00000000 		.4byte	.LFB22
 3868 0389 20000000 		.4byte	.LFE22-.LFB22
 3869 038d 01       		.uleb128 0x1
 3870 038e 9C       		.byte	0x9c
 3871 038f A3030000 		.4byte	0x3a3
 3872 0393 0D       		.uleb128 0xd
 3873 0394 5C050000 		.4byte	.LASF37
 3874 0398 01       		.byte	0x1
 3875 0399 0304     		.2byte	0x403
 3876 039b 83000000 		.4byte	0x83
 3877 039f 02       		.uleb128 0x2
 3878 03a0 91       		.byte	0x91
 3879 03a1 74       		.sleb128 -12
ARM GAS  C:\Users\okuntso\AppData\Local\Temp\ccSegaCM.s 			page 119


 3880 03a2 00       		.byte	0
 3881 03a3 0E       		.uleb128 0xe
 3882 03a4 4A050000 		.4byte	.LASF46
 3883 03a8 01       		.byte	0x1
 3884 03a9 2904     		.2byte	0x429
 3885 03ab 83000000 		.4byte	0x83
 3886 03af 00000000 		.4byte	.LFB23
 3887 03b3 A0000000 		.4byte	.LFE23-.LFB23
 3888 03b7 01       		.uleb128 0x1
 3889 03b8 9C       		.byte	0x9c
 3890 03b9 18040000 		.4byte	0x418
 3891 03bd 0D       		.uleb128 0xd
 3892 03be F9020000 		.4byte	.LASF30
 3893 03c2 01       		.byte	0x1
 3894 03c3 2904     		.2byte	0x429
 3895 03c5 83000000 		.4byte	0x83
 3896 03c9 02       		.uleb128 0x2
 3897 03ca 91       		.byte	0x91
 3898 03cb 6C       		.sleb128 -20
 3899 03cc 0D       		.uleb128 0xd
 3900 03cd 17050000 		.4byte	.LASF47
 3901 03d1 01       		.byte	0x1
 3902 03d2 2904     		.2byte	0x429
 3903 03d4 83000000 		.4byte	0x83
 3904 03d8 02       		.uleb128 0x2
 3905 03d9 91       		.byte	0x91
 3906 03da 68       		.sleb128 -24
 3907 03db 0D       		.uleb128 0xd
 3908 03dc E0040000 		.4byte	.LASF26
 3909 03e0 01       		.byte	0x1
 3910 03e1 2904     		.2byte	0x429
 3911 03e3 83000000 		.4byte	0x83
 3912 03e7 02       		.uleb128 0x2
 3913 03e8 91       		.byte	0x91
 3914 03e9 64       		.sleb128 -28
 3915 03ea 0C       		.uleb128 0xc
 3916 03eb 6D696E00 		.ascii	"min\000"
 3917 03ef 01       		.byte	0x1
 3918 03f0 2904     		.2byte	0x429
 3919 03f2 83000000 		.4byte	0x83
 3920 03f6 02       		.uleb128 0x2
 3921 03f7 91       		.byte	0x91
 3922 03f8 60       		.sleb128 -32
 3923 03f9 0C       		.uleb128 0xc
 3924 03fa 73656300 		.ascii	"sec\000"
 3925 03fe 01       		.byte	0x1
 3926 03ff 2904     		.2byte	0x429
 3927 0401 83000000 		.4byte	0x83
 3928 0405 02       		.uleb128 0x2
 3929 0406 91       		.byte	0x91
 3930 0407 00       		.sleb128 0
 3931 0408 0F       		.uleb128 0xf
 3932 0409 24000000 		.4byte	.LASF38
 3933 040d 01       		.byte	0x1
 3934 040e 2B04     		.2byte	0x42b
 3935 0410 83000000 		.4byte	0x83
 3936 0414 02       		.uleb128 0x2
ARM GAS  C:\Users\okuntso\AppData\Local\Temp\ccSegaCM.s 			page 120


 3937 0415 91       		.byte	0x91
 3938 0416 74       		.sleb128 -12
 3939 0417 00       		.byte	0
 3940 0418 0E       		.uleb128 0xe
 3941 0419 1F060000 		.4byte	.LASF48
 3942 041d 01       		.byte	0x1
 3943 041e 5204     		.2byte	0x452
 3944 0420 83000000 		.4byte	0x83
 3945 0424 00000000 		.4byte	.LFB24
 3946 0428 D6000000 		.4byte	.LFE24-.LFB24
 3947 042c 01       		.uleb128 0x1
 3948 042d 9C       		.byte	0x9c
 3949 042e 7E040000 		.4byte	0x47e
 3950 0432 0D       		.uleb128 0xd
 3951 0433 E6020000 		.4byte	.LASF29
 3952 0437 01       		.byte	0x1
 3953 0438 5204     		.2byte	0x452
 3954 043a 83000000 		.4byte	0x83
 3955 043e 02       		.uleb128 0x2
 3956 043f 91       		.byte	0x91
 3957 0440 6C       		.sleb128 -20
 3958 0441 0C       		.uleb128 0xc
 3959 0442 64617900 		.ascii	"day\000"
 3960 0446 01       		.byte	0x1
 3961 0447 5204     		.2byte	0x452
 3962 0449 83000000 		.4byte	0x83
 3963 044d 02       		.uleb128 0x2
 3964 044e 91       		.byte	0x91
 3965 044f 68       		.sleb128 -24
 3966 0450 0D       		.uleb128 0xd
 3967 0451 AD010000 		.4byte	.LASF35
 3968 0455 01       		.byte	0x1
 3969 0456 5204     		.2byte	0x452
 3970 0458 83000000 		.4byte	0x83
 3971 045c 02       		.uleb128 0x2
 3972 045d 91       		.byte	0x91
 3973 045e 64       		.sleb128 -28
 3974 045f 0F       		.uleb128 0xf
 3975 0460 24000000 		.4byte	.LASF38
 3976 0464 01       		.byte	0x1
 3977 0465 5404     		.2byte	0x454
 3978 0467 83000000 		.4byte	0x83
 3979 046b 02       		.uleb128 0x2
 3980 046c 91       		.byte	0x91
 3981 046d 70       		.sleb128 -16
 3982 046e 0F       		.uleb128 0xf
 3983 046f A6050000 		.4byte	.LASF49
 3984 0473 01       		.byte	0x1
 3985 0474 5504     		.2byte	0x455
 3986 0476 83000000 		.4byte	0x83
 3987 047a 02       		.uleb128 0x2
 3988 047b 91       		.byte	0x91
 3989 047c 74       		.sleb128 -12
 3990 047d 00       		.byte	0
 3991 047e 0E       		.uleb128 0xe
 3992 047f E4000000 		.4byte	.LASF50
 3993 0483 01       		.byte	0x1
ARM GAS  C:\Users\okuntso\AppData\Local\Temp\ccSegaCM.s 			page 121


 3994 0484 A404     		.2byte	0x4a4
 3995 0486 83000000 		.4byte	0x83
 3996 048a 00000000 		.4byte	.LFB25
 3997 048e 88000000 		.4byte	.LFE25-.LFB25
 3998 0492 01       		.uleb128 0x1
 3999 0493 9C       		.byte	0x9c
 4000 0494 D5040000 		.4byte	0x4d5
 4001 0498 0C       		.uleb128 0xc
 4002 0499 64617900 		.ascii	"day\000"
 4003 049d 01       		.byte	0x1
 4004 049e A404     		.2byte	0x4a4
 4005 04a0 83000000 		.4byte	0x83
 4006 04a4 02       		.uleb128 0x2
 4007 04a5 91       		.byte	0x91
 4008 04a6 64       		.sleb128 -28
 4009 04a7 0D       		.uleb128 0xd
 4010 04a8 E6020000 		.4byte	.LASF29
 4011 04ac 01       		.byte	0x1
 4012 04ad A404     		.2byte	0x4a4
 4013 04af 83000000 		.4byte	0x83
 4014 04b3 02       		.uleb128 0x2
 4015 04b4 91       		.byte	0x91
 4016 04b5 60       		.sleb128 -32
 4017 04b6 0D       		.uleb128 0xd
 4018 04b7 AD010000 		.4byte	.LASF35
 4019 04bb 01       		.byte	0x1
 4020 04bc A404     		.2byte	0x4a4
 4021 04be 83000000 		.4byte	0x83
 4022 04c2 02       		.uleb128 0x2
 4023 04c3 91       		.byte	0x91
 4024 04c4 5C       		.sleb128 -36
 4025 04c5 0F       		.uleb128 0xf
 4026 04c6 24000000 		.4byte	.LASF38
 4027 04ca 01       		.byte	0x1
 4028 04cb A604     		.2byte	0x4a6
 4029 04cd 83000000 		.4byte	0x83
 4030 04d1 02       		.uleb128 0x2
 4031 04d2 91       		.byte	0x91
 4032 04d3 6C       		.sleb128 -20
 4033 04d4 00       		.byte	0
 4034 04d5 10       		.uleb128 0x10
 4035 04d6 97010000 		.4byte	.LASF51
 4036 04da 02       		.byte	0x2
 4037 04db 5A       		.byte	0x5a
 4038 04dc 00000000 		.4byte	.LFB26
 4039 04e0 1C000000 		.4byte	.LFE26-.LFB26
 4040 04e4 01       		.uleb128 0x1
 4041 04e5 9C       		.byte	0x9c
 4042 04e6 11       		.uleb128 0x11
 4043 04e7 77050000 		.4byte	.LASF52
 4044 04eb 02       		.byte	0x2
 4045 04ec 71       		.byte	0x71
 4046 04ed 00000000 		.4byte	.LFB27
 4047 04f1 0A000000 		.4byte	.LFE27-.LFB27
 4048 04f5 01       		.uleb128 0x1
 4049 04f6 9C       		.byte	0x9c
 4050 04f7 12       		.uleb128 0x12
ARM GAS  C:\Users\okuntso\AppData\Local\Temp\ccSegaCM.s 			page 122


 4051 04f8 A6000000 		.4byte	.LASF56
 4052 04fc 02       		.byte	0x2
 4053 04fd 8C       		.byte	0x8c
 4054 04fe 00000000 		.4byte	.LFB28
 4055 0502 50010000 		.4byte	.LFE28-.LFB28
 4056 0506 01       		.uleb128 0x1
 4057 0507 9C       		.byte	0x9c
 4058 0508 37050000 		.4byte	0x537
 4059 050c 13       		.uleb128 0x13
 4060 050d 5E000000 		.4byte	.LASF53
 4061 0511 02       		.byte	0x2
 4062 0512 8E       		.byte	0x8e
 4063 0513 83000000 		.4byte	0x83
 4064 0517 02       		.uleb128 0x2
 4065 0518 91       		.byte	0x91
 4066 0519 6C       		.sleb128 -20
 4067 051a 13       		.uleb128 0x13
 4068 051b C5060000 		.4byte	.LASF54
 4069 051f 02       		.byte	0x2
 4070 0520 8F       		.byte	0x8f
 4071 0521 83000000 		.4byte	0x83
 4072 0525 02       		.uleb128 0x2
 4073 0526 91       		.byte	0x91
 4074 0527 68       		.sleb128 -24
 4075 0528 13       		.uleb128 0x13
 4076 0529 66000000 		.4byte	.LASF55
 4077 052d 02       		.byte	0x2
 4078 052e 92       		.byte	0x92
 4079 052f 7C010000 		.4byte	0x17c
 4080 0533 02       		.uleb128 0x2
 4081 0534 91       		.byte	0x91
 4082 0535 50       		.sleb128 -48
 4083 0536 00       		.byte	0
 4084 0537 12       		.uleb128 0x12
 4085 0538 BB020000 		.4byte	.LASF57
 4086 053c 02       		.byte	0x2
 4087 053d E5       		.byte	0xe5
 4088 053e 00000000 		.4byte	.LFB29
 4089 0542 10010000 		.4byte	.LFE29-.LFB29
 4090 0546 01       		.uleb128 0x1
 4091 0547 9C       		.byte	0x9c
 4092 0548 93050000 		.4byte	0x593
 4093 054c 14       		.uleb128 0x14
 4094 054d 5C050000 		.4byte	.LASF37
 4095 0551 02       		.byte	0x2
 4096 0552 E5       		.byte	0xe5
 4097 0553 83000000 		.4byte	0x83
 4098 0557 02       		.uleb128 0x2
 4099 0558 91       		.byte	0x91
 4100 0559 54       		.sleb128 -44
 4101 055a 14       		.uleb128 0x14
 4102 055b 46060000 		.4byte	.LASF58
 4103 055f 02       		.byte	0x2
 4104 0560 E5       		.byte	0xe5
 4105 0561 83000000 		.4byte	0x83
 4106 0565 02       		.uleb128 0x2
 4107 0566 91       		.byte	0x91
ARM GAS  C:\Users\okuntso\AppData\Local\Temp\ccSegaCM.s 			page 123


 4108 0567 50       		.sleb128 -48
 4109 0568 13       		.uleb128 0x13
 4110 0569 09000000 		.4byte	.LASF59
 4111 056d 02       		.byte	0x2
 4112 056e E7       		.byte	0xe7
 4113 056f 83000000 		.4byte	0x83
 4114 0573 02       		.uleb128 0x2
 4115 0574 91       		.byte	0x91
 4116 0575 64       		.sleb128 -28
 4117 0576 13       		.uleb128 0x13
 4118 0577 05010000 		.4byte	.LASF60
 4119 057b 02       		.byte	0x2
 4120 057c E8       		.byte	0xe8
 4121 057d 83000000 		.4byte	0x83
 4122 0581 02       		.uleb128 0x2
 4123 0582 91       		.byte	0x91
 4124 0583 60       		.sleb128 -32
 4125 0584 13       		.uleb128 0x13
 4126 0585 A2040000 		.4byte	.LASF61
 4127 0589 02       		.byte	0x2
 4128 058a E9       		.byte	0xe9
 4129 058b 83000000 		.4byte	0x83
 4130 058f 02       		.uleb128 0x2
 4131 0590 91       		.byte	0x91
 4132 0591 5C       		.sleb128 -36
 4133 0592 00       		.byte	0
 4134 0593 15       		.uleb128 0x15
 4135 0594 B2010000 		.4byte	.LASF62
 4136 0598 02       		.byte	0x2
 4137 0599 1901     		.2byte	0x119
 4138 059b 00000000 		.4byte	.LFB30
 4139 059f BC000000 		.4byte	.LFE30-.LFB30
 4140 05a3 01       		.uleb128 0x1
 4141 05a4 9C       		.byte	0x9c
 4142 05a5 C8050000 		.4byte	0x5c8
 4143 05a9 0D       		.uleb128 0xd
 4144 05aa 7F060000 		.4byte	.LASF63
 4145 05ae 02       		.byte	0x2
 4146 05af 1901     		.2byte	0x119
 4147 05b1 9D000000 		.4byte	0x9d
 4148 05b5 02       		.uleb128 0x2
 4149 05b6 91       		.byte	0x91
 4150 05b7 58       		.sleb128 -40
 4151 05b8 0F       		.uleb128 0xf
 4152 05b9 D8060000 		.4byte	.LASF64
 4153 05bd 02       		.byte	0x2
 4154 05be 1B01     		.2byte	0x11b
 4155 05c0 20010000 		.4byte	0x120
 4156 05c4 02       		.uleb128 0x2
 4157 05c5 91       		.byte	0x91
 4158 05c6 60       		.sleb128 -32
 4159 05c7 00       		.byte	0
 4160 05c8 16       		.uleb128 0x16
 4161 05c9 F6040000 		.4byte	.LASF68
 4162 05cd 02       		.byte	0x2
 4163 05ce 3E01     		.2byte	0x13e
 4164 05d0 9D000000 		.4byte	0x9d
ARM GAS  C:\Users\okuntso\AppData\Local\Temp\ccSegaCM.s 			page 124


 4165 05d4 00000000 		.4byte	.LFB31
 4166 05d8 18000000 		.4byte	.LFE31-.LFB31
 4167 05dc 01       		.uleb128 0x1
 4168 05dd 9C       		.byte	0x9c
 4169 05de 17       		.uleb128 0x17
 4170 05df 74010000 		.4byte	.LASF65
 4171 05e3 02       		.byte	0x2
 4172 05e4 5A01     		.2byte	0x15a
 4173 05e6 00000000 		.4byte	.LFB32
 4174 05ea 28000000 		.4byte	.LFE32-.LFB32
 4175 05ee 01       		.uleb128 0x1
 4176 05ef 9C       		.byte	0x9c
 4177 05f0 13060000 		.4byte	0x613
 4178 05f4 0D       		.uleb128 0xd
 4179 05f5 65030000 		.4byte	.LASF66
 4180 05f9 02       		.byte	0x2
 4181 05fa 5A01     		.2byte	0x15a
 4182 05fc 83000000 		.4byte	0x83
 4183 0600 02       		.uleb128 0x2
 4184 0601 91       		.byte	0x91
 4185 0602 74       		.sleb128 -12
 4186 0603 0D       		.uleb128 0xd
 4187 0604 08020000 		.4byte	.LASF67
 4188 0608 02       		.byte	0x2
 4189 0609 5A01     		.2byte	0x15a
 4190 060b 83000000 		.4byte	0x83
 4191 060f 02       		.uleb128 0x2
 4192 0610 91       		.byte	0x91
 4193 0611 70       		.sleb128 -16
 4194 0612 00       		.byte	0
 4195 0613 16       		.uleb128 0x16
 4196 0614 3F030000 		.4byte	.LASF69
 4197 0618 02       		.byte	0x2
 4198 0619 6B01     		.2byte	0x16b
 4199 061b 83000000 		.4byte	0x83
 4200 061f 00000000 		.4byte	.LFB33
 4201 0623 14000000 		.4byte	.LFE33-.LFB33
 4202 0627 01       		.uleb128 0x1
 4203 0628 9C       		.byte	0x9c
 4204 0629 16       		.uleb128 0x16
 4205 062a 06050000 		.4byte	.LASF70
 4206 062e 02       		.byte	0x2
 4207 062f 7C01     		.2byte	0x17c
 4208 0631 83000000 		.4byte	0x83
 4209 0635 00000000 		.4byte	.LFB34
 4210 0639 14000000 		.4byte	.LFE34-.LFB34
 4211 063d 01       		.uleb128 0x1
 4212 063e 9C       		.byte	0x9c
 4213 063f 15       		.uleb128 0x15
 4214 0640 39000000 		.4byte	.LASF71
 4215 0644 02       		.byte	0x2
 4216 0645 8C01     		.2byte	0x18c
 4217 0647 00000000 		.4byte	.LFB35
 4218 064b 3C000000 		.4byte	.LFE35-.LFB35
 4219 064f 01       		.uleb128 0x1
 4220 0650 9C       		.byte	0x9c
 4221 0651 65060000 		.4byte	0x665
ARM GAS  C:\Users\okuntso\AppData\Local\Temp\ccSegaCM.s 			page 125


 4222 0655 0D       		.uleb128 0xd
 4223 0656 00000000 		.4byte	.LASF72
 4224 065a 02       		.byte	0x2
 4225 065b 8C01     		.2byte	0x18c
 4226 065d 65060000 		.4byte	0x665
 4227 0661 02       		.uleb128 0x2
 4228 0662 91       		.byte	0x91
 4229 0663 6C       		.sleb128 -20
 4230 0664 00       		.byte	0
 4231 0665 18       		.uleb128 0x18
 4232 0666 04       		.byte	0x4
 4233 0667 20010000 		.4byte	0x120
 4234 066b 19       		.uleb128 0x19
 4235 066c 6B030000 		.4byte	.LASF73
 4236 0670 02       		.byte	0x2
 4237 0671 A301     		.2byte	0x1a3
 4238 0673 83000000 		.4byte	0x83
 4239 0677 00000000 		.4byte	.LFB36
 4240 067b 44000000 		.4byte	.LFE36-.LFB36
 4241 067f 01       		.uleb128 0x1
 4242 0680 9C       		.byte	0x9c
 4243 0681 19       		.uleb128 0x19
 4244 0682 F3050000 		.4byte	.LASF74
 4245 0686 02       		.byte	0x2
 4246 0687 BD01     		.2byte	0x1bd
 4247 0689 83000000 		.4byte	0x83
 4248 068d 00000000 		.4byte	.LFB37
 4249 0691 44000000 		.4byte	.LFE37-.LFB37
 4250 0695 01       		.uleb128 0x1
 4251 0696 9C       		.byte	0x9c
 4252 0697 1A       		.uleb128 0x1a
 4253 0698 A9060000 		.4byte	.LASF81
 4254 069c 02       		.byte	0x2
 4255 069d 9B03     		.2byte	0x39b
 4256 069f 83000000 		.4byte	0x83
 4257 06a3 00000000 		.4byte	.LFB38
 4258 06a7 80000000 		.4byte	.LFE38-.LFB38
 4259 06ab 01       		.uleb128 0x1
 4260 06ac 9C       		.byte	0x9c
 4261 06ad D0060000 		.4byte	0x6d0
 4262 06b1 0F       		.uleb128 0xf
 4263 06b2 A2040000 		.4byte	.LASF61
 4264 06b6 02       		.byte	0x2
 4265 06b7 9D03     		.2byte	0x39d
 4266 06b9 83000000 		.4byte	0x83
 4267 06bd 02       		.uleb128 0x2
 4268 06be 91       		.byte	0x91
 4269 06bf 74       		.sleb128 -12
 4270 06c0 0F       		.uleb128 0xf
 4271 06c1 C2010000 		.4byte	.LASF75
 4272 06c5 02       		.byte	0x2
 4273 06c6 9E03     		.2byte	0x39e
 4274 06c8 20010000 		.4byte	0x120
 4275 06cc 02       		.uleb128 0x2
 4276 06cd 91       		.byte	0x91
 4277 06ce 64       		.sleb128 -28
 4278 06cf 00       		.byte	0
ARM GAS  C:\Users\okuntso\AppData\Local\Temp\ccSegaCM.s 			page 126


 4279 06d0 15       		.uleb128 0x15
 4280 06d1 A7020000 		.4byte	.LASF76
 4281 06d5 02       		.byte	0x2
 4282 06d6 D303     		.2byte	0x3d3
 4283 06d8 00000000 		.4byte	.LFB39
 4284 06dc B8000000 		.4byte	.LFE39-.LFB39
 4285 06e0 01       		.uleb128 0x1
 4286 06e1 9C       		.byte	0x9c
 4287 06e2 05070000 		.4byte	0x705
 4288 06e6 0D       		.uleb128 0xd
 4289 06e7 1E020000 		.4byte	.LASF77
 4290 06eb 02       		.byte	0x2
 4291 06ec D303     		.2byte	0x3d3
 4292 06ee 05070000 		.4byte	0x705
 4293 06f2 02       		.uleb128 0x2
 4294 06f3 91       		.byte	0x91
 4295 06f4 6C       		.sleb128 -20
 4296 06f5 0D       		.uleb128 0xd
 4297 06f6 A1000000 		.4byte	.LASF78
 4298 06fa 02       		.byte	0x2
 4299 06fb D403     		.2byte	0x3d4
 4300 06fd DC000000 		.4byte	0xdc
 4301 0701 02       		.uleb128 0x2
 4302 0702 91       		.byte	0x91
 4303 0703 6B       		.sleb128 -21
 4304 0704 00       		.byte	0
 4305 0705 18       		.uleb128 0x18
 4306 0706 04       		.byte	0x4
 4307 0707 0B070000 		.4byte	0x70b
 4308 070b 1B       		.uleb128 0x1b
 4309 070c 7C010000 		.4byte	0x17c
 4310 0710 15       		.uleb128 0x15
 4311 0711 93050000 		.4byte	.LASF79
 4312 0715 02       		.byte	0x2
 4313 0716 0504     		.2byte	0x405
 4314 0718 00000000 		.4byte	.LFB40
 4315 071c B8000000 		.4byte	.LFE40-.LFB40
 4316 0720 01       		.uleb128 0x1
 4317 0721 9C       		.byte	0x9c
 4318 0722 45070000 		.4byte	0x745
 4319 0726 0D       		.uleb128 0xd
 4320 0727 D9050000 		.4byte	.LASF80
 4321 072b 02       		.byte	0x2
 4322 072c 0504     		.2byte	0x405
 4323 072e 05070000 		.4byte	0x705
 4324 0732 02       		.uleb128 0x2
 4325 0733 91       		.byte	0x91
 4326 0734 6C       		.sleb128 -20
 4327 0735 0D       		.uleb128 0xd
 4328 0736 A1000000 		.4byte	.LASF78
 4329 073a 02       		.byte	0x2
 4330 073b 0604     		.2byte	0x406
 4331 073d DC000000 		.4byte	0xdc
 4332 0741 02       		.uleb128 0x2
 4333 0742 91       		.byte	0x91
 4334 0743 6B       		.sleb128 -21
 4335 0744 00       		.byte	0
ARM GAS  C:\Users\okuntso\AppData\Local\Temp\ccSegaCM.s 			page 127


 4336 0745 1A       		.uleb128 0x1a
 4337 0746 C6050000 		.4byte	.LASF82
 4338 074a 02       		.byte	0x2
 4339 074b 2E04     		.2byte	0x42e
 4340 074d 9D000000 		.4byte	0x9d
 4341 0751 00000000 		.4byte	.LFB41
 4342 0755 A8000000 		.4byte	.LFE41-.LFB41
 4343 0759 01       		.uleb128 0x1
 4344 075a 9C       		.byte	0x9c
 4345 075b AB070000 		.4byte	0x7ab
 4346 075f 0D       		.uleb128 0xd
 4347 0760 00020000 		.4byte	.LASF83
 4348 0764 02       		.byte	0x2
 4349 0765 2E04     		.2byte	0x42e
 4350 0767 05070000 		.4byte	0x705
 4351 076b 02       		.uleb128 0x2
 4352 076c 91       		.byte	0x91
 4353 076d 4C       		.sleb128 -52
 4354 076e 0F       		.uleb128 0xf
 4355 076f A2040000 		.4byte	.LASF61
 4356 0773 02       		.byte	0x2
 4357 0774 3004     		.2byte	0x430
 4358 0776 83000000 		.4byte	0x83
 4359 077a 02       		.uleb128 0x2
 4360 077b 91       		.byte	0x91
 4361 077c 68       		.sleb128 -24
 4362 077d 0F       		.uleb128 0xf
 4363 077e 5E000000 		.4byte	.LASF53
 4364 0782 02       		.byte	0x2
 4365 0783 3104     		.2byte	0x431
 4366 0785 83000000 		.4byte	0x83
 4367 0789 02       		.uleb128 0x2
 4368 078a 91       		.byte	0x91
 4369 078b 6C       		.sleb128 -20
 4370 078c 0F       		.uleb128 0xf
 4371 078d 1A010000 		.4byte	.LASF84
 4372 0791 02       		.byte	0x2
 4373 0792 3204     		.2byte	0x432
 4374 0794 9D000000 		.4byte	0x9d
 4375 0798 02       		.uleb128 0x2
 4376 0799 91       		.byte	0x91
 4377 079a 60       		.sleb128 -32
 4378 079b 0F       		.uleb128 0xf
 4379 079c C2010000 		.4byte	.LASF75
 4380 07a0 02       		.byte	0x2
 4381 07a1 3404     		.2byte	0x434
 4382 07a3 20010000 		.4byte	0x120
 4383 07a7 02       		.uleb128 0x2
 4384 07a8 91       		.byte	0x91
 4385 07a9 50       		.sleb128 -48
 4386 07aa 00       		.byte	0
 4387 07ab 1C       		.uleb128 0x1c
 4388 07ac D7010000 		.4byte	.LASF85
 4389 07b0 02       		.byte	0x2
 4390 07b1 5E04     		.2byte	0x45e
 4391 07b3 83000000 		.4byte	0x83
 4392 07b7 00000000 		.4byte	.LFB42
ARM GAS  C:\Users\okuntso\AppData\Local\Temp\ccSegaCM.s 			page 128


 4393 07bb 4E000000 		.4byte	.LFE42-.LFB42
 4394 07bf 01       		.uleb128 0x1
 4395 07c0 9C       		.byte	0x9c
 4396 07c1 00080000 		.4byte	0x800
 4397 07c5 0D       		.uleb128 0xd
 4398 07c6 47010000 		.4byte	.LASF86
 4399 07ca 02       		.byte	0x2
 4400 07cb 5E04     		.2byte	0x45e
 4401 07cd 83000000 		.4byte	0x83
 4402 07d1 02       		.uleb128 0x2
 4403 07d2 91       		.byte	0x91
 4404 07d3 64       		.sleb128 -28
 4405 07d4 1D       		.uleb128 0x1d
 4406 07d5 6900     		.ascii	"i\000"
 4407 07d7 02       		.byte	0x2
 4408 07d8 6004     		.2byte	0x460
 4409 07da 83000000 		.4byte	0x83
 4410 07de 02       		.uleb128 0x2
 4411 07df 91       		.byte	0x91
 4412 07e0 74       		.sleb128 -12
 4413 07e1 0F       		.uleb128 0xf
 4414 07e2 04060000 		.4byte	.LASF87
 4415 07e6 02       		.byte	0x2
 4416 07e7 6104     		.2byte	0x461
 4417 07e9 83000000 		.4byte	0x83
 4418 07ed 02       		.uleb128 0x2
 4419 07ee 91       		.byte	0x91
 4420 07ef 70       		.sleb128 -16
 4421 07f0 0F       		.uleb128 0xf
 4422 07f1 24000000 		.4byte	.LASF38
 4423 07f5 02       		.byte	0x2
 4424 07f6 6204     		.2byte	0x462
 4425 07f8 83000000 		.4byte	0x83
 4426 07fc 02       		.uleb128 0x2
 4427 07fd 91       		.byte	0x91
 4428 07fe 6C       		.sleb128 -20
 4429 07ff 00       		.byte	0
 4430 0800 1A       		.uleb128 0x1a
 4431 0801 04030000 		.4byte	.LASF88
 4432 0805 02       		.byte	0x2
 4433 0806 8404     		.2byte	0x484
 4434 0808 83000000 		.4byte	0x83
 4435 080c 00000000 		.4byte	.LFB43
 4436 0810 60000000 		.4byte	.LFE43-.LFB43
 4437 0814 01       		.uleb128 0x1
 4438 0815 9C       		.byte	0x9c
 4439 0816 57080000 		.4byte	0x857
 4440 081a 0D       		.uleb128 0xd
 4441 081b 21050000 		.4byte	.LASF89
 4442 081f 02       		.byte	0x2
 4443 0820 8404     		.2byte	0x484
 4444 0822 83000000 		.4byte	0x83
 4445 0826 02       		.uleb128 0x2
 4446 0827 91       		.byte	0x91
 4447 0828 64       		.sleb128 -28
 4448 0829 0F       		.uleb128 0xf
 4449 082a 8D020000 		.4byte	.LASF90
ARM GAS  C:\Users\okuntso\AppData\Local\Temp\ccSegaCM.s 			page 129


 4450 082e 02       		.byte	0x2
 4451 082f 8604     		.2byte	0x486
 4452 0831 83000000 		.4byte	0x83
 4453 0835 02       		.uleb128 0x2
 4454 0836 91       		.byte	0x91
 4455 0837 74       		.sleb128 -12
 4456 0838 0F       		.uleb128 0xf
 4457 0839 A6050000 		.4byte	.LASF49
 4458 083d 02       		.byte	0x2
 4459 083e 8704     		.2byte	0x487
 4460 0840 83000000 		.4byte	0x83
 4461 0844 02       		.uleb128 0x2
 4462 0845 91       		.byte	0x91
 4463 0846 70       		.sleb128 -16
 4464 0847 0F       		.uleb128 0xf
 4465 0848 24000000 		.4byte	.LASF38
 4466 084c 02       		.byte	0x2
 4467 084d 8804     		.2byte	0x488
 4468 084f 83000000 		.4byte	0x83
 4469 0853 02       		.uleb128 0x2
 4470 0854 91       		.byte	0x91
 4471 0855 6C       		.sleb128 -20
 4472 0856 00       		.byte	0
 4473 0857 15       		.uleb128 0x15
 4474 0858 CD060000 		.4byte	.LASF91
 4475 085c 02       		.byte	0x2
 4476 085d B704     		.2byte	0x4b7
 4477 085f 00000000 		.4byte	.LFB44
 4478 0863 E0000000 		.4byte	.LFE44-.LFB44
 4479 0867 01       		.uleb128 0x1
 4480 0868 9C       		.byte	0x9c
 4481 0869 80080000 		.4byte	0x880
 4482 086d 0F       		.uleb128 0xf
 4483 086e 09060000 		.4byte	.LASF92
 4484 0872 02       		.byte	0x2
 4485 0873 B904     		.2byte	0x4b9
 4486 0875 B0000000 		.4byte	0xb0
 4487 0879 05       		.uleb128 0x5
 4488 087a 03       		.byte	0x3
 4489 087b 20000000 		.4byte	RTC_currentTickNumber.5197
 4490 087f 00       		.byte	0
 4491 0880 1A       		.uleb128 0x1a
 4492 0881 05040000 		.4byte	.LASF93
 4493 0885 02       		.byte	0x2
 4494 0886 F204     		.2byte	0x4f2
 4495 0888 9D000000 		.4byte	0x9d
 4496 088c 00000000 		.4byte	.LFB45
 4497 0890 90010000 		.4byte	.LFE45-.LFB45
 4498 0894 01       		.uleb128 0x1
 4499 0895 9C       		.byte	0x9c
 4500 0896 02090000 		.4byte	0x902
 4501 089a 0D       		.uleb128 0xd
 4502 089b 46060000 		.4byte	.LASF58
 4503 089f 02       		.byte	0x2
 4504 08a0 F204     		.2byte	0x4f2
 4505 08a2 83000000 		.4byte	0x83
 4506 08a6 02       		.uleb128 0x2
ARM GAS  C:\Users\okuntso\AppData\Local\Temp\ccSegaCM.s 			page 130


 4507 08a7 91       		.byte	0x91
 4508 08a8 4C       		.sleb128 -52
 4509 08a9 0D       		.uleb128 0xd
 4510 08aa 5C050000 		.4byte	.LASF37
 4511 08ae 02       		.byte	0x2
 4512 08af F204     		.2byte	0x4f2
 4513 08b1 83000000 		.4byte	0x83
 4514 08b5 02       		.uleb128 0x2
 4515 08b6 91       		.byte	0x91
 4516 08b7 48       		.sleb128 -56
 4517 08b8 1D       		.uleb128 0x1d
 4518 08b9 6900     		.ascii	"i\000"
 4519 08bb 02       		.byte	0x2
 4520 08bc F404     		.2byte	0x4f4
 4521 08be 83000000 		.4byte	0x83
 4522 08c2 02       		.uleb128 0x2
 4523 08c3 91       		.byte	0x91
 4524 08c4 64       		.sleb128 -28
 4525 08c5 0F       		.uleb128 0xf
 4526 08c6 A2040000 		.4byte	.LASF61
 4527 08ca 02       		.byte	0x2
 4528 08cb F504     		.2byte	0x4f5
 4529 08cd 83000000 		.4byte	0x83
 4530 08d1 02       		.uleb128 0x2
 4531 08d2 91       		.byte	0x91
 4532 08d3 54       		.sleb128 -44
 4533 08d4 0F       		.uleb128 0xf
 4534 08d5 05010000 		.4byte	.LASF60
 4535 08d9 02       		.byte	0x2
 4536 08da F604     		.2byte	0x4f6
 4537 08dc 83000000 		.4byte	0x83
 4538 08e0 02       		.uleb128 0x2
 4539 08e1 91       		.byte	0x91
 4540 08e2 50       		.sleb128 -48
 4541 08e3 0F       		.uleb128 0xf
 4542 08e4 A6050000 		.4byte	.LASF49
 4543 08e8 02       		.byte	0x2
 4544 08e9 F704     		.2byte	0x4f7
 4545 08eb 83000000 		.4byte	0x83
 4546 08ef 02       		.uleb128 0x2
 4547 08f0 91       		.byte	0x91
 4548 08f1 60       		.sleb128 -32
 4549 08f2 0F       		.uleb128 0xf
 4550 08f3 7F060000 		.4byte	.LASF63
 4551 08f7 02       		.byte	0x2
 4552 08f8 F804     		.2byte	0x4f8
 4553 08fa 9D000000 		.4byte	0x9d
 4554 08fe 02       		.uleb128 0x2
 4555 08ff 91       		.byte	0x91
 4556 0900 58       		.sleb128 -40
 4557 0901 00       		.byte	0
 4558 0902 15       		.uleb128 0x15
 4559 0903 50060000 		.4byte	.LASF94
 4560 0907 02       		.byte	0x2
 4561 0908 5505     		.2byte	0x555
 4562 090a 00000000 		.4byte	.LFB46
 4563 090e 98020000 		.4byte	.LFE46-.LFB46
ARM GAS  C:\Users\okuntso\AppData\Local\Temp\ccSegaCM.s 			page 131


 4564 0912 01       		.uleb128 0x1
 4565 0913 9C       		.byte	0x9c
 4566 0914 B0090000 		.4byte	0x9b0
 4567 0918 0D       		.uleb128 0xd
 4568 0919 00000000 		.4byte	.LASF72
 4569 091d 02       		.byte	0x2
 4570 091e 5505     		.2byte	0x555
 4571 0920 65060000 		.4byte	0x665
 4572 0924 02       		.uleb128 0x2
 4573 0925 91       		.byte	0x91
 4574 0926 44       		.sleb128 -60
 4575 0927 0D       		.uleb128 0xd
 4576 0928 7F060000 		.4byte	.LASF63
 4577 092c 02       		.byte	0x2
 4578 092d 5505     		.2byte	0x555
 4579 092f 9D000000 		.4byte	0x9d
 4580 0933 03       		.uleb128 0x3
 4581 0934 91       		.byte	0x91
 4582 0935 B87F     		.sleb128 -72
 4583 0937 0D       		.uleb128 0xd
 4584 0938 F9020000 		.4byte	.LASF30
 4585 093c 02       		.byte	0x2
 4586 093d 5505     		.2byte	0x555
 4587 093f 83000000 		.4byte	0x83
 4588 0943 02       		.uleb128 0x2
 4589 0944 91       		.byte	0x91
 4590 0945 00       		.sleb128 0
 4591 0946 0F       		.uleb128 0xf
 4592 0947 AF000000 		.4byte	.LASF95
 4593 094b 02       		.byte	0x2
 4594 094c 5705     		.2byte	0x557
 4595 094e 83000000 		.4byte	0x83
 4596 0952 02       		.uleb128 0x2
 4597 0953 91       		.byte	0x91
 4598 0954 4C       		.sleb128 -52
 4599 0955 0F       		.uleb128 0xf
 4600 0956 C1040000 		.4byte	.LASF96
 4601 095a 02       		.byte	0x2
 4602 095b 5805     		.2byte	0x558
 4603 095d 83000000 		.4byte	0x83
 4604 0961 02       		.uleb128 0x2
 4605 0962 91       		.byte	0x91
 4606 0963 64       		.sleb128 -28
 4607 0964 0F       		.uleb128 0xf
 4608 0965 26010000 		.4byte	.LASF97
 4609 0969 02       		.byte	0x2
 4610 096a 5905     		.2byte	0x559
 4611 096c 83000000 		.4byte	0x83
 4612 0970 02       		.uleb128 0x2
 4613 0971 91       		.byte	0x91
 4614 0972 60       		.sleb128 -32
 4615 0973 0F       		.uleb128 0xf
 4616 0974 09000000 		.4byte	.LASF59
 4617 0978 02       		.byte	0x2
 4618 0979 5B05     		.2byte	0x55b
 4619 097b 83000000 		.4byte	0x83
 4620 097f 02       		.uleb128 0x2
ARM GAS  C:\Users\okuntso\AppData\Local\Temp\ccSegaCM.s 			page 132


 4621 0980 91       		.byte	0x91
 4622 0981 50       		.sleb128 -48
 4623 0982 0F       		.uleb128 0xf
 4624 0983 05010000 		.4byte	.LASF60
 4625 0987 02       		.byte	0x2
 4626 0988 5C05     		.2byte	0x55c
 4627 098a 83000000 		.4byte	0x83
 4628 098e 02       		.uleb128 0x2
 4629 098f 91       		.byte	0x91
 4630 0990 5C       		.sleb128 -36
 4631 0991 0F       		.uleb128 0xf
 4632 0992 A2040000 		.4byte	.LASF61
 4633 0996 02       		.byte	0x2
 4634 0997 5D05     		.2byte	0x55d
 4635 0999 83000000 		.4byte	0x83
 4636 099d 02       		.uleb128 0x2
 4637 099e 91       		.byte	0x91
 4638 099f 58       		.sleb128 -40
 4639 09a0 0F       		.uleb128 0xf
 4640 09a1 BF050000 		.4byte	.LASF98
 4641 09a5 02       		.byte	0x2
 4642 09a6 5F05     		.2byte	0x55f
 4643 09a8 83000000 		.4byte	0x83
 4644 09ac 02       		.uleb128 0x2
 4645 09ad 91       		.byte	0x91
 4646 09ae 54       		.sleb128 -44
 4647 09af 00       		.byte	0
 4648 09b0 1A       		.uleb128 0x1a
 4649 09b1 B9000000 		.4byte	.LASF99
 4650 09b5 02       		.byte	0x2
 4651 09b6 DB05     		.2byte	0x5db
 4652 09b8 83000000 		.4byte	0x83
 4653 09bc 00000000 		.4byte	.LFB47
 4654 09c0 7A000000 		.4byte	.LFE47-.LFB47
 4655 09c4 01       		.uleb128 0x1
 4656 09c5 9C       		.byte	0x9c
 4657 09c6 520A0000 		.4byte	0xa52
 4658 09ca 0D       		.uleb128 0xd
 4659 09cb 18040000 		.4byte	.LASF23
 4660 09cf 02       		.byte	0x2
 4661 09d0 DB05     		.2byte	0x5db
 4662 09d2 83000000 		.4byte	0x83
 4663 09d6 02       		.uleb128 0x2
 4664 09d7 91       		.byte	0x91
 4665 09d8 5C       		.sleb128 -36
 4666 09d9 0D       		.uleb128 0xd
 4667 09da 0E010000 		.4byte	.LASF28
 4668 09de 02       		.byte	0x2
 4669 09df DB05     		.2byte	0x5db
 4670 09e1 83000000 		.4byte	0x83
 4671 09e5 02       		.uleb128 0x2
 4672 09e6 91       		.byte	0x91
 4673 09e7 58       		.sleb128 -40
 4674 09e8 0D       		.uleb128 0xd
 4675 09e9 E6020000 		.4byte	.LASF29
 4676 09ed 02       		.byte	0x2
 4677 09ee DB05     		.2byte	0x5db
ARM GAS  C:\Users\okuntso\AppData\Local\Temp\ccSegaCM.s 			page 133


 4678 09f0 83000000 		.4byte	0x83
 4679 09f4 02       		.uleb128 0x2
 4680 09f5 91       		.byte	0x91
 4681 09f6 54       		.sleb128 -44
 4682 09f7 0D       		.uleb128 0xd
 4683 09f8 AD010000 		.4byte	.LASF35
 4684 09fc 02       		.byte	0x2
 4685 09fd DB05     		.2byte	0x5db
 4686 09ff 83000000 		.4byte	0x83
 4687 0a03 02       		.uleb128 0x2
 4688 0a04 91       		.byte	0x91
 4689 0a05 50       		.sleb128 -48
 4690 0a06 0F       		.uleb128 0xf
 4691 0a07 17020000 		.4byte	.LASF100
 4692 0a0b 02       		.byte	0x2
 4693 0a0c DD05     		.2byte	0x5dd
 4694 0a0e 83000000 		.4byte	0x83
 4695 0a12 02       		.uleb128 0x2
 4696 0a13 91       		.byte	0x91
 4697 0a14 74       		.sleb128 -12
 4698 0a15 0F       		.uleb128 0xf
 4699 0a16 18030000 		.4byte	.LASF101
 4700 0a1a 02       		.byte	0x2
 4701 0a1b DE05     		.2byte	0x5de
 4702 0a1d 83000000 		.4byte	0x83
 4703 0a21 02       		.uleb128 0x2
 4704 0a22 91       		.byte	0x91
 4705 0a23 70       		.sleb128 -16
 4706 0a24 0F       		.uleb128 0xf
 4707 0a25 4E010000 		.4byte	.LASF102
 4708 0a29 02       		.byte	0x2
 4709 0a2a DF05     		.2byte	0x5df
 4710 0a2c 83000000 		.4byte	0x83
 4711 0a30 02       		.uleb128 0x2
 4712 0a31 91       		.byte	0x91
 4713 0a32 68       		.sleb128 -24
 4714 0a33 0F       		.uleb128 0xf
 4715 0a34 38040000 		.4byte	.LASF103
 4716 0a38 02       		.byte	0x2
 4717 0a39 E005     		.2byte	0x5e0
 4718 0a3b 83000000 		.4byte	0x83
 4719 0a3f 02       		.uleb128 0x2
 4720 0a40 91       		.byte	0x91
 4721 0a41 6C       		.sleb128 -20
 4722 0a42 0F       		.uleb128 0xf
 4723 0a43 24000000 		.4byte	.LASF38
 4724 0a47 02       		.byte	0x2
 4725 0a48 E205     		.2byte	0x5e2
 4726 0a4a 83000000 		.4byte	0x83
 4727 0a4e 02       		.uleb128 0x2
 4728 0a4f 91       		.byte	0x91
 4729 0a50 64       		.sleb128 -28
 4730 0a51 00       		.byte	0
 4731 0a52 1A       		.uleb128 0x1a
 4732 0a53 F5000000 		.4byte	.LASF104
 4733 0a57 02       		.byte	0x2
 4734 0a58 1606     		.2byte	0x616
ARM GAS  C:\Users\okuntso\AppData\Local\Temp\ccSegaCM.s 			page 134


 4735 0a5a 83000000 		.4byte	0x83
 4736 0a5e 00000000 		.4byte	.LFB48
 4737 0a62 3C000000 		.4byte	.LFE48-.LFB48
 4738 0a66 01       		.uleb128 0x1
 4739 0a67 9C       		.byte	0x9c
 4740 0a68 9A0A0000 		.4byte	0xa9a
 4741 0a6c 0D       		.uleb128 0xd
 4742 0a6d E6020000 		.4byte	.LASF29
 4743 0a71 02       		.byte	0x2
 4744 0a72 1606     		.2byte	0x616
 4745 0a74 83000000 		.4byte	0x83
 4746 0a78 02       		.uleb128 0x2
 4747 0a79 91       		.byte	0x91
 4748 0a7a 6C       		.sleb128 -20
 4749 0a7b 0D       		.uleb128 0xd
 4750 0a7c AD010000 		.4byte	.LASF35
 4751 0a80 02       		.byte	0x2
 4752 0a81 1606     		.2byte	0x616
 4753 0a83 83000000 		.4byte	0x83
 4754 0a87 02       		.uleb128 0x2
 4755 0a88 91       		.byte	0x91
 4756 0a89 68       		.sleb128 -24
 4757 0a8a 0F       		.uleb128 0xf
 4758 0a8b 24000000 		.4byte	.LASF38
 4759 0a8f 02       		.byte	0x2
 4760 0a90 1806     		.2byte	0x618
 4761 0a92 83000000 		.4byte	0x83
 4762 0a96 02       		.uleb128 0x2
 4763 0a97 91       		.byte	0x91
 4764 0a98 74       		.sleb128 -12
 4765 0a99 00       		.byte	0
 4766 0a9a 1A       		.uleb128 0x1a
 4767 0a9b 33010000 		.4byte	.LASF105
 4768 0a9f 02       		.byte	0x2
 4769 0aa0 4606     		.2byte	0x646
 4770 0aa2 83000000 		.4byte	0x83
 4771 0aa6 00000000 		.4byte	.LFB49
 4772 0aaa 3C000000 		.4byte	.LFE49-.LFB49
 4773 0aae 01       		.uleb128 0x1
 4774 0aaf 9C       		.byte	0x9c
 4775 0ab0 E20A0000 		.4byte	0xae2
 4776 0ab4 0D       		.uleb128 0xd
 4777 0ab5 E6020000 		.4byte	.LASF29
 4778 0ab9 02       		.byte	0x2
 4779 0aba 4606     		.2byte	0x646
 4780 0abc 83000000 		.4byte	0x83
 4781 0ac0 02       		.uleb128 0x2
 4782 0ac1 91       		.byte	0x91
 4783 0ac2 6C       		.sleb128 -20
 4784 0ac3 0D       		.uleb128 0xd
 4785 0ac4 AD010000 		.4byte	.LASF35
 4786 0ac8 02       		.byte	0x2
 4787 0ac9 4606     		.2byte	0x646
 4788 0acb 83000000 		.4byte	0x83
 4789 0acf 02       		.uleb128 0x2
 4790 0ad0 91       		.byte	0x91
 4791 0ad1 68       		.sleb128 -24
ARM GAS  C:\Users\okuntso\AppData\Local\Temp\ccSegaCM.s 			page 135


 4792 0ad2 0F       		.uleb128 0xf
 4793 0ad3 24000000 		.4byte	.LASF38
 4794 0ad7 02       		.byte	0x2
 4795 0ad8 4806     		.2byte	0x648
 4796 0ada 83000000 		.4byte	0x83
 4797 0ade 02       		.uleb128 0x2
 4798 0adf 91       		.byte	0x91
 4799 0ae0 74       		.sleb128 -12
 4800 0ae1 00       		.byte	0
 4801 0ae2 13       		.uleb128 0x13
 4802 0ae3 82010000 		.4byte	.LASF106
 4803 0ae7 02       		.byte	0x2
 4804 0ae8 17       		.byte	0x17
 4805 0ae9 83000000 		.4byte	0x83
 4806 0aed 05       		.uleb128 0x5
 4807 0aee 03       		.byte	0x3
 4808 0aef 00000000 		.4byte	RTC_updateTimePeriod
 4809 0af3 13       		.uleb128 0x13
 4810 0af4 AD050000 		.4byte	.LASF107
 4811 0af8 02       		.byte	0x2
 4812 0af9 18       		.byte	0x18
 4813 0afa 83000000 		.4byte	0x83
 4814 0afe 05       		.uleb128 0x5
 4815 0aff 03       		.byte	0x3
 4816 0b00 04000000 		.4byte	RTC_tickRefOneSec
 4817 0b04 13       		.uleb128 0x13
 4818 0b05 C9040000 		.4byte	.LASF108
 4819 0b09 02       		.byte	0x2
 4820 0b0a 1B       		.byte	0x1b
 4821 0b0b 83000000 		.4byte	0x83
 4822 0b0f 05       		.uleb128 0x5
 4823 0b10 03       		.byte	0x3
 4824 0b11 08000000 		.4byte	RTC_dstTimeOffset
 4825 0b15 13       		.uleb128 0x13
 4826 0b16 31060000 		.4byte	.LASF109
 4827 0b1a 02       		.byte	0x2
 4828 0b1b 1D       		.byte	0x1d
 4829 0b1c 260B0000 		.4byte	0xb26
 4830 0b20 05       		.uleb128 0x5
 4831 0b21 03       		.byte	0x3
 4832 0b22 10000000 		.4byte	RTC_unixTimeDstStart
 4833 0b26 05       		.uleb128 0x5
 4834 0b27 9D000000 		.4byte	0x9d
 4835 0b2b 13       		.uleb128 0x13
 4836 0b2c 4F040000 		.4byte	.LASF110
 4837 0b30 02       		.byte	0x2
 4838 0b31 1E       		.byte	0x1e
 4839 0b32 260B0000 		.4byte	0xb26
 4840 0b36 05       		.uleb128 0x5
 4841 0b37 03       		.byte	0x3
 4842 0b38 18000000 		.4byte	RTC_unixTimeDstStop
 4843 0b3c 1E       		.uleb128 0x1e
 4844 0b3d A1010000 		.4byte	.LASF111
 4845 0b41 02       		.byte	0x2
 4846 0b42 12       		.byte	0x12
 4847 0b43 6B000000 		.4byte	0x6b
 4848 0b47 05       		.uleb128 0x5
ARM GAS  C:\Users\okuntso\AppData\Local\Temp\ccSegaCM.s 			page 136


 4849 0b48 03       		.byte	0x3
 4850 0b49 00000000 		.4byte	RTC_initVar
 4851 0b4d 1E       		.uleb128 0x1e
 4852 0b4e 94060000 		.4byte	.LASF112
 4853 0b52 02       		.byte	0x2
 4854 0b53 1A       		.byte	0x1a
 4855 0b54 6B000000 		.4byte	0x6b
 4856 0b58 05       		.uleb128 0x5
 4857 0b59 03       		.byte	0x3
 4858 0b5a 00000000 		.4byte	RTC_dstStatus
 4859 0b5e 1E       		.uleb128 0x1e
 4860 0b5f 9A020000 		.4byte	.LASF113
 4861 0b63 02       		.byte	0x2
 4862 0b64 14       		.byte	0x14
 4863 0b65 260B0000 		.4byte	0xb26
 4864 0b69 05       		.uleb128 0x5
 4865 0b6a 03       		.byte	0x3
 4866 0b6b 00000000 		.4byte	RTC_unixTime
 4867 0b6f 1E       		.uleb128 0x1e
 4868 0b70 6E060000 		.4byte	.LASF114
 4869 0b74 02       		.byte	0x2
 4870 0b75 1F       		.byte	0x1f
 4871 0b76 7C010000 		.4byte	0x17c
 4872 0b7a 05       		.uleb128 0x5
 4873 0b7b 03       		.byte	0x3
 4874 0b7c 00000000 		.4byte	RTC_dstStartTime
 4875 0b80 1E       		.uleb128 0x1e
 4876 0b81 91000000 		.4byte	.LASF115
 4877 0b85 02       		.byte	0x2
 4878 0b86 20       		.byte	0x20
 4879 0b87 7C010000 		.4byte	0x17c
 4880 0b8b 05       		.uleb128 0x5
 4881 0b8c 03       		.byte	0x3
 4882 0b8d 00000000 		.4byte	RTC_dstStopTime
 4883 0b91 1E       		.uleb128 0x1e
 4884 0b92 36050000 		.4byte	.LASF116
 4885 0b96 02       		.byte	0x2
 4886 0b97 15       		.byte	0x15
 4887 0b98 20010000 		.4byte	0x120
 4888 0b9c 05       		.uleb128 0x5
 4889 0b9d 03       		.byte	0x3
 4890 0b9e 00000000 		.4byte	RTC_currentTimeDate
 4891 0ba2 1E       		.uleb128 0x1e
 4892 0ba3 D3020000 		.4byte	.LASF117
 4893 0ba7 02       		.byte	0x2
 4894 0ba8 23       		.byte	0x23
 4895 0ba9 83000000 		.4byte	0x83
 4896 0bad 05       		.uleb128 0x5
 4897 0bae 03       		.byte	0x3
 4898 0baf 00000000 		.4byte	RTC_alarmCurStatus
 4899 0bb3 1F       		.uleb128 0x1f
 4900 0bb4 C30B0000 		.4byte	0xbc3
 4901 0bb8 C30B0000 		.4byte	0xbc3
 4902 0bbc 20       		.uleb128 0x20
 4903 0bbd BC000000 		.4byte	0xbc
 4904 0bc1 0B       		.byte	0xb
 4905 0bc2 00       		.byte	0
ARM GAS  C:\Users\okuntso\AppData\Local\Temp\ccSegaCM.s 			page 137


 4906 0bc3 1B       		.uleb128 0x1b
 4907 0bc4 77000000 		.4byte	0x77
 4908 0bc8 1E       		.uleb128 0x1e
 4909 0bc9 AA040000 		.4byte	.LASF118
 4910 0bcd 02       		.byte	0x2
 4911 0bce 2B       		.byte	0x2b
 4912 0bcf D90B0000 		.4byte	0xbd9
 4913 0bd3 05       		.uleb128 0x5
 4914 0bd4 03       		.byte	0x3
 4915 0bd5 00000000 		.4byte	RTC_daysBeforeMonthTbl
 4916 0bd9 1B       		.uleb128 0x1b
 4917 0bda B30B0000 		.4byte	0xbb3
 4918 0bde 1F       		.uleb128 0x1f
 4919 0bdf EE0B0000 		.4byte	0xbee
 4920 0be3 EE0B0000 		.4byte	0xbee
 4921 0be7 20       		.uleb128 0x20
 4922 0be8 BC000000 		.4byte	0xbc
 4923 0bec 0B       		.byte	0xb
 4924 0bed 00       		.byte	0
 4925 0bee 1B       		.uleb128 0x1b
 4926 0bef 6B000000 		.4byte	0x6b
 4927 0bf3 1E       		.uleb128 0x1e
 4928 0bf4 7E000000 		.4byte	.LASF119
 4929 0bf8 02       		.byte	0x2
 4930 0bf9 39       		.byte	0x39
 4931 0bfa 040C0000 		.4byte	0xc04
 4932 0bfe 05       		.uleb128 0x5
 4933 0bff 03       		.byte	0x3
 4934 0c00 00000000 		.4byte	RTC_daysInMonthTbl
 4935 0c04 1B       		.uleb128 0x1b
 4936 0c05 DE0B0000 		.4byte	0xbde
 4937 0c09 00       		.byte	0
 4938              		.section	.debug_abbrev,"",%progbits
 4939              	.Ldebug_abbrev0:
 4940 0000 01       		.uleb128 0x1
 4941 0001 11       		.uleb128 0x11
 4942 0002 01       		.byte	0x1
 4943 0003 25       		.uleb128 0x25
 4944 0004 0E       		.uleb128 0xe
 4945 0005 13       		.uleb128 0x13
 4946 0006 0B       		.uleb128 0xb
 4947 0007 03       		.uleb128 0x3
 4948 0008 0E       		.uleb128 0xe
 4949 0009 1B       		.uleb128 0x1b
 4950 000a 0E       		.uleb128 0xe
 4951 000b 55       		.uleb128 0x55
 4952 000c 17       		.uleb128 0x17
 4953 000d 11       		.uleb128 0x11
 4954 000e 01       		.uleb128 0x1
 4955 000f 10       		.uleb128 0x10
 4956 0010 17       		.uleb128 0x17
 4957 0011 00       		.byte	0
 4958 0012 00       		.byte	0
 4959 0013 02       		.uleb128 0x2
 4960 0014 24       		.uleb128 0x24
 4961 0015 00       		.byte	0
 4962 0016 0B       		.uleb128 0xb
ARM GAS  C:\Users\okuntso\AppData\Local\Temp\ccSegaCM.s 			page 138


 4963 0017 0B       		.uleb128 0xb
 4964 0018 3E       		.uleb128 0x3e
 4965 0019 0B       		.uleb128 0xb
 4966 001a 03       		.uleb128 0x3
 4967 001b 0E       		.uleb128 0xe
 4968 001c 00       		.byte	0
 4969 001d 00       		.byte	0
 4970 001e 03       		.uleb128 0x3
 4971 001f 24       		.uleb128 0x24
 4972 0020 00       		.byte	0
 4973 0021 0B       		.uleb128 0xb
 4974 0022 0B       		.uleb128 0xb
 4975 0023 3E       		.uleb128 0x3e
 4976 0024 0B       		.uleb128 0xb
 4977 0025 03       		.uleb128 0x3
 4978 0026 08       		.uleb128 0x8
 4979 0027 00       		.byte	0
 4980 0028 00       		.byte	0
 4981 0029 04       		.uleb128 0x4
 4982 002a 16       		.uleb128 0x16
 4983 002b 00       		.byte	0
 4984 002c 03       		.uleb128 0x3
 4985 002d 0E       		.uleb128 0xe
 4986 002e 3A       		.uleb128 0x3a
 4987 002f 0B       		.uleb128 0xb
 4988 0030 3B       		.uleb128 0x3b
 4989 0031 05       		.uleb128 0x5
 4990 0032 49       		.uleb128 0x49
 4991 0033 13       		.uleb128 0x13
 4992 0034 00       		.byte	0
 4993 0035 00       		.byte	0
 4994 0036 05       		.uleb128 0x5
 4995 0037 35       		.uleb128 0x35
 4996 0038 00       		.byte	0
 4997 0039 49       		.uleb128 0x49
 4998 003a 13       		.uleb128 0x13
 4999 003b 00       		.byte	0
 5000 003c 00       		.byte	0
 5001 003d 06       		.uleb128 0x6
 5002 003e 04       		.uleb128 0x4
 5003 003f 01       		.byte	0x1
 5004 0040 0B       		.uleb128 0xb
 5005 0041 0B       		.uleb128 0xb
 5006 0042 49       		.uleb128 0x49
 5007 0043 13       		.uleb128 0x13
 5008 0044 3A       		.uleb128 0x3a
 5009 0045 0B       		.uleb128 0xb
 5010 0046 3B       		.uleb128 0x3b
 5011 0047 0B       		.uleb128 0xb
 5012 0048 01       		.uleb128 0x1
 5013 0049 13       		.uleb128 0x13
 5014 004a 00       		.byte	0
 5015 004b 00       		.byte	0
 5016 004c 07       		.uleb128 0x7
 5017 004d 28       		.uleb128 0x28
 5018 004e 00       		.byte	0
 5019 004f 03       		.uleb128 0x3
ARM GAS  C:\Users\okuntso\AppData\Local\Temp\ccSegaCM.s 			page 139


 5020 0050 0E       		.uleb128 0xe
 5021 0051 1C       		.uleb128 0x1c
 5022 0052 0B       		.uleb128 0xb
 5023 0053 00       		.byte	0
 5024 0054 00       		.byte	0
 5025 0055 08       		.uleb128 0x8
 5026 0056 16       		.uleb128 0x16
 5027 0057 00       		.byte	0
 5028 0058 03       		.uleb128 0x3
 5029 0059 0E       		.uleb128 0xe
 5030 005a 3A       		.uleb128 0x3a
 5031 005b 0B       		.uleb128 0xb
 5032 005c 3B       		.uleb128 0x3b
 5033 005d 0B       		.uleb128 0xb
 5034 005e 49       		.uleb128 0x49
 5035 005f 13       		.uleb128 0x13
 5036 0060 00       		.byte	0
 5037 0061 00       		.byte	0
 5038 0062 09       		.uleb128 0x9
 5039 0063 13       		.uleb128 0x13
 5040 0064 01       		.byte	0x1
 5041 0065 0B       		.uleb128 0xb
 5042 0066 0B       		.uleb128 0xb
 5043 0067 3A       		.uleb128 0x3a
 5044 0068 0B       		.uleb128 0xb
 5045 0069 3B       		.uleb128 0x3b
 5046 006a 0B       		.uleb128 0xb
 5047 006b 01       		.uleb128 0x1
 5048 006c 13       		.uleb128 0x13
 5049 006d 00       		.byte	0
 5050 006e 00       		.byte	0
 5051 006f 0A       		.uleb128 0xa
 5052 0070 0D       		.uleb128 0xd
 5053 0071 00       		.byte	0
 5054 0072 03       		.uleb128 0x3
 5055 0073 0E       		.uleb128 0xe
 5056 0074 3A       		.uleb128 0x3a
 5057 0075 0B       		.uleb128 0xb
 5058 0076 3B       		.uleb128 0x3b
 5059 0077 0B       		.uleb128 0xb
 5060 0078 49       		.uleb128 0x49
 5061 0079 13       		.uleb128 0x13
 5062 007a 38       		.uleb128 0x38
 5063 007b 0B       		.uleb128 0xb
 5064 007c 00       		.byte	0
 5065 007d 00       		.byte	0
 5066 007e 0B       		.uleb128 0xb
 5067 007f 2E       		.uleb128 0x2e
 5068 0080 01       		.byte	0x1
 5069 0081 03       		.uleb128 0x3
 5070 0082 0E       		.uleb128 0xe
 5071 0083 3A       		.uleb128 0x3a
 5072 0084 0B       		.uleb128 0xb
 5073 0085 3B       		.uleb128 0x3b
 5074 0086 05       		.uleb128 0x5
 5075 0087 27       		.uleb128 0x27
 5076 0088 19       		.uleb128 0x19
ARM GAS  C:\Users\okuntso\AppData\Local\Temp\ccSegaCM.s 			page 140


 5077 0089 49       		.uleb128 0x49
 5078 008a 13       		.uleb128 0x13
 5079 008b 11       		.uleb128 0x11
 5080 008c 01       		.uleb128 0x1
 5081 008d 12       		.uleb128 0x12
 5082 008e 06       		.uleb128 0x6
 5083 008f 40       		.uleb128 0x40
 5084 0090 18       		.uleb128 0x18
 5085 0091 9742     		.uleb128 0x2117
 5086 0093 19       		.uleb128 0x19
 5087 0094 01       		.uleb128 0x1
 5088 0095 13       		.uleb128 0x13
 5089 0096 00       		.byte	0
 5090 0097 00       		.byte	0
 5091 0098 0C       		.uleb128 0xc
 5092 0099 05       		.uleb128 0x5
 5093 009a 00       		.byte	0
 5094 009b 03       		.uleb128 0x3
 5095 009c 08       		.uleb128 0x8
 5096 009d 3A       		.uleb128 0x3a
 5097 009e 0B       		.uleb128 0xb
 5098 009f 3B       		.uleb128 0x3b
 5099 00a0 05       		.uleb128 0x5
 5100 00a1 49       		.uleb128 0x49
 5101 00a2 13       		.uleb128 0x13
 5102 00a3 02       		.uleb128 0x2
 5103 00a4 18       		.uleb128 0x18
 5104 00a5 00       		.byte	0
 5105 00a6 00       		.byte	0
 5106 00a7 0D       		.uleb128 0xd
 5107 00a8 05       		.uleb128 0x5
 5108 00a9 00       		.byte	0
 5109 00aa 03       		.uleb128 0x3
 5110 00ab 0E       		.uleb128 0xe
 5111 00ac 3A       		.uleb128 0x3a
 5112 00ad 0B       		.uleb128 0xb
 5113 00ae 3B       		.uleb128 0x3b
 5114 00af 05       		.uleb128 0x5
 5115 00b0 49       		.uleb128 0x49
 5116 00b1 13       		.uleb128 0x13
 5117 00b2 02       		.uleb128 0x2
 5118 00b3 18       		.uleb128 0x18
 5119 00b4 00       		.byte	0
 5120 00b5 00       		.byte	0
 5121 00b6 0E       		.uleb128 0xe
 5122 00b7 2E       		.uleb128 0x2e
 5123 00b8 01       		.byte	0x1
 5124 00b9 03       		.uleb128 0x3
 5125 00ba 0E       		.uleb128 0xe
 5126 00bb 3A       		.uleb128 0x3a
 5127 00bc 0B       		.uleb128 0xb
 5128 00bd 3B       		.uleb128 0x3b
 5129 00be 05       		.uleb128 0x5
 5130 00bf 27       		.uleb128 0x27
 5131 00c0 19       		.uleb128 0x19
 5132 00c1 49       		.uleb128 0x49
 5133 00c2 13       		.uleb128 0x13
ARM GAS  C:\Users\okuntso\AppData\Local\Temp\ccSegaCM.s 			page 141


 5134 00c3 11       		.uleb128 0x11
 5135 00c4 01       		.uleb128 0x1
 5136 00c5 12       		.uleb128 0x12
 5137 00c6 06       		.uleb128 0x6
 5138 00c7 40       		.uleb128 0x40
 5139 00c8 18       		.uleb128 0x18
 5140 00c9 9642     		.uleb128 0x2116
 5141 00cb 19       		.uleb128 0x19
 5142 00cc 01       		.uleb128 0x1
 5143 00cd 13       		.uleb128 0x13
 5144 00ce 00       		.byte	0
 5145 00cf 00       		.byte	0
 5146 00d0 0F       		.uleb128 0xf
 5147 00d1 34       		.uleb128 0x34
 5148 00d2 00       		.byte	0
 5149 00d3 03       		.uleb128 0x3
 5150 00d4 0E       		.uleb128 0xe
 5151 00d5 3A       		.uleb128 0x3a
 5152 00d6 0B       		.uleb128 0xb
 5153 00d7 3B       		.uleb128 0x3b
 5154 00d8 05       		.uleb128 0x5
 5155 00d9 49       		.uleb128 0x49
 5156 00da 13       		.uleb128 0x13
 5157 00db 02       		.uleb128 0x2
 5158 00dc 18       		.uleb128 0x18
 5159 00dd 00       		.byte	0
 5160 00de 00       		.byte	0
 5161 00df 10       		.uleb128 0x10
 5162 00e0 2E       		.uleb128 0x2e
 5163 00e1 00       		.byte	0
 5164 00e2 3F       		.uleb128 0x3f
 5165 00e3 19       		.uleb128 0x19
 5166 00e4 03       		.uleb128 0x3
 5167 00e5 0E       		.uleb128 0xe
 5168 00e6 3A       		.uleb128 0x3a
 5169 00e7 0B       		.uleb128 0xb
 5170 00e8 3B       		.uleb128 0x3b
 5171 00e9 0B       		.uleb128 0xb
 5172 00ea 27       		.uleb128 0x27
 5173 00eb 19       		.uleb128 0x19
 5174 00ec 11       		.uleb128 0x11
 5175 00ed 01       		.uleb128 0x1
 5176 00ee 12       		.uleb128 0x12
 5177 00ef 06       		.uleb128 0x6
 5178 00f0 40       		.uleb128 0x40
 5179 00f1 18       		.uleb128 0x18
 5180 00f2 9642     		.uleb128 0x2116
 5181 00f4 19       		.uleb128 0x19
 5182 00f5 00       		.byte	0
 5183 00f6 00       		.byte	0
 5184 00f7 11       		.uleb128 0x11
 5185 00f8 2E       		.uleb128 0x2e
 5186 00f9 00       		.byte	0
 5187 00fa 3F       		.uleb128 0x3f
 5188 00fb 19       		.uleb128 0x19
 5189 00fc 03       		.uleb128 0x3
 5190 00fd 0E       		.uleb128 0xe
ARM GAS  C:\Users\okuntso\AppData\Local\Temp\ccSegaCM.s 			page 142


 5191 00fe 3A       		.uleb128 0x3a
 5192 00ff 0B       		.uleb128 0xb
 5193 0100 3B       		.uleb128 0x3b
 5194 0101 0B       		.uleb128 0xb
 5195 0102 27       		.uleb128 0x27
 5196 0103 19       		.uleb128 0x19
 5197 0104 11       		.uleb128 0x11
 5198 0105 01       		.uleb128 0x1
 5199 0106 12       		.uleb128 0x12
 5200 0107 06       		.uleb128 0x6
 5201 0108 40       		.uleb128 0x40
 5202 0109 18       		.uleb128 0x18
 5203 010a 9742     		.uleb128 0x2117
 5204 010c 19       		.uleb128 0x19
 5205 010d 00       		.byte	0
 5206 010e 00       		.byte	0
 5207 010f 12       		.uleb128 0x12
 5208 0110 2E       		.uleb128 0x2e
 5209 0111 01       		.byte	0x1
 5210 0112 3F       		.uleb128 0x3f
 5211 0113 19       		.uleb128 0x19
 5212 0114 03       		.uleb128 0x3
 5213 0115 0E       		.uleb128 0xe
 5214 0116 3A       		.uleb128 0x3a
 5215 0117 0B       		.uleb128 0xb
 5216 0118 3B       		.uleb128 0x3b
 5217 0119 0B       		.uleb128 0xb
 5218 011a 27       		.uleb128 0x27
 5219 011b 19       		.uleb128 0x19
 5220 011c 11       		.uleb128 0x11
 5221 011d 01       		.uleb128 0x1
 5222 011e 12       		.uleb128 0x12
 5223 011f 06       		.uleb128 0x6
 5224 0120 40       		.uleb128 0x40
 5225 0121 18       		.uleb128 0x18
 5226 0122 9642     		.uleb128 0x2116
 5227 0124 19       		.uleb128 0x19
 5228 0125 01       		.uleb128 0x1
 5229 0126 13       		.uleb128 0x13
 5230 0127 00       		.byte	0
 5231 0128 00       		.byte	0
 5232 0129 13       		.uleb128 0x13
 5233 012a 34       		.uleb128 0x34
 5234 012b 00       		.byte	0
 5235 012c 03       		.uleb128 0x3
 5236 012d 0E       		.uleb128 0xe
 5237 012e 3A       		.uleb128 0x3a
 5238 012f 0B       		.uleb128 0xb
 5239 0130 3B       		.uleb128 0x3b
 5240 0131 0B       		.uleb128 0xb
 5241 0132 49       		.uleb128 0x49
 5242 0133 13       		.uleb128 0x13
 5243 0134 02       		.uleb128 0x2
 5244 0135 18       		.uleb128 0x18
 5245 0136 00       		.byte	0
 5246 0137 00       		.byte	0
 5247 0138 14       		.uleb128 0x14
ARM GAS  C:\Users\okuntso\AppData\Local\Temp\ccSegaCM.s 			page 143


 5248 0139 05       		.uleb128 0x5
 5249 013a 00       		.byte	0
 5250 013b 03       		.uleb128 0x3
 5251 013c 0E       		.uleb128 0xe
 5252 013d 3A       		.uleb128 0x3a
 5253 013e 0B       		.uleb128 0xb
 5254 013f 3B       		.uleb128 0x3b
 5255 0140 0B       		.uleb128 0xb
 5256 0141 49       		.uleb128 0x49
 5257 0142 13       		.uleb128 0x13
 5258 0143 02       		.uleb128 0x2
 5259 0144 18       		.uleb128 0x18
 5260 0145 00       		.byte	0
 5261 0146 00       		.byte	0
 5262 0147 15       		.uleb128 0x15
 5263 0148 2E       		.uleb128 0x2e
 5264 0149 01       		.byte	0x1
 5265 014a 3F       		.uleb128 0x3f
 5266 014b 19       		.uleb128 0x19
 5267 014c 03       		.uleb128 0x3
 5268 014d 0E       		.uleb128 0xe
 5269 014e 3A       		.uleb128 0x3a
 5270 014f 0B       		.uleb128 0xb
 5271 0150 3B       		.uleb128 0x3b
 5272 0151 05       		.uleb128 0x5
 5273 0152 27       		.uleb128 0x27
 5274 0153 19       		.uleb128 0x19
 5275 0154 11       		.uleb128 0x11
 5276 0155 01       		.uleb128 0x1
 5277 0156 12       		.uleb128 0x12
 5278 0157 06       		.uleb128 0x6
 5279 0158 40       		.uleb128 0x40
 5280 0159 18       		.uleb128 0x18
 5281 015a 9642     		.uleb128 0x2116
 5282 015c 19       		.uleb128 0x19
 5283 015d 01       		.uleb128 0x1
 5284 015e 13       		.uleb128 0x13
 5285 015f 00       		.byte	0
 5286 0160 00       		.byte	0
 5287 0161 16       		.uleb128 0x16
 5288 0162 2E       		.uleb128 0x2e
 5289 0163 00       		.byte	0
 5290 0164 3F       		.uleb128 0x3f
 5291 0165 19       		.uleb128 0x19
 5292 0166 03       		.uleb128 0x3
 5293 0167 0E       		.uleb128 0xe
 5294 0168 3A       		.uleb128 0x3a
 5295 0169 0B       		.uleb128 0xb
 5296 016a 3B       		.uleb128 0x3b
 5297 016b 05       		.uleb128 0x5
 5298 016c 27       		.uleb128 0x27
 5299 016d 19       		.uleb128 0x19
 5300 016e 49       		.uleb128 0x49
 5301 016f 13       		.uleb128 0x13
 5302 0170 11       		.uleb128 0x11
 5303 0171 01       		.uleb128 0x1
 5304 0172 12       		.uleb128 0x12
ARM GAS  C:\Users\okuntso\AppData\Local\Temp\ccSegaCM.s 			page 144


 5305 0173 06       		.uleb128 0x6
 5306 0174 40       		.uleb128 0x40
 5307 0175 18       		.uleb128 0x18
 5308 0176 9742     		.uleb128 0x2117
 5309 0178 19       		.uleb128 0x19
 5310 0179 00       		.byte	0
 5311 017a 00       		.byte	0
 5312 017b 17       		.uleb128 0x17
 5313 017c 2E       		.uleb128 0x2e
 5314 017d 01       		.byte	0x1
 5315 017e 3F       		.uleb128 0x3f
 5316 017f 19       		.uleb128 0x19
 5317 0180 03       		.uleb128 0x3
 5318 0181 0E       		.uleb128 0xe
 5319 0182 3A       		.uleb128 0x3a
 5320 0183 0B       		.uleb128 0xb
 5321 0184 3B       		.uleb128 0x3b
 5322 0185 05       		.uleb128 0x5
 5323 0186 27       		.uleb128 0x27
 5324 0187 19       		.uleb128 0x19
 5325 0188 11       		.uleb128 0x11
 5326 0189 01       		.uleb128 0x1
 5327 018a 12       		.uleb128 0x12
 5328 018b 06       		.uleb128 0x6
 5329 018c 40       		.uleb128 0x40
 5330 018d 18       		.uleb128 0x18
 5331 018e 9742     		.uleb128 0x2117
 5332 0190 19       		.uleb128 0x19
 5333 0191 01       		.uleb128 0x1
 5334 0192 13       		.uleb128 0x13
 5335 0193 00       		.byte	0
 5336 0194 00       		.byte	0
 5337 0195 18       		.uleb128 0x18
 5338 0196 0F       		.uleb128 0xf
 5339 0197 00       		.byte	0
 5340 0198 0B       		.uleb128 0xb
 5341 0199 0B       		.uleb128 0xb
 5342 019a 49       		.uleb128 0x49
 5343 019b 13       		.uleb128 0x13
 5344 019c 00       		.byte	0
 5345 019d 00       		.byte	0
 5346 019e 19       		.uleb128 0x19
 5347 019f 2E       		.uleb128 0x2e
 5348 01a0 00       		.byte	0
 5349 01a1 3F       		.uleb128 0x3f
 5350 01a2 19       		.uleb128 0x19
 5351 01a3 03       		.uleb128 0x3
 5352 01a4 0E       		.uleb128 0xe
 5353 01a5 3A       		.uleb128 0x3a
 5354 01a6 0B       		.uleb128 0xb
 5355 01a7 3B       		.uleb128 0x3b
 5356 01a8 05       		.uleb128 0x5
 5357 01a9 27       		.uleb128 0x27
 5358 01aa 19       		.uleb128 0x19
 5359 01ab 49       		.uleb128 0x49
 5360 01ac 13       		.uleb128 0x13
 5361 01ad 11       		.uleb128 0x11
ARM GAS  C:\Users\okuntso\AppData\Local\Temp\ccSegaCM.s 			page 145


 5362 01ae 01       		.uleb128 0x1
 5363 01af 12       		.uleb128 0x12
 5364 01b0 06       		.uleb128 0x6
 5365 01b1 40       		.uleb128 0x40
 5366 01b2 18       		.uleb128 0x18
 5367 01b3 9642     		.uleb128 0x2116
 5368 01b5 19       		.uleb128 0x19
 5369 01b6 00       		.byte	0
 5370 01b7 00       		.byte	0
 5371 01b8 1A       		.uleb128 0x1a
 5372 01b9 2E       		.uleb128 0x2e
 5373 01ba 01       		.byte	0x1
 5374 01bb 3F       		.uleb128 0x3f
 5375 01bc 19       		.uleb128 0x19
 5376 01bd 03       		.uleb128 0x3
 5377 01be 0E       		.uleb128 0xe
 5378 01bf 3A       		.uleb128 0x3a
 5379 01c0 0B       		.uleb128 0xb
 5380 01c1 3B       		.uleb128 0x3b
 5381 01c2 05       		.uleb128 0x5
 5382 01c3 27       		.uleb128 0x27
 5383 01c4 19       		.uleb128 0x19
 5384 01c5 49       		.uleb128 0x49
 5385 01c6 13       		.uleb128 0x13
 5386 01c7 11       		.uleb128 0x11
 5387 01c8 01       		.uleb128 0x1
 5388 01c9 12       		.uleb128 0x12
 5389 01ca 06       		.uleb128 0x6
 5390 01cb 40       		.uleb128 0x40
 5391 01cc 18       		.uleb128 0x18
 5392 01cd 9642     		.uleb128 0x2116
 5393 01cf 19       		.uleb128 0x19
 5394 01d0 01       		.uleb128 0x1
 5395 01d1 13       		.uleb128 0x13
 5396 01d2 00       		.byte	0
 5397 01d3 00       		.byte	0
 5398 01d4 1B       		.uleb128 0x1b
 5399 01d5 26       		.uleb128 0x26
 5400 01d6 00       		.byte	0
 5401 01d7 49       		.uleb128 0x49
 5402 01d8 13       		.uleb128 0x13
 5403 01d9 00       		.byte	0
 5404 01da 00       		.byte	0
 5405 01db 1C       		.uleb128 0x1c
 5406 01dc 2E       		.uleb128 0x2e
 5407 01dd 01       		.byte	0x1
 5408 01de 3F       		.uleb128 0x3f
 5409 01df 19       		.uleb128 0x19
 5410 01e0 03       		.uleb128 0x3
 5411 01e1 0E       		.uleb128 0xe
 5412 01e2 3A       		.uleb128 0x3a
 5413 01e3 0B       		.uleb128 0xb
 5414 01e4 3B       		.uleb128 0x3b
 5415 01e5 05       		.uleb128 0x5
 5416 01e6 27       		.uleb128 0x27
 5417 01e7 19       		.uleb128 0x19
 5418 01e8 49       		.uleb128 0x49
ARM GAS  C:\Users\okuntso\AppData\Local\Temp\ccSegaCM.s 			page 146


 5419 01e9 13       		.uleb128 0x13
 5420 01ea 11       		.uleb128 0x11
 5421 01eb 01       		.uleb128 0x1
 5422 01ec 12       		.uleb128 0x12
 5423 01ed 06       		.uleb128 0x6
 5424 01ee 40       		.uleb128 0x40
 5425 01ef 18       		.uleb128 0x18
 5426 01f0 9742     		.uleb128 0x2117
 5427 01f2 19       		.uleb128 0x19
 5428 01f3 01       		.uleb128 0x1
 5429 01f4 13       		.uleb128 0x13
 5430 01f5 00       		.byte	0
 5431 01f6 00       		.byte	0
 5432 01f7 1D       		.uleb128 0x1d
 5433 01f8 34       		.uleb128 0x34
 5434 01f9 00       		.byte	0
 5435 01fa 03       		.uleb128 0x3
 5436 01fb 08       		.uleb128 0x8
 5437 01fc 3A       		.uleb128 0x3a
 5438 01fd 0B       		.uleb128 0xb
 5439 01fe 3B       		.uleb128 0x3b
 5440 01ff 05       		.uleb128 0x5
 5441 0200 49       		.uleb128 0x49
 5442 0201 13       		.uleb128 0x13
 5443 0202 02       		.uleb128 0x2
 5444 0203 18       		.uleb128 0x18
 5445 0204 00       		.byte	0
 5446 0205 00       		.byte	0
 5447 0206 1E       		.uleb128 0x1e
 5448 0207 34       		.uleb128 0x34
 5449 0208 00       		.byte	0
 5450 0209 03       		.uleb128 0x3
 5451 020a 0E       		.uleb128 0xe
 5452 020b 3A       		.uleb128 0x3a
 5453 020c 0B       		.uleb128 0xb
 5454 020d 3B       		.uleb128 0x3b
 5455 020e 0B       		.uleb128 0xb
 5456 020f 49       		.uleb128 0x49
 5457 0210 13       		.uleb128 0x13
 5458 0211 3F       		.uleb128 0x3f
 5459 0212 19       		.uleb128 0x19
 5460 0213 02       		.uleb128 0x2
 5461 0214 18       		.uleb128 0x18
 5462 0215 00       		.byte	0
 5463 0216 00       		.byte	0
 5464 0217 1F       		.uleb128 0x1f
 5465 0218 01       		.uleb128 0x1
 5466 0219 01       		.byte	0x1
 5467 021a 49       		.uleb128 0x49
 5468 021b 13       		.uleb128 0x13
 5469 021c 01       		.uleb128 0x1
 5470 021d 13       		.uleb128 0x13
 5471 021e 00       		.byte	0
 5472 021f 00       		.byte	0
 5473 0220 20       		.uleb128 0x20
 5474 0221 21       		.uleb128 0x21
 5475 0222 00       		.byte	0
ARM GAS  C:\Users\okuntso\AppData\Local\Temp\ccSegaCM.s 			page 147


 5476 0223 49       		.uleb128 0x49
 5477 0224 13       		.uleb128 0x13
 5478 0225 2F       		.uleb128 0x2f
 5479 0226 0B       		.uleb128 0xb
 5480 0227 00       		.byte	0
 5481 0228 00       		.byte	0
 5482 0229 00       		.byte	0
 5483              		.section	.debug_aranges,"",%progbits
 5484 0000 3C010000 		.4byte	0x13c
 5485 0004 0200     		.2byte	0x2
 5486 0006 00000000 		.4byte	.Ldebug_info0
 5487 000a 04       		.byte	0x4
 5488 000b 00       		.byte	0
 5489 000c 0000     		.2byte	0
 5490 000e 0000     		.2byte	0
 5491 0010 00000000 		.4byte	.LFB0
 5492 0014 24000000 		.4byte	.LFE0-.LFB0
 5493 0018 00000000 		.4byte	.LFB1
 5494 001c 42000000 		.4byte	.LFE1-.LFB1
 5495 0020 00000000 		.4byte	.LFB2
 5496 0024 30000000 		.4byte	.LFE2-.LFB2
 5497 0028 00000000 		.4byte	.LFB3
 5498 002c 32000000 		.4byte	.LFE3-.LFB3
 5499 0030 00000000 		.4byte	.LFB4
 5500 0034 32000000 		.4byte	.LFE4-.LFB4
 5501 0038 00000000 		.4byte	.LFB5
 5502 003c 20000000 		.4byte	.LFE5-.LFB5
 5503 0040 00000000 		.4byte	.LFB6
 5504 0044 32000000 		.4byte	.LFE6-.LFB6
 5505 0048 00000000 		.4byte	.LFB7
 5506 004c 32000000 		.4byte	.LFE7-.LFB7
 5507 0050 00000000 		.4byte	.LFB8
 5508 0054 58000000 		.4byte	.LFE8-.LFB8
 5509 0058 00000000 		.4byte	.LFB22
 5510 005c 20000000 		.4byte	.LFE22-.LFB22
 5511 0060 00000000 		.4byte	.LFB23
 5512 0064 A0000000 		.4byte	.LFE23-.LFB23
 5513 0068 00000000 		.4byte	.LFB24
 5514 006c D6000000 		.4byte	.LFE24-.LFB24
 5515 0070 00000000 		.4byte	.LFB25
 5516 0074 88000000 		.4byte	.LFE25-.LFB25
 5517 0078 00000000 		.4byte	.LFB26
 5518 007c 1C000000 		.4byte	.LFE26-.LFB26
 5519 0080 00000000 		.4byte	.LFB27
 5520 0084 0A000000 		.4byte	.LFE27-.LFB27
 5521 0088 00000000 		.4byte	.LFB28
 5522 008c 50010000 		.4byte	.LFE28-.LFB28
 5523 0090 00000000 		.4byte	.LFB29
 5524 0094 10010000 		.4byte	.LFE29-.LFB29
 5525 0098 00000000 		.4byte	.LFB30
 5526 009c BC000000 		.4byte	.LFE30-.LFB30
 5527 00a0 00000000 		.4byte	.LFB31
 5528 00a4 18000000 		.4byte	.LFE31-.LFB31
 5529 00a8 00000000 		.4byte	.LFB32
 5530 00ac 28000000 		.4byte	.LFE32-.LFB32
 5531 00b0 00000000 		.4byte	.LFB33
 5532 00b4 14000000 		.4byte	.LFE33-.LFB33
ARM GAS  C:\Users\okuntso\AppData\Local\Temp\ccSegaCM.s 			page 148


 5533 00b8 00000000 		.4byte	.LFB34
 5534 00bc 14000000 		.4byte	.LFE34-.LFB34
 5535 00c0 00000000 		.4byte	.LFB35
 5536 00c4 3C000000 		.4byte	.LFE35-.LFB35
 5537 00c8 00000000 		.4byte	.LFB36
 5538 00cc 44000000 		.4byte	.LFE36-.LFB36
 5539 00d0 00000000 		.4byte	.LFB37
 5540 00d4 44000000 		.4byte	.LFE37-.LFB37
 5541 00d8 00000000 		.4byte	.LFB38
 5542 00dc 80000000 		.4byte	.LFE38-.LFB38
 5543 00e0 00000000 		.4byte	.LFB39
 5544 00e4 B8000000 		.4byte	.LFE39-.LFB39
 5545 00e8 00000000 		.4byte	.LFB40
 5546 00ec B8000000 		.4byte	.LFE40-.LFB40
 5547 00f0 00000000 		.4byte	.LFB41
 5548 00f4 A8000000 		.4byte	.LFE41-.LFB41
 5549 00f8 00000000 		.4byte	.LFB42
 5550 00fc 4E000000 		.4byte	.LFE42-.LFB42
 5551 0100 00000000 		.4byte	.LFB43
 5552 0104 60000000 		.4byte	.LFE43-.LFB43
 5553 0108 00000000 		.4byte	.LFB44
 5554 010c E0000000 		.4byte	.LFE44-.LFB44
 5555 0110 00000000 		.4byte	.LFB45
 5556 0114 90010000 		.4byte	.LFE45-.LFB45
 5557 0118 00000000 		.4byte	.LFB46
 5558 011c 98020000 		.4byte	.LFE46-.LFB46
 5559 0120 00000000 		.4byte	.LFB47
 5560 0124 7A000000 		.4byte	.LFE47-.LFB47
 5561 0128 00000000 		.4byte	.LFB48
 5562 012c 3C000000 		.4byte	.LFE48-.LFB48
 5563 0130 00000000 		.4byte	.LFB49
 5564 0134 3C000000 		.4byte	.LFE49-.LFB49
 5565 0138 00000000 		.4byte	0
 5566 013c 00000000 		.4byte	0
 5567              		.section	.debug_ranges,"",%progbits
 5568              	.Ldebug_ranges0:
 5569 0000 00000000 		.4byte	.LFB0
 5570 0004 24000000 		.4byte	.LFE0
 5571 0008 00000000 		.4byte	.LFB1
 5572 000c 42000000 		.4byte	.LFE1
 5573 0010 00000000 		.4byte	.LFB2
 5574 0014 30000000 		.4byte	.LFE2
 5575 0018 00000000 		.4byte	.LFB3
 5576 001c 32000000 		.4byte	.LFE3
 5577 0020 00000000 		.4byte	.LFB4
 5578 0024 32000000 		.4byte	.LFE4
 5579 0028 00000000 		.4byte	.LFB5
 5580 002c 20000000 		.4byte	.LFE5
 5581 0030 00000000 		.4byte	.LFB6
 5582 0034 32000000 		.4byte	.LFE6
 5583 0038 00000000 		.4byte	.LFB7
 5584 003c 32000000 		.4byte	.LFE7
 5585 0040 00000000 		.4byte	.LFB8
 5586 0044 58000000 		.4byte	.LFE8
 5587 0048 00000000 		.4byte	.LFB22
 5588 004c 20000000 		.4byte	.LFE22
 5589 0050 00000000 		.4byte	.LFB23
ARM GAS  C:\Users\okuntso\AppData\Local\Temp\ccSegaCM.s 			page 149


 5590 0054 A0000000 		.4byte	.LFE23
 5591 0058 00000000 		.4byte	.LFB24
 5592 005c D6000000 		.4byte	.LFE24
 5593 0060 00000000 		.4byte	.LFB25
 5594 0064 88000000 		.4byte	.LFE25
 5595 0068 00000000 		.4byte	.LFB26
 5596 006c 1C000000 		.4byte	.LFE26
 5597 0070 00000000 		.4byte	.LFB27
 5598 0074 0A000000 		.4byte	.LFE27
 5599 0078 00000000 		.4byte	.LFB28
 5600 007c 50010000 		.4byte	.LFE28
 5601 0080 00000000 		.4byte	.LFB29
 5602 0084 10010000 		.4byte	.LFE29
 5603 0088 00000000 		.4byte	.LFB30
 5604 008c BC000000 		.4byte	.LFE30
 5605 0090 00000000 		.4byte	.LFB31
 5606 0094 18000000 		.4byte	.LFE31
 5607 0098 00000000 		.4byte	.LFB32
 5608 009c 28000000 		.4byte	.LFE32
 5609 00a0 00000000 		.4byte	.LFB33
 5610 00a4 14000000 		.4byte	.LFE33
 5611 00a8 00000000 		.4byte	.LFB34
 5612 00ac 14000000 		.4byte	.LFE34
 5613 00b0 00000000 		.4byte	.LFB35
 5614 00b4 3C000000 		.4byte	.LFE35
 5615 00b8 00000000 		.4byte	.LFB36
 5616 00bc 44000000 		.4byte	.LFE36
 5617 00c0 00000000 		.4byte	.LFB37
 5618 00c4 44000000 		.4byte	.LFE37
 5619 00c8 00000000 		.4byte	.LFB38
 5620 00cc 80000000 		.4byte	.LFE38
 5621 00d0 00000000 		.4byte	.LFB39
 5622 00d4 B8000000 		.4byte	.LFE39
 5623 00d8 00000000 		.4byte	.LFB40
 5624 00dc B8000000 		.4byte	.LFE40
 5625 00e0 00000000 		.4byte	.LFB41
 5626 00e4 A8000000 		.4byte	.LFE41
 5627 00e8 00000000 		.4byte	.LFB42
 5628 00ec 4E000000 		.4byte	.LFE42
 5629 00f0 00000000 		.4byte	.LFB43
 5630 00f4 60000000 		.4byte	.LFE43
 5631 00f8 00000000 		.4byte	.LFB44
 5632 00fc E0000000 		.4byte	.LFE44
 5633 0100 00000000 		.4byte	.LFB45
 5634 0104 90010000 		.4byte	.LFE45
 5635 0108 00000000 		.4byte	.LFB46
 5636 010c 98020000 		.4byte	.LFE46
 5637 0110 00000000 		.4byte	.LFB47
 5638 0114 7A000000 		.4byte	.LFE47
 5639 0118 00000000 		.4byte	.LFB48
 5640 011c 3C000000 		.4byte	.LFE48
 5641 0120 00000000 		.4byte	.LFB49
 5642 0124 3C000000 		.4byte	.LFE49
 5643 0128 00000000 		.4byte	0
 5644 012c 00000000 		.4byte	0
 5645              		.section	.debug_line,"",%progbits
 5646              	.Ldebug_line0:
ARM GAS  C:\Users\okuntso\AppData\Local\Temp\ccSegaCM.s 			page 150


 5647 0000 48050000 		.section	.debug_str,"MS",%progbits,1
 5647      02004900 
 5647      00000201 
 5647      FB0E0D00 
 5647      01010101 
 5648              	.LASF72:
 5649 0000 64617465 		.ascii	"dateTime\000"
 5649      54696D65 
 5649      00
 5650              	.LASF59:
 5651 0009 746D7044 		.ascii	"tmpDay\000"
 5651      617900
 5652              	.LASF43:
 5653 0010 5254435F 		.ascii	"RTC_GetMonth\000"
 5653      4765744D 
 5653      6F6E7468 
 5653      00
 5654              	.LASF10:
 5655 001d 75696E74 		.ascii	"uint16\000"
 5655      313600
 5656              	.LASF38:
 5657 0024 72657456 		.ascii	"retVal\000"
 5657      616C00
 5658              	.LASF36:
 5659 002b 5254435F 		.ascii	"RTC_GetSecond\000"
 5659      47657453 
 5659      65636F6E 
 5659      6400
 5660              	.LASF71:
 5661 0039 5254435F 		.ascii	"RTC_GetDateAndTime\000"
 5661      47657444 
 5661      61746541 
 5661      6E645469 
 5661      6D6500
 5662              	.LASF45:
 5663 004c 5254435F 		.ascii	"RTC_GetTimeFormat\000"
 5663      47657454 
 5663      696D6546 
 5663      6F726D61 
 5663      7400
 5664              	.LASF53:
 5665 005e 746D7044 		.ascii	"tmpDate\000"
 5665      61746500 
 5666              	.LASF55:
 5667 0066 64737454 		.ascii	"dstTimeTmp\000"
 5667      696D6554 
 5667      6D7000
 5668              	.LASF34:
 5669 0071 5254435F 		.ascii	"RTC_LeapYear\000"
 5669      4C656170 
 5669      59656172 
 5669      00
 5670              	.LASF119:
 5671 007e 5254435F 		.ascii	"RTC_daysInMonthTbl\000"
 5671      64617973 
 5671      496E4D6F 
 5671      6E746854 
ARM GAS  C:\Users\okuntso\AppData\Local\Temp\ccSegaCM.s 			page 151


 5671      626C00
 5672              	.LASF115:
 5673 0091 5254435F 		.ascii	"RTC_dstStopTime\000"
 5673      64737453 
 5673      746F7054 
 5673      696D6500 
 5674              	.LASF78:
 5675 00a1 74797065 		.ascii	"type\000"
 5675      00
 5676              	.LASF56:
 5677 00a6 5254435F 		.ascii	"RTC_Init\000"
 5677      496E6974 
 5677      00
 5678              	.LASF95:
 5679 00af 746D704D 		.ascii	"tmpMinute\000"
 5679      696E7574 
 5679      6500
 5680              	.LASF99:
 5681 00b9 5254435F 		.ascii	"RTC_RelativeToFixed\000"
 5681      52656C61 
 5681      74697665 
 5681      546F4669 
 5681      78656400 
 5682              	.LASF7:
 5683 00cd 6C6F6E67 		.ascii	"long long unsigned int\000"
 5683      206C6F6E 
 5683      6720756E 
 5683      7369676E 
 5683      65642069 
 5684              	.LASF50:
 5685 00e4 5254435F 		.ascii	"RTC_GetDayOfWeek\000"
 5685      47657444 
 5685      61794F66 
 5685      5765656B 
 5685      00
 5686              	.LASF104:
 5687 00f5 5254435F 		.ascii	"RTC_DaysInMonth\000"
 5687      44617973 
 5687      496E4D6F 
 5687      6E746800 
 5688              	.LASF60:
 5689 0105 746D704D 		.ascii	"tmpMonth\000"
 5689      6F6E7468 
 5689      00
 5690              	.LASF28:
 5691 010e 7765656B 		.ascii	"weekOfMonth\000"
 5691      4F664D6F 
 5691      6E746800 
 5692              	.LASF84:
 5693 011a 64737455 		.ascii	"dstUnixTime\000"
 5693      6E697854 
 5693      696D6500 
 5694              	.LASF97:
 5695 0126 746D7041 		.ascii	"tmpAmPmState\000"
 5695      6D506D53 
 5695      74617465 
 5695      00
ARM GAS  C:\Users\okuntso\AppData\Local\Temp\ccSegaCM.s 			page 152


 5696              	.LASF105:
 5697 0133 5254435F 		.ascii	"RTC_DaysBeforeMonth\000"
 5697      44617973 
 5697      4265666F 
 5697      72654D6F 
 5697      6E746800 
 5698              	.LASF86:
 5699 0147 6263644E 		.ascii	"bcdNum\000"
 5699      756D00
 5700              	.LASF102:
 5701 014e 64617973 		.ascii	"daysInMonth\000"
 5701      496E4D6F 
 5701      6E746800 
 5702              	.LASF6:
 5703 015a 6C6F6E67 		.ascii	"long long int\000"
 5703      206C6F6E 
 5703      6720696E 
 5703      7400
 5704              	.LASF0:
 5705 0168 7369676E 		.ascii	"signed char\000"
 5705      65642063 
 5705      68617200 
 5706              	.LASF65:
 5707 0174 5254435F 		.ascii	"RTC_SetPeriod\000"
 5707      53657450 
 5707      6572696F 
 5707      6400
 5708              	.LASF106:
 5709 0182 5254435F 		.ascii	"RTC_updateTimePeriod\000"
 5709      75706461 
 5709      74655469 
 5709      6D655065 
 5709      72696F64 
 5710              	.LASF51:
 5711 0197 5254435F 		.ascii	"RTC_Start\000"
 5711      53746172 
 5711      7400
 5712              	.LASF111:
 5713 01a1 5254435F 		.ascii	"RTC_initVar\000"
 5713      696E6974 
 5713      56617200 
 5714              	.LASF35:
 5715 01ad 79656172 		.ascii	"year\000"
 5715      00
 5716              	.LASF62:
 5717 01b2 5254435F 		.ascii	"RTC_SetUnixTime\000"
 5717      53657455 
 5717      6E697854 
 5717      696D6500 
 5718              	.LASF75:
 5719 01c2 746D7054 		.ascii	"tmpTimeDate\000"
 5719      696D6544 
 5719      61746500 
 5720              	.LASF4:
 5721 01ce 6C6F6E67 		.ascii	"long int\000"
 5721      20696E74 
 5721      00
ARM GAS  C:\Users\okuntso\AppData\Local\Temp\ccSegaCM.s 			page 153


 5722              	.LASF85:
 5723 01d7 5254435F 		.ascii	"RTC_ConvertBCDToDec\000"
 5723      436F6E76 
 5723      65727442 
 5723      4344546F 
 5723      44656300 
 5724              	.LASF39:
 5725 01eb 5254435F 		.ascii	"RTC_GetMinutes\000"
 5725      4765744D 
 5725      696E7574 
 5725      657300
 5726              	.LASF9:
 5727 01fa 75696E74 		.ascii	"uint8\000"
 5727      3800
 5728              	.LASF83:
 5729 0200 64737454 		.ascii	"dstTime\000"
 5729      696D6500 
 5730              	.LASF67:
 5731 0208 7265664F 		.ascii	"refOneSecTicks\000"
 5731      6E655365 
 5731      63546963 
 5731      6B7300
 5732              	.LASF100:
 5733 0217 63757244 		.ascii	"curDay\000"
 5733      617900
 5734              	.LASF77:
 5735 021e 64737453 		.ascii	"dstStartTime\000"
 5735      74617274 
 5735      54696D65 
 5735      00
 5736              	.LASF13:
 5737 022b 646F7562 		.ascii	"double\000"
 5737      6C6500
 5738              	.LASF122:
 5739 0232 433A5C55 		.ascii	"C:\\Users\\okuntso\\Documents\\PSoC Creator\\Diplom"
 5739      73657273 
 5739      5C6F6B75 
 5739      6E74736F 
 5739      5C446F63 
 5740 0260 615C5254 		.ascii	"a\\RTC_P4_SysTick_Example01.cydsn\000"
 5740      435F5034 
 5740      5F537973 
 5740      5469636B 
 5740      5F457861 
 5741              	.LASF44:
 5742 0281 5254435F 		.ascii	"RTC_GetYear\000"
 5742      47657459 
 5742      65617200 
 5743              	.LASF90:
 5744 028d 73686966 		.ascii	"shift\000"
 5744      7400
 5745              	.LASF11:
 5746 0293 75696E74 		.ascii	"uint32\000"
 5746      333200
 5747              	.LASF113:
 5748 029a 5254435F 		.ascii	"RTC_unixTime\000"
 5748      756E6978 
ARM GAS  C:\Users\okuntso\AppData\Local\Temp\ccSegaCM.s 			page 154


 5748      54696D65 
 5748      00
 5749              	.LASF76:
 5750 02a7 5254435F 		.ascii	"RTC_SetDSTStartTime\000"
 5750      53657444 
 5750      53545374 
 5750      61727454 
 5750      696D6500 
 5751              	.LASF57:
 5752 02bb 5254435F 		.ascii	"RTC_SetDateAndTime\000"
 5752      53657444 
 5752      61746541 
 5752      6E645469 
 5752      6D6500
 5753              	.LASF32:
 5754 02ce 6D61736B 		.ascii	"mask\000"
 5754      00
 5755              	.LASF117:
 5756 02d3 5254435F 		.ascii	"RTC_alarmCurStatus\000"
 5756      616C6172 
 5756      6D437572 
 5756      53746174 
 5756      757300
 5757              	.LASF29:
 5758 02e6 6D6F6E74 		.ascii	"month\000"
 5758      6800
 5759              	.LASF8:
 5760 02ec 756E7369 		.ascii	"unsigned int\000"
 5760      676E6564 
 5760      20696E74 
 5760      00
 5761              	.LASF30:
 5762 02f9 74696D65 		.ascii	"timeFormat\000"
 5762      466F726D 
 5762      617400
 5763              	.LASF88:
 5764 0304 5254435F 		.ascii	"RTC_ConvertDecToBCD\000"
 5764      436F6E76 
 5764      65727444 
 5764      6563546F 
 5764      42434400 
 5765              	.LASF101:
 5766 0318 63757257 		.ascii	"curWeek\000"
 5766      65656B00 
 5767              	.LASF5:
 5768 0320 6C6F6E67 		.ascii	"long unsigned int\000"
 5768      20756E73 
 5768      69676E65 
 5768      6420696E 
 5768      7400
 5769              	.LASF40:
 5770 0332 5254435F 		.ascii	"RTC_GetHours\000"
 5770      47657448 
 5770      6F757273 
 5770      00
 5771              	.LASF69:
 5772 033f 5254435F 		.ascii	"RTC_GetPeriod\000"
ARM GAS  C:\Users\okuntso\AppData\Local\Temp\ccSegaCM.s 			page 155


 5772      47657450 
 5772      6572696F 
 5772      6400
 5773              	.LASF3:
 5774 034d 73686F72 		.ascii	"short unsigned int\000"
 5774      7420756E 
 5774      7369676E 
 5774      65642069 
 5774      6E7400
 5775              	.LASF22:
 5776 0360 64617465 		.ascii	"date\000"
 5776      00
 5777              	.LASF66:
 5778 0365 7469636B 		.ascii	"ticks\000"
 5778      7300
 5779              	.LASF73:
 5780 036b 5254435F 		.ascii	"RTC_GetTime\000"
 5780      47657454 
 5780      696D6500 
 5781              	.LASF120:
 5782 0377 474E5520 		.ascii	"GNU C11 5.4.1 20160609 (release) [ARM/embedded-5-br"
 5782      43313120 
 5782      352E342E 
 5782      31203230 
 5782      31363036 
 5783 03aa 616E6368 		.ascii	"anch revision 237715] -mcpu=cortex-m0 -mthumb -g -O"
 5783      20726576 
 5783      6973696F 
 5783      6E203233 
 5783      37373135 
 5784 03dd 30202D66 		.ascii	"0 -ffunction-sections -ffat-lto-objects\000"
 5784      66756E63 
 5784      74696F6E 
 5784      2D736563 
 5784      74696F6E 
 5785              	.LASF93:
 5786 0405 5254435F 		.ascii	"RTC_DateTimeToUnix\000"
 5786      44617465 
 5786      54696D65 
 5786      546F556E 
 5786      697800
 5787              	.LASF23:
 5788 0418 6461794F 		.ascii	"dayOfWeek\000"
 5788      66576565 
 5788      6B00
 5789              	.LASF20:
 5790 0422 5254435F 		.ascii	"RTC_DST_DATETYPE_ENUM\000"
 5790      4453545F 
 5790      44415445 
 5790      54595045 
 5790      5F454E55 
 5791              	.LASF103:
 5792 0438 6461794F 		.ascii	"dayOfMonthTmp\000"
 5792      664D6F6E 
 5792      7468546D 
 5792      7000
 5793              	.LASF17:
ARM GAS  C:\Users\okuntso\AppData\Local\Temp\ccSegaCM.s 			page 156


 5794 0446 73697A65 		.ascii	"sizetype\000"
 5794      74797065 
 5794      00
 5795              	.LASF110:
 5796 044f 5254435F 		.ascii	"RTC_unixTimeDstStop\000"
 5796      756E6978 
 5796      54696D65 
 5796      44737453 
 5796      746F7000 
 5797              	.LASF121:
 5798 0463 47656E65 		.ascii	"Generated_Source\\PSoC4\\RTC.c\000"
 5798      72617465 
 5798      645F536F 
 5798      75726365 
 5798      5C50536F 
 5799              	.LASF16:
 5800 0480 6C6F6E67 		.ascii	"long double\000"
 5800      20646F75 
 5800      626C6500 
 5801              	.LASF18:
 5802 048c 5254435F 		.ascii	"RTC_DST_DATE_RELATIVE\000"
 5802      4453545F 
 5802      44415445 
 5802      5F52454C 
 5802      41544956 
 5803              	.LASF61:
 5804 04a2 746D7059 		.ascii	"tmpYear\000"
 5804      65617200 
 5805              	.LASF118:
 5806 04aa 5254435F 		.ascii	"RTC_daysBeforeMonthTbl\000"
 5806      64617973 
 5806      4265666F 
 5806      72654D6F 
 5806      6E746854 
 5807              	.LASF96:
 5808 04c1 746D7048 		.ascii	"tmpHour\000"
 5808      6F757200 
 5809              	.LASF108:
 5810 04c9 5254435F 		.ascii	"RTC_dstTimeOffset\000"
 5810      64737454 
 5810      696D654F 
 5810      66667365 
 5810      7400
 5811              	.LASF21:
 5812 04db 74696D65 		.ascii	"time\000"
 5812      00
 5813              	.LASF26:
 5814 04e0 686F7572 		.ascii	"hour\000"
 5814      00
 5815              	.LASF12:
 5816 04e5 666C6F61 		.ascii	"float\000"
 5816      7400
 5817              	.LASF27:
 5818 04eb 6461794F 		.ascii	"dayOfMonth\000"
 5818      664D6F6E 
 5818      746800
 5819              	.LASF68:
ARM GAS  C:\Users\okuntso\AppData\Local\Temp\ccSegaCM.s 			page 157


 5820 04f6 5254435F 		.ascii	"RTC_GetUnixTime\000"
 5820      47657455 
 5820      6E697854 
 5820      696D6500 
 5821              	.LASF70:
 5822 0506 5254435F 		.ascii	"RTC_GetRefOneSec\000"
 5822      47657452 
 5822      65664F6E 
 5822      65536563 
 5822      00
 5823              	.LASF47:
 5824 0517 73746174 		.ascii	"stateAmPm\000"
 5824      65416D50 
 5824      6D00
 5825              	.LASF89:
 5826 0521 6465634E 		.ascii	"decNum\000"
 5826      756D00
 5827              	.LASF1:
 5828 0528 756E7369 		.ascii	"unsigned char\000"
 5828      676E6564 
 5828      20636861 
 5828      7200
 5829              	.LASF116:
 5830 0536 5254435F 		.ascii	"RTC_currentTimeDate\000"
 5830      63757272 
 5830      656E7454 
 5830      696D6544 
 5830      61746500 
 5831              	.LASF46:
 5832 054a 5254435F 		.ascii	"RTC_ConstructTime\000"
 5832      436F6E73 
 5832      74727563 
 5832      7454696D 
 5832      6500
 5833              	.LASF37:
 5834 055c 696E7075 		.ascii	"inputTime\000"
 5834      7454696D 
 5834      6500
 5835              	.LASF14:
 5836 0566 75696E74 		.ascii	"uint64\000"
 5836      363400
 5837              	.LASF2:
 5838 056d 73686F72 		.ascii	"short int\000"
 5838      7420696E 
 5838      7400
 5839              	.LASF52:
 5840 0577 5254435F 		.ascii	"RTC_Stop\000"
 5840      53746F70 
 5840      00
 5841              	.LASF19:
 5842 0580 5254435F 		.ascii	"RTC_DST_DATE_FIXED\000"
 5842      4453545F 
 5842      44415445 
 5842      5F464958 
 5842      454400
 5843              	.LASF79:
 5844 0593 5254435F 		.ascii	"RTC_SetDSTStopTime\000"
ARM GAS  C:\Users\okuntso\AppData\Local\Temp\ccSegaCM.s 			page 158


 5844      53657444 
 5844      53545374 
 5844      6F705469 
 5844      6D6500
 5845              	.LASF49:
 5846 05a6 746D7056 		.ascii	"tmpVal\000"
 5846      616C00
 5847              	.LASF107:
 5848 05ad 5254435F 		.ascii	"RTC_tickRefOneSec\000"
 5848      7469636B 
 5848      5265664F 
 5848      6E655365 
 5848      6300
 5849              	.LASF98:
 5850 05bf 746D7056 		.ascii	"tmpVar\000"
 5850      617200
 5851              	.LASF82:
 5852 05c6 5254435F 		.ascii	"RTC_GetDstUnixTime\000"
 5852      47657444 
 5852      7374556E 
 5852      69785469 
 5852      6D6500
 5853              	.LASF80:
 5854 05d9 64737453 		.ascii	"dstStopTime\000"
 5854      746F7054 
 5854      696D6500 
 5855              	.LASF25:
 5856 05e5 5254435F 		.ascii	"RTC_DATE_TIME\000"
 5856      44415445 
 5856      5F54494D 
 5856      4500
 5857              	.LASF74:
 5858 05f3 5254435F 		.ascii	"RTC_GetDate\000"
 5858      47657444 
 5858      61746500 
 5859              	.LASF15:
 5860 05ff 63686172 		.ascii	"char\000"
 5860      00
 5861              	.LASF87:
 5862 0604 6D756C74 		.ascii	"mult\000"
 5862      00
 5863              	.LASF92:
 5864 0609 5254435F 		.ascii	"RTC_currentTickNumber\000"
 5864      63757272 
 5864      656E7454 
 5864      69636B4E 
 5864      756D6265 
 5865              	.LASF48:
 5866 061f 5254435F 		.ascii	"RTC_ConstructDate\000"
 5866      436F6E73 
 5866      74727563 
 5866      74446174 
 5866      6500
 5867              	.LASF109:
 5868 0631 5254435F 		.ascii	"RTC_unixTimeDstStart\000"
 5868      756E6978 
 5868      54696D65 
ARM GAS  C:\Users\okuntso\AppData\Local\Temp\ccSegaCM.s 			page 159


 5868      44737453 
 5868      74617274 
 5869              	.LASF58:
 5870 0646 696E7075 		.ascii	"inputDate\000"
 5870      74446174 
 5870      6500
 5871              	.LASF94:
 5872 0650 5254435F 		.ascii	"RTC_UnixToDateTime\000"
 5872      556E6978 
 5872      546F4461 
 5872      74655469 
 5872      6D6500
 5873              	.LASF42:
 5874 0663 5254435F 		.ascii	"RTC_GetDay\000"
 5874      47657444 
 5874      617900
 5875              	.LASF114:
 5876 066e 5254435F 		.ascii	"RTC_dstStartTime\000"
 5876      64737453 
 5876      74617274 
 5876      54696D65 
 5876      00
 5877              	.LASF63:
 5878 067f 756E6978 		.ascii	"unixTime\000"
 5878      54696D65 
 5878      00
 5879              	.LASF41:
 5880 0688 5254435F 		.ascii	"RTC_GetAmPm\000"
 5880      47657441 
 5880      6D506D00 
 5881              	.LASF112:
 5882 0694 5254435F 		.ascii	"RTC_dstStatus\000"
 5882      64737453 
 5882      74617475 
 5882      7300
 5883              	.LASF24:
 5884 06a2 73746174 		.ascii	"status\000"
 5884      757300
 5885              	.LASF81:
 5886 06a9 5254435F 		.ascii	"RTC_ReadStatus\000"
 5886      52656164 
 5886      53746174 
 5886      757300
 5887              	.LASF31:
 5888 06b8 5254435F 		.ascii	"RTC_DST_TIME\000"
 5888      4453545F 
 5888      54494D45 
 5888      00
 5889              	.LASF54:
 5890 06c5 746D7054 		.ascii	"tmpTime\000"
 5890      696D6500 
 5891              	.LASF91:
 5892 06cd 5254435F 		.ascii	"RTC_Update\000"
 5892      55706461 
 5892      746500
 5893              	.LASF64:
 5894 06d8 746D7044 		.ascii	"tmpDateTime\000"
ARM GAS  C:\Users\okuntso\AppData\Local\Temp\ccSegaCM.s 			page 160


 5894      61746554 
 5894      696D6500 
 5895              	.LASF33:
 5896 06e4 5254435F 		.ascii	"RTC_IsBitSet\000"
 5896      49734269 
 5896      74536574 
 5896      00
 5897              		.ident	"GCC: (GNU Tools for ARM Embedded Processors) 5.4.1 20160609 (release) [ARM/embedded-5-bran
