ARM GAS  C:\Users\okuntso\AppData\Local\Temp\ccSegaCM.s 			page 1


   1              		.syntax unified
   2              		.cpu cortex-m0
   3              		.fpu softvfp
   4              		.eabi_attribute 20, 1
   5              		.eabi_attribute 21, 1
   6              		.eabi_attribute 23, 3
   7              		.eabi_attribute 24, 1
   8              		.eabi_attribute 25, 1
   9              		.eabi_attribute 26, 1
  10              		.eabi_attribute 30, 6
  11              		.eabi_attribute 34, 0
  12              		.eabi_attribute 18, 4
  13              		.thumb
  14              		.syntax unified
  15              		.file	"RTC.c"
  16              		.text
  17              	.Ltext0:
  18              		.cfi_sections	.debug_frame
  19              		.section	.text.RTC_IsBitSet,"ax",%progbits
  20              		.align	2
  21              		.code	16
  22              		.thumb_func
  23              		.type	RTC_IsBitSet, %function
  24              	RTC_IsBitSet:
  25              	.LFB0:
  26              		.file 1 "Generated_Source\\PSoC4\\RTC.h"
   1:Generated_Source\PSoC4/RTC.h **** /***************************************************************************//**
   2:Generated_Source\PSoC4/RTC.h **** * \file Name: RTC.h
   3:Generated_Source\PSoC4/RTC.h **** * \version 1.10
   4:Generated_Source\PSoC4/RTC.h **** *
   5:Generated_Source\PSoC4/RTC.h **** * \brief
   6:Generated_Source\PSoC4/RTC.h **** *  This file provides constants and parameter values for the RTC_P4 Component.
   7:Generated_Source\PSoC4/RTC.h **** *
   8:Generated_Source\PSoC4/RTC.h **** ********************************************************************************
   9:Generated_Source\PSoC4/RTC.h **** * Copyright 2015-2016, Cypress Semiconductor Corporation.  All rights reserved.
  10:Generated_Source\PSoC4/RTC.h **** * You may use this file only in accordance with the license, terms, conditions,
  11:Generated_Source\PSoC4/RTC.h **** * disclaimers, and limitations in the end user license agreement accompanying
  12:Generated_Source\PSoC4/RTC.h **** * the software package with which this file was provided.
  13:Generated_Source\PSoC4/RTC.h **** *******************************************************************************/
  14:Generated_Source\PSoC4/RTC.h **** 
  15:Generated_Source\PSoC4/RTC.h **** #if !defined(CY_RTC_P4_RTC_H)
  16:Generated_Source\PSoC4/RTC.h **** #define CY_RTC_P4_RTC_H
  17:Generated_Source\PSoC4/RTC.h **** 
  18:Generated_Source\PSoC4/RTC.h **** #include <cytypes.h>
  19:Generated_Source\PSoC4/RTC.h **** #include <CyLib.h>
  20:Generated_Source\PSoC4/RTC.h **** 
  21:Generated_Source\PSoC4/RTC.h **** 
  22:Generated_Source\PSoC4/RTC.h **** /*******************************************************************************
  23:Generated_Source\PSoC4/RTC.h **** *    Data types definition
  24:Generated_Source\PSoC4/RTC.h **** *******************************************************************************/
  25:Generated_Source\PSoC4/RTC.h **** 
  26:Generated_Source\PSoC4/RTC.h **** typedef enum
  27:Generated_Source\PSoC4/RTC.h **** {
  28:Generated_Source\PSoC4/RTC.h ****     RTC_DST_DATE_RELATIVE = 0u,
  29:Generated_Source\PSoC4/RTC.h ****     RTC_DST_DATE_FIXED = 1u
  30:Generated_Source\PSoC4/RTC.h **** }RTC_DST_DATETYPE_ENUM;
  31:Generated_Source\PSoC4/RTC.h **** 
ARM GAS  C:\Users\okuntso\AppData\Local\Temp\ccSegaCM.s 			page 2


  32:Generated_Source\PSoC4/RTC.h **** /**
  33:Generated_Source\PSoC4/RTC.h **** * \addtogroup group_structures
  34:Generated_Source\PSoC4/RTC.h **** * @{
  35:Generated_Source\PSoC4/RTC.h **** */
  36:Generated_Source\PSoC4/RTC.h **** 
  37:Generated_Source\PSoC4/RTC.h **** /**
  38:Generated_Source\PSoC4/RTC.h **** * This is the data structure that is used to save the current time and date 
  39:Generated_Source\PSoC4/RTC.h **** * (RTC_currentTimeDate), and Alarm time and date (RTC_alarmCfgTimeDate).
  40:Generated_Source\PSoC4/RTC.h **** */
  41:Generated_Source\PSoC4/RTC.h **** typedef struct
  42:Generated_Source\PSoC4/RTC.h **** {
  43:Generated_Source\PSoC4/RTC.h ****     uint32 time;
  44:Generated_Source\PSoC4/RTC.h ****     uint32 date;
  45:Generated_Source\PSoC4/RTC.h ****     uint32 dayOfWeek;
  46:Generated_Source\PSoC4/RTC.h ****     uint32 status;
  47:Generated_Source\PSoC4/RTC.h **** }RTC_DATE_TIME;
  48:Generated_Source\PSoC4/RTC.h **** 
  49:Generated_Source\PSoC4/RTC.h **** /**
  50:Generated_Source\PSoC4/RTC.h **** * This is the data structure that is used to save time and date values for 
  51:Generated_Source\PSoC4/RTC.h **** * Daylight Savings Time Start and Stop (RTC_dstTimeDateStart and 
  52:Generated_Source\PSoC4/RTC.h **** * RTC_dstTimeDateStop).
  53:Generated_Source\PSoC4/RTC.h **** */
  54:Generated_Source\PSoC4/RTC.h **** typedef struct
  55:Generated_Source\PSoC4/RTC.h **** {
  56:Generated_Source\PSoC4/RTC.h ****     uint32 hour;
  57:Generated_Source\PSoC4/RTC.h ****     uint32 dayOfWeek;
  58:Generated_Source\PSoC4/RTC.h ****     uint32 dayOfMonth;
  59:Generated_Source\PSoC4/RTC.h ****     uint32 weekOfMonth;
  60:Generated_Source\PSoC4/RTC.h ****     uint32 month;
  61:Generated_Source\PSoC4/RTC.h ****     uint8  timeFormat;
  62:Generated_Source\PSoC4/RTC.h **** }RTC_DST_TIME;
  63:Generated_Source\PSoC4/RTC.h **** 
  64:Generated_Source\PSoC4/RTC.h **** /** @} structures */
  65:Generated_Source\PSoC4/RTC.h **** 
  66:Generated_Source\PSoC4/RTC.h **** /*******************************************************************************
  67:Generated_Source\PSoC4/RTC.h **** *    Enumerated Types and Parameters
  68:Generated_Source\PSoC4/RTC.h **** *******************************************************************************/
  69:Generated_Source\PSoC4/RTC.h **** /* Time Format setting constants */
  70:Generated_Source\PSoC4/RTC.h **** #define RTC__HOUR_12 1
  71:Generated_Source\PSoC4/RTC.h **** #define RTC__HOUR_24 0
  72:Generated_Source\PSoC4/RTC.h **** 
  73:Generated_Source\PSoC4/RTC.h **** /*  Date Format setting constants */
  74:Generated_Source\PSoC4/RTC.h **** #define RTC__MM_DD_YYYY 0
  75:Generated_Source\PSoC4/RTC.h **** #define RTC__DD_MM_YYYY 1
  76:Generated_Source\PSoC4/RTC.h **** #define RTC__YYYY_MM_DD 2
  77:Generated_Source\PSoC4/RTC.h **** 
  78:Generated_Source\PSoC4/RTC.h **** /* Date Type setting constants */
  79:Generated_Source\PSoC4/RTC.h **** #define RTC__RELATIVE 0
  80:Generated_Source\PSoC4/RTC.h **** #define RTC__FIXED 1
  81:Generated_Source\PSoC4/RTC.h **** 
  82:Generated_Source\PSoC4/RTC.h **** /* DST Hour setting constants */
  83:Generated_Source\PSoC4/RTC.h **** #define RTC__H0000 0
  84:Generated_Source\PSoC4/RTC.h **** #define RTC__H0100 1
  85:Generated_Source\PSoC4/RTC.h **** #define RTC__H0200 2
  86:Generated_Source\PSoC4/RTC.h **** #define RTC__H0300 3
  87:Generated_Source\PSoC4/RTC.h **** #define RTC__H0400 4
  88:Generated_Source\PSoC4/RTC.h **** #define RTC__H0500 5
ARM GAS  C:\Users\okuntso\AppData\Local\Temp\ccSegaCM.s 			page 3


  89:Generated_Source\PSoC4/RTC.h **** #define RTC__H0600 6
  90:Generated_Source\PSoC4/RTC.h **** #define RTC__H0700 7
  91:Generated_Source\PSoC4/RTC.h **** #define RTC__H0800 8
  92:Generated_Source\PSoC4/RTC.h **** #define RTC__H0900 9
  93:Generated_Source\PSoC4/RTC.h **** #define RTC__H1000 10
  94:Generated_Source\PSoC4/RTC.h **** #define RTC__H1100 11
  95:Generated_Source\PSoC4/RTC.h **** #define RTC__H1200 12
  96:Generated_Source\PSoC4/RTC.h **** #define RTC__H1300 13
  97:Generated_Source\PSoC4/RTC.h **** #define RTC__H1400 14
  98:Generated_Source\PSoC4/RTC.h **** #define RTC__H1500 15
  99:Generated_Source\PSoC4/RTC.h **** #define RTC__H1600 16
 100:Generated_Source\PSoC4/RTC.h **** #define RTC__H1700 17
 101:Generated_Source\PSoC4/RTC.h **** #define RTC__H1800 18
 102:Generated_Source\PSoC4/RTC.h **** #define RTC__H1900 19
 103:Generated_Source\PSoC4/RTC.h **** #define RTC__H2000 20
 104:Generated_Source\PSoC4/RTC.h **** #define RTC__H2100 21
 105:Generated_Source\PSoC4/RTC.h **** #define RTC__H2200 22
 106:Generated_Source\PSoC4/RTC.h **** #define RTC__H2300 23
 107:Generated_Source\PSoC4/RTC.h **** 
 108:Generated_Source\PSoC4/RTC.h **** /* DST DayOfWeek setting constants */
 109:Generated_Source\PSoC4/RTC.h **** #define RTC__SUNDAY 1
 110:Generated_Source\PSoC4/RTC.h **** #define RTC__MONDAY 2
 111:Generated_Source\PSoC4/RTC.h **** #define RTC__TUESDAY 3
 112:Generated_Source\PSoC4/RTC.h **** #define RTC__WEDNESDAY 4
 113:Generated_Source\PSoC4/RTC.h **** #define RTC__THURSDAY 5
 114:Generated_Source\PSoC4/RTC.h **** #define RTC__FRIDAY 6
 115:Generated_Source\PSoC4/RTC.h **** #define RTC__SATURDAY 7
 116:Generated_Source\PSoC4/RTC.h **** 
 117:Generated_Source\PSoC4/RTC.h **** /* DST Month setting constants */
 118:Generated_Source\PSoC4/RTC.h **** #define RTC__JAN 1
 119:Generated_Source\PSoC4/RTC.h **** #define RTC__FEB 2
 120:Generated_Source\PSoC4/RTC.h **** #define RTC__MAR 3
 121:Generated_Source\PSoC4/RTC.h **** #define RTC__APR 4
 122:Generated_Source\PSoC4/RTC.h **** #define RTC__MAY 5
 123:Generated_Source\PSoC4/RTC.h **** #define RTC__JUN 6
 124:Generated_Source\PSoC4/RTC.h **** #define RTC__JUL 7
 125:Generated_Source\PSoC4/RTC.h **** #define RTC__AUG 8
 126:Generated_Source\PSoC4/RTC.h **** #define RTC__SEP 9
 127:Generated_Source\PSoC4/RTC.h **** #define RTC__OCT 10
 128:Generated_Source\PSoC4/RTC.h **** #define RTC__NOV 11
 129:Generated_Source\PSoC4/RTC.h **** #define RTC__DEC 12
 130:Generated_Source\PSoC4/RTC.h **** 
 131:Generated_Source\PSoC4/RTC.h **** /* DST WeekOfMonth setting constants */
 132:Generated_Source\PSoC4/RTC.h **** #define RTC__FIRST 1
 133:Generated_Source\PSoC4/RTC.h **** #define RTC__SECOND 2
 134:Generated_Source\PSoC4/RTC.h **** #define RTC__THIRD 3
 135:Generated_Source\PSoC4/RTC.h **** #define RTC__FOURTH 4
 136:Generated_Source\PSoC4/RTC.h **** #define RTC__FIFTH 5
 137:Generated_Source\PSoC4/RTC.h **** #define RTC__LAST 6
 138:Generated_Source\PSoC4/RTC.h **** 
 139:Generated_Source\PSoC4/RTC.h **** 
 140:Generated_Source\PSoC4/RTC.h **** #define RTC_INITIAL_DATA_FORMAT     (0u)
 141:Generated_Source\PSoC4/RTC.h **** #define RTC_INITIAL_TIME_FORMAT     (0u)
 142:Generated_Source\PSoC4/RTC.h **** #define RTC_INITIAL_UPDATE_MODE     (0u)
 143:Generated_Source\PSoC4/RTC.h **** #define RTC_INITIAL_SECOND          (0u)
 144:Generated_Source\PSoC4/RTC.h **** #define RTC_INITIAL_MINUTE          (0u)
 145:Generated_Source\PSoC4/RTC.h **** #define RTC_INITIAL_HOUR            (0u)
ARM GAS  C:\Users\okuntso\AppData\Local\Temp\ccSegaCM.s 			page 4


 146:Generated_Source\PSoC4/RTC.h **** #define RTC_INITIAL_DAY             (1u)
 147:Generated_Source\PSoC4/RTC.h **** #define RTC_INITIAL_MONTH           (1u)
 148:Generated_Source\PSoC4/RTC.h **** #define RTC_INITIAL_YEAR            (1970u)
 149:Generated_Source\PSoC4/RTC.h **** 
 150:Generated_Source\PSoC4/RTC.h **** #define RTC_INITIAL_ALARM_STATUS    (0u)
 151:Generated_Source\PSoC4/RTC.h **** 
 152:Generated_Source\PSoC4/RTC.h **** #define RTC_INITIAL_DST_STATUS      (1u)
 153:Generated_Source\PSoC4/RTC.h **** #define RTC_INITIAL_DST_DATE_TYPE   (1u)
 154:Generated_Source\PSoC4/RTC.h **** #define RTC_INITIAL_DST_START_MONTH (3uL)
 155:Generated_Source\PSoC4/RTC.h **** #define RTC_INITIAL_DST_START_WOM   (6uL)
 156:Generated_Source\PSoC4/RTC.h **** #define RTC_INITIAL_DST_START_DOM   (22uL)
 157:Generated_Source\PSoC4/RTC.h **** #define RTC_INITIAL_DST_START_DOW   (1uL)
 158:Generated_Source\PSoC4/RTC.h **** #define RTC_INITIAL_DST_START_HRS   (3uL)
 159:Generated_Source\PSoC4/RTC.h **** #define RTC_INITIAL_DST_STOP_MONTH  (10uL)
 160:Generated_Source\PSoC4/RTC.h **** #define RTC_INITIAL_DST_STOP_DOM    (22uL)
 161:Generated_Source\PSoC4/RTC.h **** #define RTC_INITIAL_DST_STOP_DOW    (1uL)
 162:Generated_Source\PSoC4/RTC.h **** #define RTC_INITIAL_DST_STOP_WOM    (6uL)
 163:Generated_Source\PSoC4/RTC.h **** #define RTC_INITIAL_DST_STOP_HRS    (3uL)
 164:Generated_Source\PSoC4/RTC.h **** 
 165:Generated_Source\PSoC4/RTC.h **** /* Day of week definitions */
 166:Generated_Source\PSoC4/RTC.h **** #define RTC_SUNDAY     (RTC__SUNDAY)
 167:Generated_Source\PSoC4/RTC.h **** #define RTC_MONDAY     (RTC__MONDAY)
 168:Generated_Source\PSoC4/RTC.h **** #define RTC_TUESDAY    (RTC__TUESDAY)
 169:Generated_Source\PSoC4/RTC.h **** #define RTC_WEDNESDAY  (RTC__WEDNESDAY)
 170:Generated_Source\PSoC4/RTC.h **** #define RTC_THURSDAY   (RTC__THURSDAY)
 171:Generated_Source\PSoC4/RTC.h **** #define RTC_FRIDAY     (RTC__FRIDAY)
 172:Generated_Source\PSoC4/RTC.h **** #define RTC_SATURDAY   (RTC__SATURDAY)
 173:Generated_Source\PSoC4/RTC.h **** 
 174:Generated_Source\PSoC4/RTC.h **** /* DST WeekOfMonth setting constants definitions */
 175:Generated_Source\PSoC4/RTC.h **** #define RTC_FIRST      (RTC__FIRST)
 176:Generated_Source\PSoC4/RTC.h **** #define RTC_SECOND     (RTC__SECOND)
 177:Generated_Source\PSoC4/RTC.h **** #define RTC_THIRD      (RTC__THIRD)
 178:Generated_Source\PSoC4/RTC.h **** #define RTC_FOURTH     (RTC__FOURTH)
 179:Generated_Source\PSoC4/RTC.h **** #define RTC_FIFTH      (RTC__FIFTH)
 180:Generated_Source\PSoC4/RTC.h **** #define RTC_LAST       (RTC__LAST)
 181:Generated_Source\PSoC4/RTC.h **** 
 182:Generated_Source\PSoC4/RTC.h **** /* Month definitions */
 183:Generated_Source\PSoC4/RTC.h **** #define RTC_JANUARY    (RTC__JAN)
 184:Generated_Source\PSoC4/RTC.h **** #define RTC_FEBRUARY   (RTC__FEB)
 185:Generated_Source\PSoC4/RTC.h **** #define RTC_MARCH      (RTC__MAR)
 186:Generated_Source\PSoC4/RTC.h **** #define RTC_APRIL      (RTC__APR)
 187:Generated_Source\PSoC4/RTC.h **** #define RTC_MAY        (RTC__MAY)
 188:Generated_Source\PSoC4/RTC.h **** #define RTC_JUNE       (RTC__JUN)
 189:Generated_Source\PSoC4/RTC.h **** #define RTC_JULY       (RTC__JUL)
 190:Generated_Source\PSoC4/RTC.h **** #define RTC_AUGUST     (RTC__AUG)
 191:Generated_Source\PSoC4/RTC.h **** #define RTC_SEPTEMBER  (RTC__SEP)
 192:Generated_Source\PSoC4/RTC.h **** #define RTC_OCTOBER    (RTC__OCT)
 193:Generated_Source\PSoC4/RTC.h **** #define RTC_NOVEMBER   (RTC__NOV)
 194:Generated_Source\PSoC4/RTC.h **** #define RTC_DECEMBER   (RTC__DEC)
 195:Generated_Source\PSoC4/RTC.h **** 
 196:Generated_Source\PSoC4/RTC.h **** #define RTC_DAYS_PER_WEEK       (7u)
 197:Generated_Source\PSoC4/RTC.h **** 
 198:Generated_Source\PSoC4/RTC.h **** /* Number of days in month definitions */
 199:Generated_Source\PSoC4/RTC.h **** #define RTC_DAYS_IN_JANUARY     (31u)
 200:Generated_Source\PSoC4/RTC.h **** #define RTC_DAYS_IN_FEBRUARY    (28u)
 201:Generated_Source\PSoC4/RTC.h **** #define RTC_DAYS_IN_MARCH       (31u)
 202:Generated_Source\PSoC4/RTC.h **** #define RTC_DAYS_IN_APRIL       (30u)
ARM GAS  C:\Users\okuntso\AppData\Local\Temp\ccSegaCM.s 			page 5


 203:Generated_Source\PSoC4/RTC.h **** #define RTC_DAYS_IN_MAY         (31u)
 204:Generated_Source\PSoC4/RTC.h **** #define RTC_DAYS_IN_JUNE        (30u)
 205:Generated_Source\PSoC4/RTC.h **** #define RTC_DAYS_IN_JULY        (31u)
 206:Generated_Source\PSoC4/RTC.h **** #define RTC_DAYS_IN_AUGUST      (31u)
 207:Generated_Source\PSoC4/RTC.h **** #define RTC_DAYS_IN_SEPTEMBER   (30u)
 208:Generated_Source\PSoC4/RTC.h **** #define RTC_DAYS_IN_OCTOBER     (31u)
 209:Generated_Source\PSoC4/RTC.h **** #define RTC_DAYS_IN_NOVEMBER    (30u)
 210:Generated_Source\PSoC4/RTC.h **** #define RTC_DAYS_IN_DECEMBER    (31u)
 211:Generated_Source\PSoC4/RTC.h **** 
 212:Generated_Source\PSoC4/RTC.h **** #define RTC_MONTHS_PER_YEAR     (12uL)
 213:Generated_Source\PSoC4/RTC.h **** 
 214:Generated_Source\PSoC4/RTC.h **** #define RTC_HOURS_PER_DAY       (24uL)
 215:Generated_Source\PSoC4/RTC.h **** #define RTC_HOURS_PER_HALF_DAY  (12uL)
 216:Generated_Source\PSoC4/RTC.h **** 
 217:Generated_Source\PSoC4/RTC.h **** #define RTC_SECONDS_PER_MINUTE  (60uL)
 218:Generated_Source\PSoC4/RTC.h **** #define RTC_SECONDS_PER_HOUR    (3600uL)
 219:Generated_Source\PSoC4/RTC.h **** #define RTC_SECONDS_PER_DAY     (24uL * 3600uL)
 220:Generated_Source\PSoC4/RTC.h **** 
 221:Generated_Source\PSoC4/RTC.h **** #define RTC_SECONDS_PER_LEAP_YEAR    (366uL * 24uL * 3600uL)
 222:Generated_Source\PSoC4/RTC.h **** #define RTC_SECONDS_PER_NONLEAP_YEAR (365uL * 24uL * 3600uL)
 223:Generated_Source\PSoC4/RTC.h **** 
 224:Generated_Source\PSoC4/RTC.h **** #define RTC_UNIX_TIME_PM   ((12uL * 3600uL) + 1uL)
 225:Generated_Source\PSoC4/RTC.h **** 
 226:Generated_Source\PSoC4/RTC.h **** /* AM/PM status definitions */
 227:Generated_Source\PSoC4/RTC.h **** #define RTC_AM                 (0u)
 228:Generated_Source\PSoC4/RTC.h **** #define RTC_PM                 (1u)
 229:Generated_Source\PSoC4/RTC.h **** 
 230:Generated_Source\PSoC4/RTC.h **** /* Time format definitions */
 231:Generated_Source\PSoC4/RTC.h **** #define RTC_12_HOURS_FORMAT    (RTC__HOUR_12)
 232:Generated_Source\PSoC4/RTC.h **** #define RTC_24_HOURS_FORMAT    (RTC__HOUR_24)
 233:Generated_Source\PSoC4/RTC.h **** 
 234:Generated_Source\PSoC4/RTC.h **** /* UNIX time begins in 1970 year.  */
 235:Generated_Source\PSoC4/RTC.h **** #define RTC_YEAR_0             (1970u)
 236:Generated_Source\PSoC4/RTC.h **** 
 237:Generated_Source\PSoC4/RTC.h **** /* Definition of date register fields */
 238:Generated_Source\PSoC4/RTC.h **** #if(RTC_INITIAL_DATA_FORMAT == RTC__MM_DD_YYYY)
 239:Generated_Source\PSoC4/RTC.h ****     #define RTC_10_MONTH_OFFSET   (28u)
 240:Generated_Source\PSoC4/RTC.h ****     #define RTC_MONTH_OFFSET      (24u)
 241:Generated_Source\PSoC4/RTC.h ****     #define RTC_10_DAY_OFFSET     (20u)
 242:Generated_Source\PSoC4/RTC.h ****     #define RTC_DAY_OFFSET        (16u)
 243:Generated_Source\PSoC4/RTC.h ****     #define RTC_1000_YEAR_OFFSET  (12u)
 244:Generated_Source\PSoC4/RTC.h ****     #define RTC_100_YEAR_OFFSET   (8u)
 245:Generated_Source\PSoC4/RTC.h ****     #define RTC_10_YEAR_OFFSET    (4u)
 246:Generated_Source\PSoC4/RTC.h ****     #define RTC_YEAR_OFFSET       (0u)
 247:Generated_Source\PSoC4/RTC.h **** #elif(RTC_INITIAL_DATA_FORMAT == RTC__DD_MM_YYYY)
 248:Generated_Source\PSoC4/RTC.h ****     #define RTC_10_MONTH_OFFSET   (20u)
 249:Generated_Source\PSoC4/RTC.h ****     #define RTC_MONTH_OFFSET      (16u)
 250:Generated_Source\PSoC4/RTC.h ****     #define RTC_10_DAY_OFFSET     (28u)
 251:Generated_Source\PSoC4/RTC.h ****     #define RTC_DAY_OFFSET        (24u)
 252:Generated_Source\PSoC4/RTC.h ****     #define RTC_1000_YEAR_OFFSET  (12u)
 253:Generated_Source\PSoC4/RTC.h ****     #define RTC_100_YEAR_OFFSET   (8u)
 254:Generated_Source\PSoC4/RTC.h ****     #define RTC_10_YEAR_OFFSET    (4u)
 255:Generated_Source\PSoC4/RTC.h ****     #define RTC_YEAR_OFFSET       (0u)
 256:Generated_Source\PSoC4/RTC.h **** #else
 257:Generated_Source\PSoC4/RTC.h ****     #define RTC_10_MONTH_OFFSET   (12u)
 258:Generated_Source\PSoC4/RTC.h ****     #define RTC_MONTH_OFFSET      (8u)
 259:Generated_Source\PSoC4/RTC.h ****     #define RTC_10_DAY_OFFSET     (4u)
ARM GAS  C:\Users\okuntso\AppData\Local\Temp\ccSegaCM.s 			page 6


 260:Generated_Source\PSoC4/RTC.h ****     #define RTC_DAY_OFFSET        (0u)
 261:Generated_Source\PSoC4/RTC.h ****     #define RTC_1000_YEAR_OFFSET  (28u)
 262:Generated_Source\PSoC4/RTC.h ****     #define RTC_100_YEAR_OFFSET   (24u)
 263:Generated_Source\PSoC4/RTC.h ****     #define RTC_10_YEAR_OFFSET    (20u)
 264:Generated_Source\PSoC4/RTC.h ****     #define RTC_YEAR_OFFSET       (16u)
 265:Generated_Source\PSoC4/RTC.h **** #endif /* (RTC_INITIAL_DATA_FORMAT == RTC__MM_DD_YYYY) */
 266:Generated_Source\PSoC4/RTC.h **** 
 267:Generated_Source\PSoC4/RTC.h **** #define RTC_10_MONTH_MASK          (0x00000001uL << RTC_10_MONTH_OFFSET)
 268:Generated_Source\PSoC4/RTC.h **** #define RTC_MONTH_MASK             (0x0000000FuL << RTC_MONTH_OFFSET)
 269:Generated_Source\PSoC4/RTC.h **** #define RTC_10_DAY_MASK            (0x00000003uL << RTC_10_DAY_OFFSET)
 270:Generated_Source\PSoC4/RTC.h **** #define RTC_DAY_MASK               (0x0000000FuL << RTC_DAY_OFFSET)
 271:Generated_Source\PSoC4/RTC.h **** #define RTC_1000_YEAR_MASK         (0x00000003uL << RTC_1000_YEAR_OFFSET)
 272:Generated_Source\PSoC4/RTC.h **** #define RTC_100_YEAR_MASK          (0x0000000FuL << RTC_100_YEAR_OFFSET)
 273:Generated_Source\PSoC4/RTC.h **** #define RTC_10_YEAR_MASK           (0x0000000FuL << RTC_10_YEAR_OFFSET)
 274:Generated_Source\PSoC4/RTC.h **** #define RTC_YEAR_MASK              (0x0000000FuL << RTC_YEAR_OFFSET)
 275:Generated_Source\PSoC4/RTC.h **** 
 276:Generated_Source\PSoC4/RTC.h **** #define  RTC_MONTH_FULL_MASK       (RTC_10_MONTH_MASK  | RTC_MONTH_MASK)
 277:Generated_Source\PSoC4/RTC.h **** #define  RTC_DAY_FULL_MASK         (RTC_10_DAY_MASK    | RTC_DAY_MASK)
 278:Generated_Source\PSoC4/RTC.h **** #define  RTC_YEAR_FULL_MASK        (RTC_1000_YEAR_MASK | RTC_100_YEAR_MASK |\
 279:Generated_Source\PSoC4/RTC.h ****                                                  RTC_10_YEAR_MASK   | RTC_YEAR_MASK)
 280:Generated_Source\PSoC4/RTC.h **** 
 281:Generated_Source\PSoC4/RTC.h **** 
 282:Generated_Source\PSoC4/RTC.h **** /* Definition of time register fields */
 283:Generated_Source\PSoC4/RTC.h **** #define RTC_TIME_FORMAT_OFFSET     (23u)
 284:Generated_Source\PSoC4/RTC.h **** #define RTC_PERIOD_OF_DAY_OFFSET   (22u)
 285:Generated_Source\PSoC4/RTC.h **** #define RTC_10_HOURS_OFFSET        (20u)
 286:Generated_Source\PSoC4/RTC.h **** #define RTC_HOURS_OFFSET           (16u)
 287:Generated_Source\PSoC4/RTC.h **** #define RTC_10_MINUTES_OFFSET      (12u)
 288:Generated_Source\PSoC4/RTC.h **** #define RTC_MINUTES_OFFSET         (8u)
 289:Generated_Source\PSoC4/RTC.h **** #define RTC_10_SECONDS_OFFSET      (4u)
 290:Generated_Source\PSoC4/RTC.h **** #define RTC_SECONDS_OFFSET         (0u)
 291:Generated_Source\PSoC4/RTC.h **** 
 292:Generated_Source\PSoC4/RTC.h **** #define RTC_TIME_FORMAT_MASK       (0x00000001uL << RTC_TIME_FORMAT_OFFSET)
 293:Generated_Source\PSoC4/RTC.h **** #define RTC_PERIOD_OF_DAY_MASK     (0x00000001uL << RTC_PERIOD_OF_DAY_OFFSET)
 294:Generated_Source\PSoC4/RTC.h **** #define RTC_10_HOURS_MASK          (0x00000003uL << RTC_10_HOURS_OFFSET)
 295:Generated_Source\PSoC4/RTC.h **** #define RTC_HOURS_MASK             (0x0000000FuL << RTC_HOURS_OFFSET)
 296:Generated_Source\PSoC4/RTC.h **** #define RTC_10_MINUTES_MASK        (0x00000007uL << RTC_10_MINUTES_OFFSET)
 297:Generated_Source\PSoC4/RTC.h **** #define RTC_MINUTES_MASK           (0x0000000FuL << RTC_MINUTES_OFFSET)
 298:Generated_Source\PSoC4/RTC.h **** #define RTC_10_SECONDS_MASK        (0x00000007uL << RTC_10_SECONDS_OFFSET)
 299:Generated_Source\PSoC4/RTC.h **** #define RTC_SECONDS_MASK           (0x0000000FuL << RTC_SECONDS_OFFSET)
 300:Generated_Source\PSoC4/RTC.h **** 
 301:Generated_Source\PSoC4/RTC.h **** #define RTC_HOURS_FULL_MASK        (RTC_10_HOURS_MASK   | RTC_HOURS_MASK)
 302:Generated_Source\PSoC4/RTC.h **** #define RTC_MINUTES_FULL_MASK      (RTC_10_MINUTES_MASK | RTC_MINUTES_MASK)
 303:Generated_Source\PSoC4/RTC.h **** #define RTC_SECONDS_FULL_MASK      (RTC_10_SECONDS_MASK | RTC_SECONDS_MASK)
 304:Generated_Source\PSoC4/RTC.h **** 
 305:Generated_Source\PSoC4/RTC.h **** #define RTC_ALARM_SEC_MASK         (0x00000001uL)
 306:Generated_Source\PSoC4/RTC.h **** #define RTC_ALARM_MIN_MASK         (0x00000002uL)
 307:Generated_Source\PSoC4/RTC.h **** #define RTC_ALARM_HOUR_MASK        (0x00000004uL)
 308:Generated_Source\PSoC4/RTC.h **** #define RTC_ALARM_DAYOFWEEK_MASK   (0x00000008uL)
 309:Generated_Source\PSoC4/RTC.h **** #define RTC_ALARM_DAYOFMONTH_MASK  (0x00000010uL)
 310:Generated_Source\PSoC4/RTC.h **** #define RTC_ALARM_MONTH_MASK       (0x00000020uL)
 311:Generated_Source\PSoC4/RTC.h **** #define RTC_ALARM_YEAR_MASK        (0x00000040uL)
 312:Generated_Source\PSoC4/RTC.h **** 
 313:Generated_Source\PSoC4/RTC.h **** #define RTC_STATUS_DST_OFFSET      (1u)
 314:Generated_Source\PSoC4/RTC.h **** #define RTC_STATUS_ALARM_OFFSET    (2u)
 315:Generated_Source\PSoC4/RTC.h **** #define RTC_STATUS_LY_OFFSET       (3u)
 316:Generated_Source\PSoC4/RTC.h **** #define RTC_STATUS_AM_PM_OFFSET    (4u)
ARM GAS  C:\Users\okuntso\AppData\Local\Temp\ccSegaCM.s 			page 7


 317:Generated_Source\PSoC4/RTC.h **** 
 318:Generated_Source\PSoC4/RTC.h **** /* Definition of the RTC status values. */
 319:Generated_Source\PSoC4/RTC.h **** #define RTC_STATUS_DST             (1uL << RTC_STATUS_DST_OFFSET)
 320:Generated_Source\PSoC4/RTC.h **** #define RTC_STATUS_LY              (1uL << RTC_STATUS_LY_OFFSET)
 321:Generated_Source\PSoC4/RTC.h **** #define RTC_STATUS_AM_PM           (1uL << RTC_STATUS_AM_PM_OFFSET)
 322:Generated_Source\PSoC4/RTC.h **** 
 323:Generated_Source\PSoC4/RTC.h **** /* Number of bits per one BCD digit. */
 324:Generated_Source\PSoC4/RTC.h **** #define RTC_BCD_NUMBER_SIZE        (4u)
 325:Generated_Source\PSoC4/RTC.h **** #define RTC_BCD_ONE_DIGIT_MASK     (0x0000000FuL)
 326:Generated_Source\PSoC4/RTC.h **** 
 327:Generated_Source\PSoC4/RTC.h **** /*******************************************************************************
 328:Generated_Source\PSoC4/RTC.h **** *    Function Prototypes
 329:Generated_Source\PSoC4/RTC.h **** *******************************************************************************/
 330:Generated_Source\PSoC4/RTC.h **** /**
 331:Generated_Source\PSoC4/RTC.h **** * \addtogroup group_api
 332:Generated_Source\PSoC4/RTC.h **** * @{
 333:Generated_Source\PSoC4/RTC.h **** */
 334:Generated_Source\PSoC4/RTC.h **** void   RTC_Start(void);
 335:Generated_Source\PSoC4/RTC.h **** void   RTC_Stop(void);
 336:Generated_Source\PSoC4/RTC.h **** void   RTC_Init(void);
 337:Generated_Source\PSoC4/RTC.h **** void   RTC_SetUnixTime(uint64 unixTime);
 338:Generated_Source\PSoC4/RTC.h **** uint64 RTC_GetUnixTime(void);
 339:Generated_Source\PSoC4/RTC.h **** void   RTC_SetPeriod(uint32 ticks, uint32 refOneSecTicks);
 340:Generated_Source\PSoC4/RTC.h **** uint32 RTC_GetPeriod(void);
 341:Generated_Source\PSoC4/RTC.h **** uint32 RTC_GetRefOneSec(void);
 342:Generated_Source\PSoC4/RTC.h **** void   RTC_SetDateAndTime(uint32 inputTime, uint32 inputDate);
 343:Generated_Source\PSoC4/RTC.h **** void   RTC_GetDateAndTime(RTC_DATE_TIME* dateTime);
 344:Generated_Source\PSoC4/RTC.h **** uint32 RTC_GetTime(void);
 345:Generated_Source\PSoC4/RTC.h **** uint32 RTC_GetDate(void);
 346:Generated_Source\PSoC4/RTC.h **** void   RTC_SetAlarmDateAndTime(const RTC_DATE_TIME* alarmTime);
 347:Generated_Source\PSoC4/RTC.h **** void   RTC_GetAlarmDateAndTime(RTC_DATE_TIME* alarmTimeDate);
 348:Generated_Source\PSoC4/RTC.h **** void   RTC_SetAlarmMask(uint32 mask);
 349:Generated_Source\PSoC4/RTC.h **** uint32 RTC_GetAlarmMask(void);
 350:Generated_Source\PSoC4/RTC.h **** uint32 RTC_ReadStatus(void);
 351:Generated_Source\PSoC4/RTC.h **** uint32 RTC_GetAlarmStatus(void);
 352:Generated_Source\PSoC4/RTC.h **** void   RTC_ClearAlarmStatus(void);
 353:Generated_Source\PSoC4/RTC.h **** void   RTC_SetDSTStartTime(const RTC_DST_TIME* dstStartTime,
 354:Generated_Source\PSoC4/RTC.h ****                                               RTC_DST_DATETYPE_ENUM type);
 355:Generated_Source\PSoC4/RTC.h **** void   RTC_SetDSTStopTime(const RTC_DST_TIME* dstStopTime,
 356:Generated_Source\PSoC4/RTC.h ****                                              RTC_DST_DATETYPE_ENUM type);
 357:Generated_Source\PSoC4/RTC.h **** uint32 RTC_ConvertBCDToDec(uint32 bcdNum);
 358:Generated_Source\PSoC4/RTC.h **** uint32 RTC_ConvertDecToBCD(uint32 decNum);
 359:Generated_Source\PSoC4/RTC.h **** void   RTC_Update(void);
 360:Generated_Source\PSoC4/RTC.h **** void*  RTC_SetAlarmHandler(void (*CallbackFunction)(void));
 361:Generated_Source\PSoC4/RTC.h **** 
 362:Generated_Source\PSoC4/RTC.h **** static uint32 RTC_ConstructDate(uint32 month, uint32 day, uint32 year);
 363:Generated_Source\PSoC4/RTC.h **** static uint32 RTC_ConstructTime(uint32 timeFormat, uint32 stateAmPm, uint32 hour, uint32 min, uint3
 364:Generated_Source\PSoC4/RTC.h **** /** @} api */
 365:Generated_Source\PSoC4/RTC.h **** 
 366:Generated_Source\PSoC4/RTC.h **** static uint32 RTC_GetTimeFormat(uint32 inputTime);
 367:Generated_Source\PSoC4/RTC.h **** static uint32 RTC_SetTimeFormat(uint32 inputTime, uint32 timeFormat);
 368:Generated_Source\PSoC4/RTC.h **** 
 369:Generated_Source\PSoC4/RTC.h **** /**
 370:Generated_Source\PSoC4/RTC.h **** * \addtogroup group_api
 371:Generated_Source\PSoC4/RTC.h **** * @{
 372:Generated_Source\PSoC4/RTC.h **** */
 373:Generated_Source\PSoC4/RTC.h **** static uint32 RTC_LeapYear(uint32 year);
ARM GAS  C:\Users\okuntso\AppData\Local\Temp\ccSegaCM.s 			page 8


 374:Generated_Source\PSoC4/RTC.h **** static uint32 RTC_IsBitSet(uint32 var, uint32 mask);
 375:Generated_Source\PSoC4/RTC.h **** static uint32 RTC_GetSecond(uint32 inputTime);
 376:Generated_Source\PSoC4/RTC.h **** static uint32 RTC_GetMinutes(uint32 inputTime);
 377:Generated_Source\PSoC4/RTC.h **** static uint32 RTC_GetHours(uint32 inputTime);
 378:Generated_Source\PSoC4/RTC.h **** static uint32 RTC_GetAmPm(uint32 inputTime);
 379:Generated_Source\PSoC4/RTC.h **** static uint32 RTC_GetDay(uint32 date);
 380:Generated_Source\PSoC4/RTC.h **** static uint32 RTC_GetMonth(uint32 date);
 381:Generated_Source\PSoC4/RTC.h **** static uint32 RTC_GetYear(uint32 date);
 382:Generated_Source\PSoC4/RTC.h **** /** @} api */
 383:Generated_Source\PSoC4/RTC.h **** 
 384:Generated_Source\PSoC4/RTC.h **** static uint32 RTC_SetSecond(uint32 inputTime, uint32 inputSecond);
 385:Generated_Source\PSoC4/RTC.h **** static uint32 RTC_SetMinutes(uint32 inputTime, uint32 inputMinute);
 386:Generated_Source\PSoC4/RTC.h **** static uint32 RTC_SetHours(uint32 inputTime, uint32 inputHours);
 387:Generated_Source\PSoC4/RTC.h **** static uint32 RTC_SetAmPm(uint32 inputTime, uint32 periodOfDay);
 388:Generated_Source\PSoC4/RTC.h **** static uint32 RTC_SetDay(uint32 inputDate, uint32 inputDay);
 389:Generated_Source\PSoC4/RTC.h **** static uint32 RTC_SetMonth(uint32 inputDate, uint32 inputMonth);
 390:Generated_Source\PSoC4/RTC.h **** static uint32 RTC_SetYear(uint32 inputDate, uint32 inputYear);
 391:Generated_Source\PSoC4/RTC.h **** 
 392:Generated_Source\PSoC4/RTC.h **** uint64 RTC_ConstructUnixAlarmTime(const RTC_DATE_TIME* alarmTime, uint8 alarmCfgMask);
 393:Generated_Source\PSoC4/RTC.h **** uint64 RTC_GetDstUnixTime(const RTC_DST_TIME* dstTime);
 394:Generated_Source\PSoC4/RTC.h **** uint64 RTC_GetNexAlarmTime(uint64 curUnixTime, uint8 alarmCfgMask);
 395:Generated_Source\PSoC4/RTC.h **** 
 396:Generated_Source\PSoC4/RTC.h **** static uint32 RTC_GetNextMinSec(uint32 curVal);
 397:Generated_Source\PSoC4/RTC.h **** static uint32 RTC_GetNextHour(uint32 curVal);
 398:Generated_Source\PSoC4/RTC.h **** static uint32 RTC_GetNextDay(uint32 curYear, uint32 curMonth, uint32 curDay, uint32 alarmCfgMask);
 399:Generated_Source\PSoC4/RTC.h **** static uint32 RTC_GetNextMonth(uint32 curMonth);
 400:Generated_Source\PSoC4/RTC.h **** static uint32 RTC_GetNextYear(uint32 curYear);
 401:Generated_Source\PSoC4/RTC.h **** static uint32 RTC_GetDayOfWeek(uint32 day, uint32 month, uint32 year);
 402:Generated_Source\PSoC4/RTC.h **** 
 403:Generated_Source\PSoC4/RTC.h **** uint32 RTC_DaysInMonth(uint32 month, uint32 year);
 404:Generated_Source\PSoC4/RTC.h **** uint32 RTC_DaysBeforeMonth(uint32 month, uint32 year);
 405:Generated_Source\PSoC4/RTC.h **** 
 406:Generated_Source\PSoC4/RTC.h **** /**
 407:Generated_Source\PSoC4/RTC.h **** * \addtogroup group_api
 408:Generated_Source\PSoC4/RTC.h **** * @{
 409:Generated_Source\PSoC4/RTC.h **** */
 410:Generated_Source\PSoC4/RTC.h **** void   RTC_UnixToDateTime(RTC_DATE_TIME* dateTime, uint64 unixTime, uint32 timeFormat);
 411:Generated_Source\PSoC4/RTC.h **** uint64 RTC_DateTimeToUnix(uint32 inputDate, uint32 inputTime);
 412:Generated_Source\PSoC4/RTC.h **** /** @} api */
 413:Generated_Source\PSoC4/RTC.h **** 
 414:Generated_Source\PSoC4/RTC.h **** uint32 RTC_RelativeToFixed(uint32 dayOfWeek, uint32 weekOfMonth, uint32 month, uint32 year);
 415:Generated_Source\PSoC4/RTC.h **** 
 416:Generated_Source\PSoC4/RTC.h **** 
 417:Generated_Source\PSoC4/RTC.h **** #if defined(CYDEV_RTC_SOURCE_WDT)
 418:Generated_Source\PSoC4/RTC.h ****     #if((0u != CYDEV_WDT_GENERATE_ISR) && (0u == RTC_INITIAL_UPDATE_MODE))
 419:Generated_Source\PSoC4/RTC.h ****         static void RTC_CySysRtcSetCallback(uint32 wdtNumber);
 420:Generated_Source\PSoC4/RTC.h ****         static void RTC_CySysRtcResetCallback(uint32 wdtNumber);
 421:Generated_Source\PSoC4/RTC.h ****     #endif /* ((0u != CYDEV_WDT_GENERATE_ISR) && (0u == RTC_INITIAL_UPDATE_MODE)) */
 422:Generated_Source\PSoC4/RTC.h **** #endif /* (CYDEV_RTC_SOURCE_WDT) */
 423:Generated_Source\PSoC4/RTC.h **** 
 424:Generated_Source\PSoC4/RTC.h **** /*******************************************************************************
 425:Generated_Source\PSoC4/RTC.h **** * Function Name: RTC_IsBitSet
 426:Generated_Source\PSoC4/RTC.h **** ****************************************************************************//**
 427:Generated_Source\PSoC4/RTC.h **** *
 428:Generated_Source\PSoC4/RTC.h **** * \brief
 429:Generated_Source\PSoC4/RTC.h **** *  Checks the state of a bit passed through parameter.
 430:Generated_Source\PSoC4/RTC.h **** *
ARM GAS  C:\Users\okuntso\AppData\Local\Temp\ccSegaCM.s 			page 9


 431:Generated_Source\PSoC4/RTC.h **** * \param
 432:Generated_Source\PSoC4/RTC.h **** *  var The variable to be checked.
 433:Generated_Source\PSoC4/RTC.h **** * \param
 434:Generated_Source\PSoC4/RTC.h **** *  mask The mask for a bit to be checked.
 435:Generated_Source\PSoC4/RTC.h **** *
 436:Generated_Source\PSoC4/RTC.h **** * \return
 437:Generated_Source\PSoC4/RTC.h **** *  0u - Bit is not set.
 438:Generated_Source\PSoC4/RTC.h **** * \return
 439:Generated_Source\PSoC4/RTC.h **** *  1u - Bit is set.
 440:Generated_Source\PSoC4/RTC.h **** *
 441:Generated_Source\PSoC4/RTC.h **** *******************************************************************************/
 442:Generated_Source\PSoC4/RTC.h **** static CY_INLINE uint32 RTC_IsBitSet(uint32 var, uint32 mask)
 443:Generated_Source\PSoC4/RTC.h **** {
  27              		.loc 1 443 0
  28              		.cfi_startproc
  29              		@ args = 0, pretend = 0, frame = 8
  30              		@ frame_needed = 1, uses_anonymous_args = 0
  31 0000 80B5     		push	{r7, lr}
  32              		.cfi_def_cfa_offset 8
  33              		.cfi_offset 7, -8
  34              		.cfi_offset 14, -4
  35 0002 82B0     		sub	sp, sp, #8
  36              		.cfi_def_cfa_offset 16
  37 0004 00AF     		add	r7, sp, #0
  38              		.cfi_def_cfa_register 7
  39 0006 7860     		str	r0, [r7, #4]
  40 0008 3960     		str	r1, [r7]
 444:Generated_Source\PSoC4/RTC.h ****     return ((mask == (var & mask)) ? 1Lu : 0Lu);
  41              		.loc 1 444 0
  42 000a 7B68     		ldr	r3, [r7, #4]
  43 000c 3A68     		ldr	r2, [r7]
  44 000e 1A40     		ands	r2, r3
  45 0010 3B68     		ldr	r3, [r7]
  46 0012 9A42     		cmp	r2, r3
  47 0014 01D1     		bne	.L2
  48              		.loc 1 444 0 is_stmt 0 discriminator 1
  49 0016 0123     		movs	r3, #1
  50 0018 00E0     		b	.L4
  51              	.L2:
  52              		.loc 1 444 0 discriminator 2
  53 001a 0023     		movs	r3, #0
  54              	.L4:
 445:Generated_Source\PSoC4/RTC.h **** }
  55              		.loc 1 445 0 is_stmt 1 discriminator 5
  56 001c 1800     		movs	r0, r3
  57 001e BD46     		mov	sp, r7
  58 0020 02B0     		add	sp, sp, #8
  59              		@ sp needed
  60 0022 80BD     		pop	{r7, pc}
  61              		.cfi_endproc
  62              	.LFE0:
  63              		.size	RTC_IsBitSet, .-RTC_IsBitSet
  64              		.global	__aeabi_uidivmod
  65              		.section	.text.RTC_LeapYear,"ax",%progbits
  66              		.align	2
  67              		.code	16
  68              		.thumb_func
ARM GAS  C:\Users\okuntso\AppData\Local\Temp\ccSegaCM.s 			page 10


  69              		.type	RTC_LeapYear, %function
  70              	RTC_LeapYear:
  71              	.LFB1:
 446:Generated_Source\PSoC4/RTC.h **** 
 447:Generated_Source\PSoC4/RTC.h **** 
 448:Generated_Source\PSoC4/RTC.h **** /*******************************************************************************
 449:Generated_Source\PSoC4/RTC.h **** * Function Name: RTC_LeapYear
 450:Generated_Source\PSoC4/RTC.h **** ****************************************************************************//**
 451:Generated_Source\PSoC4/RTC.h **** *
 452:Generated_Source\PSoC4/RTC.h **** * \brief
 453:Generated_Source\PSoC4/RTC.h **** * Checks whether the year passed through the parameter is
 454:Generated_Source\PSoC4/RTC.h **** * leap or no.
 455:Generated_Source\PSoC4/RTC.h **** *
 456:Generated_Source\PSoC4/RTC.h **** * \param
 457:Generated_Source\PSoC4/RTC.h **** *  year The year to be checked.
 458:Generated_Source\PSoC4/RTC.h **** *
 459:Generated_Source\PSoC4/RTC.h **** *
 460:Generated_Source\PSoC4/RTC.h **** * \return
 461:Generated_Source\PSoC4/RTC.h **** *  0u - The year is not leap.
 462:Generated_Source\PSoC4/RTC.h **** * \return
 463:Generated_Source\PSoC4/RTC.h **** *  1u - The year is leap.
 464:Generated_Source\PSoC4/RTC.h **** *
 465:Generated_Source\PSoC4/RTC.h **** *******************************************************************************/
 466:Generated_Source\PSoC4/RTC.h **** static CY_INLINE uint32 RTC_LeapYear(uint32 year)
 467:Generated_Source\PSoC4/RTC.h **** {
  72              		.loc 1 467 0
  73              		.cfi_startproc
  74              		@ args = 0, pretend = 0, frame = 16
  75              		@ frame_needed = 1, uses_anonymous_args = 0
  76 0000 80B5     		push	{r7, lr}
  77              		.cfi_def_cfa_offset 8
  78              		.cfi_offset 7, -8
  79              		.cfi_offset 14, -4
  80 0002 84B0     		sub	sp, sp, #16
  81              		.cfi_def_cfa_offset 24
  82 0004 00AF     		add	r7, sp, #0
  83              		.cfi_def_cfa_register 7
  84 0006 7860     		str	r0, [r7, #4]
 468:Generated_Source\PSoC4/RTC.h ****     uint32 retVal;
 469:Generated_Source\PSoC4/RTC.h **** 
 470:Generated_Source\PSoC4/RTC.h ****     if(((0u == (year % 4Lu)) && (0u != (year % 100Lu))) || (0u == (year % 400Lu)))
  85              		.loc 1 470 0
  86 0008 7B68     		ldr	r3, [r7, #4]
  87 000a 0322     		movs	r2, #3
  88 000c 1340     		ands	r3, r2
  89 000e 06D1     		bne	.L6
  90              		.loc 1 470 0 is_stmt 0 discriminator 1
  91 0010 7B68     		ldr	r3, [r7, #4]
  92 0012 6421     		movs	r1, #100
  93 0014 1800     		movs	r0, r3
  94 0016 FFF7FEFF 		bl	__aeabi_uidivmod
  95 001a 0B1E     		subs	r3, r1, #0
  96 001c 07D1     		bne	.L7
  97              	.L6:
  98              		.loc 1 470 0 discriminator 3
  99 001e 7A68     		ldr	r2, [r7, #4]
 100 0020 C823     		movs	r3, #200
ARM GAS  C:\Users\okuntso\AppData\Local\Temp\ccSegaCM.s 			page 11


 101 0022 5900     		lsls	r1, r3, #1
 102 0024 1000     		movs	r0, r2
 103 0026 FFF7FEFF 		bl	__aeabi_uidivmod
 104 002a 0B1E     		subs	r3, r1, #0
 105 002c 02D1     		bne	.L8
 106              	.L7:
 471:Generated_Source\PSoC4/RTC.h ****     {
 472:Generated_Source\PSoC4/RTC.h ****         retVal = 1uL;
 107              		.loc 1 472 0 is_stmt 1
 108 002e 0123     		movs	r3, #1
 109 0030 FB60     		str	r3, [r7, #12]
 110 0032 01E0     		b	.L9
 111              	.L8:
 473:Generated_Source\PSoC4/RTC.h ****     }
 474:Generated_Source\PSoC4/RTC.h ****     else
 475:Generated_Source\PSoC4/RTC.h ****     {
 476:Generated_Source\PSoC4/RTC.h ****         retVal = 0uL;
 112              		.loc 1 476 0
 113 0034 0023     		movs	r3, #0
 114 0036 FB60     		str	r3, [r7, #12]
 115              	.L9:
 477:Generated_Source\PSoC4/RTC.h ****     }
 478:Generated_Source\PSoC4/RTC.h **** 
 479:Generated_Source\PSoC4/RTC.h ****     return(retVal);
 116              		.loc 1 479 0
 117 0038 FB68     		ldr	r3, [r7, #12]
 480:Generated_Source\PSoC4/RTC.h **** }
 118              		.loc 1 480 0
 119 003a 1800     		movs	r0, r3
 120 003c BD46     		mov	sp, r7
 121 003e 04B0     		add	sp, sp, #16
 122              		@ sp needed
 123 0040 80BD     		pop	{r7, pc}
 124              		.cfi_endproc
 125              	.LFE1:
 126              		.size	RTC_LeapYear, .-RTC_LeapYear
 127 0042 C046     		.section	.text.RTC_GetSecond,"ax",%progbits
 128              		.align	2
 129              		.code	16
 130              		.thumb_func
 131              		.type	RTC_GetSecond, %function
 132              	RTC_GetSecond:
 133              	.LFB2:
 481:Generated_Source\PSoC4/RTC.h **** 
 482:Generated_Source\PSoC4/RTC.h **** 
 483:Generated_Source\PSoC4/RTC.h **** /*******************************************************************************
 484:Generated_Source\PSoC4/RTC.h **** * Function Name: RTC_GetSecond
 485:Generated_Source\PSoC4/RTC.h **** ****************************************************************************//**
 486:Generated_Source\PSoC4/RTC.h **** *
 487:Generated_Source\PSoC4/RTC.h **** * \brief
 488:Generated_Source\PSoC4/RTC.h **** *  Returns the seconds value from the time value that is passed as a/the parameter.
 489:Generated_Source\PSoC4/RTC.h **** *
 490:Generated_Source\PSoC4/RTC.h **** * \param
 491:Generated_Source\PSoC4/RTC.h **** *  time The time value.
 492:Generated_Source\PSoC4/RTC.h **** *
 493:Generated_Source\PSoC4/RTC.h **** * \return
 494:Generated_Source\PSoC4/RTC.h **** *  The seconds value.
ARM GAS  C:\Users\okuntso\AppData\Local\Temp\ccSegaCM.s 			page 12


 495:Generated_Source\PSoC4/RTC.h **** *
 496:Generated_Source\PSoC4/RTC.h **** *******************************************************************************/
 497:Generated_Source\PSoC4/RTC.h **** static CY_INLINE uint32 RTC_GetSecond(uint32 inputTime)
 498:Generated_Source\PSoC4/RTC.h **** {
 134              		.loc 1 498 0
 135              		.cfi_startproc
 136              		@ args = 0, pretend = 0, frame = 16
 137              		@ frame_needed = 1, uses_anonymous_args = 0
 138 0000 80B5     		push	{r7, lr}
 139              		.cfi_def_cfa_offset 8
 140              		.cfi_offset 7, -8
 141              		.cfi_offset 14, -4
 142 0002 84B0     		sub	sp, sp, #16
 143              		.cfi_def_cfa_offset 24
 144 0004 00AF     		add	r7, sp, #0
 145              		.cfi_def_cfa_register 7
 146 0006 7860     		str	r0, [r7, #4]
 499:Generated_Source\PSoC4/RTC.h ****     uint32 retVal;
 500:Generated_Source\PSoC4/RTC.h **** 
 501:Generated_Source\PSoC4/RTC.h ****     retVal  = ((inputTime & RTC_10_SECONDS_MASK) >> RTC_10_SECONDS_OFFSET) * 10u;
 147              		.loc 1 501 0
 148 0008 7B68     		ldr	r3, [r7, #4]
 149 000a 1B09     		lsrs	r3, r3, #4
 150 000c 0722     		movs	r2, #7
 151 000e 1A40     		ands	r2, r3
 152 0010 1300     		movs	r3, r2
 153 0012 9B00     		lsls	r3, r3, #2
 154 0014 9B18     		adds	r3, r3, r2
 155 0016 5B00     		lsls	r3, r3, #1
 156 0018 FB60     		str	r3, [r7, #12]
 502:Generated_Source\PSoC4/RTC.h ****     retVal += (inputTime & RTC_SECONDS_MASK) >> RTC_SECONDS_OFFSET;
 157              		.loc 1 502 0
 158 001a 7B68     		ldr	r3, [r7, #4]
 159 001c 0F22     		movs	r2, #15
 160 001e 1340     		ands	r3, r2
 161 0020 FA68     		ldr	r2, [r7, #12]
 162 0022 D318     		adds	r3, r2, r3
 163 0024 FB60     		str	r3, [r7, #12]
 503:Generated_Source\PSoC4/RTC.h **** 
 504:Generated_Source\PSoC4/RTC.h ****     return (retVal);
 164              		.loc 1 504 0
 165 0026 FB68     		ldr	r3, [r7, #12]
 505:Generated_Source\PSoC4/RTC.h **** }
 166              		.loc 1 505 0
 167 0028 1800     		movs	r0, r3
 168 002a BD46     		mov	sp, r7
 169 002c 04B0     		add	sp, sp, #16
 170              		@ sp needed
 171 002e 80BD     		pop	{r7, pc}
 172              		.cfi_endproc
 173              	.LFE2:
 174              		.size	RTC_GetSecond, .-RTC_GetSecond
 175              		.section	.text.RTC_GetMinutes,"ax",%progbits
 176              		.align	2
 177              		.code	16
 178              		.thumb_func
 179              		.type	RTC_GetMinutes, %function
ARM GAS  C:\Users\okuntso\AppData\Local\Temp\ccSegaCM.s 			page 13


 180              	RTC_GetMinutes:
 181              	.LFB3:
 506:Generated_Source\PSoC4/RTC.h **** 
 507:Generated_Source\PSoC4/RTC.h **** 
 508:Generated_Source\PSoC4/RTC.h **** /*******************************************************************************
 509:Generated_Source\PSoC4/RTC.h **** * Function Name: RTC_GetMinutes
 510:Generated_Source\PSoC4/RTC.h **** ****************************************************************************//**
 511:Generated_Source\PSoC4/RTC.h **** *
 512:Generated_Source\PSoC4/RTC.h **** * \brief
 513:Generated_Source\PSoC4/RTC.h **** *  Returns the minutes value from the time value that is passed as a/the 
 514:Generated_Source\PSoC4/RTC.h **** * parameter.
 515:Generated_Source\PSoC4/RTC.h **** *
 516:Generated_Source\PSoC4/RTC.h **** * \param
 517:Generated_Source\PSoC4/RTC.h **** *  time The time value.
 518:Generated_Source\PSoC4/RTC.h **** *
 519:Generated_Source\PSoC4/RTC.h **** * \return
 520:Generated_Source\PSoC4/RTC.h **** *  The minutes value.
 521:Generated_Source\PSoC4/RTC.h **** *
 522:Generated_Source\PSoC4/RTC.h **** *******************************************************************************/
 523:Generated_Source\PSoC4/RTC.h **** static CY_INLINE uint32 RTC_GetMinutes(uint32 inputTime)
 524:Generated_Source\PSoC4/RTC.h **** {
 182              		.loc 1 524 0
 183              		.cfi_startproc
 184              		@ args = 0, pretend = 0, frame = 16
 185              		@ frame_needed = 1, uses_anonymous_args = 0
 186 0000 80B5     		push	{r7, lr}
 187              		.cfi_def_cfa_offset 8
 188              		.cfi_offset 7, -8
 189              		.cfi_offset 14, -4
 190 0002 84B0     		sub	sp, sp, #16
 191              		.cfi_def_cfa_offset 24
 192 0004 00AF     		add	r7, sp, #0
 193              		.cfi_def_cfa_register 7
 194 0006 7860     		str	r0, [r7, #4]
 525:Generated_Source\PSoC4/RTC.h ****     uint32 retVal;
 526:Generated_Source\PSoC4/RTC.h **** 
 527:Generated_Source\PSoC4/RTC.h ****     retVal  = ((inputTime & RTC_10_MINUTES_MASK) >> RTC_10_MINUTES_OFFSET) * 10u;
 195              		.loc 1 527 0
 196 0008 7B68     		ldr	r3, [r7, #4]
 197 000a 1B0B     		lsrs	r3, r3, #12
 198 000c 0722     		movs	r2, #7
 199 000e 1A40     		ands	r2, r3
 200 0010 1300     		movs	r3, r2
 201 0012 9B00     		lsls	r3, r3, #2
 202 0014 9B18     		adds	r3, r3, r2
 203 0016 5B00     		lsls	r3, r3, #1
 204 0018 FB60     		str	r3, [r7, #12]
 528:Generated_Source\PSoC4/RTC.h ****     retVal += (inputTime & RTC_MINUTES_MASK) >> RTC_MINUTES_OFFSET;
 205              		.loc 1 528 0
 206 001a 7B68     		ldr	r3, [r7, #4]
 207 001c 1B0A     		lsrs	r3, r3, #8
 208 001e 0F22     		movs	r2, #15
 209 0020 1340     		ands	r3, r2
 210 0022 FA68     		ldr	r2, [r7, #12]
 211 0024 D318     		adds	r3, r2, r3
 212 0026 FB60     		str	r3, [r7, #12]
 529:Generated_Source\PSoC4/RTC.h **** 
ARM GAS  C:\Users\okuntso\AppData\Local\Temp\ccSegaCM.s 			page 14


 530:Generated_Source\PSoC4/RTC.h ****     return (retVal);
 213              		.loc 1 530 0
 214 0028 FB68     		ldr	r3, [r7, #12]
 531:Generated_Source\PSoC4/RTC.h **** }
 215              		.loc 1 531 0
 216 002a 1800     		movs	r0, r3
 217 002c BD46     		mov	sp, r7
 218 002e 04B0     		add	sp, sp, #16
 219              		@ sp needed
 220 0030 80BD     		pop	{r7, pc}
 221              		.cfi_endproc
 222              	.LFE3:
 223              		.size	RTC_GetMinutes, .-RTC_GetMinutes
 224 0032 C046     		.section	.text.RTC_GetHours,"ax",%progbits
 225              		.align	2
 226              		.code	16
 227              		.thumb_func
 228              		.type	RTC_GetHours, %function
 229              	RTC_GetHours:
 230              	.LFB4:
 532:Generated_Source\PSoC4/RTC.h **** 
 533:Generated_Source\PSoC4/RTC.h **** 
 534:Generated_Source\PSoC4/RTC.h **** /*******************************************************************************
 535:Generated_Source\PSoC4/RTC.h **** * Function Name: RTC_GetHours
 536:Generated_Source\PSoC4/RTC.h **** ****************************************************************************//**
 537:Generated_Source\PSoC4/RTC.h **** *
 538:Generated_Source\PSoC4/RTC.h **** * \brief
 539:Generated_Source\PSoC4/RTC.h **** *  Returns the hours value from the time value that is passed as a/the parameter.
 540:Generated_Source\PSoC4/RTC.h **** *
 541:Generated_Source\PSoC4/RTC.h **** * \param
 542:Generated_Source\PSoC4/RTC.h **** *  time The time value.
 543:Generated_Source\PSoC4/RTC.h **** *
 544:Generated_Source\PSoC4/RTC.h **** * \return
 545:Generated_Source\PSoC4/RTC.h **** *  The hours value.
 546:Generated_Source\PSoC4/RTC.h **** *
 547:Generated_Source\PSoC4/RTC.h **** *******************************************************************************/
 548:Generated_Source\PSoC4/RTC.h **** static CY_INLINE uint32 RTC_GetHours(uint32 inputTime)
 549:Generated_Source\PSoC4/RTC.h **** {
 231              		.loc 1 549 0
 232              		.cfi_startproc
 233              		@ args = 0, pretend = 0, frame = 16
 234              		@ frame_needed = 1, uses_anonymous_args = 0
 235 0000 80B5     		push	{r7, lr}
 236              		.cfi_def_cfa_offset 8
 237              		.cfi_offset 7, -8
 238              		.cfi_offset 14, -4
 239 0002 84B0     		sub	sp, sp, #16
 240              		.cfi_def_cfa_offset 24
 241 0004 00AF     		add	r7, sp, #0
 242              		.cfi_def_cfa_register 7
 243 0006 7860     		str	r0, [r7, #4]
 550:Generated_Source\PSoC4/RTC.h ****     uint32 retVal;
 551:Generated_Source\PSoC4/RTC.h **** 
 552:Generated_Source\PSoC4/RTC.h ****     retVal  = ((inputTime & RTC_10_HOURS_MASK) >> RTC_10_HOURS_OFFSET) * 10u;
 244              		.loc 1 552 0
 245 0008 7B68     		ldr	r3, [r7, #4]
 246 000a 1B0D     		lsrs	r3, r3, #20
ARM GAS  C:\Users\okuntso\AppData\Local\Temp\ccSegaCM.s 			page 15


 247 000c 0322     		movs	r2, #3
 248 000e 1A40     		ands	r2, r3
 249 0010 1300     		movs	r3, r2
 250 0012 9B00     		lsls	r3, r3, #2
 251 0014 9B18     		adds	r3, r3, r2
 252 0016 5B00     		lsls	r3, r3, #1
 253 0018 FB60     		str	r3, [r7, #12]
 553:Generated_Source\PSoC4/RTC.h ****     retVal += (inputTime & RTC_HOURS_MASK) >> RTC_HOURS_OFFSET;
 254              		.loc 1 553 0
 255 001a 7B68     		ldr	r3, [r7, #4]
 256 001c 1B0C     		lsrs	r3, r3, #16
 257 001e 0F22     		movs	r2, #15
 258 0020 1340     		ands	r3, r2
 259 0022 FA68     		ldr	r2, [r7, #12]
 260 0024 D318     		adds	r3, r2, r3
 261 0026 FB60     		str	r3, [r7, #12]
 554:Generated_Source\PSoC4/RTC.h **** 
 555:Generated_Source\PSoC4/RTC.h ****     return (retVal);
 262              		.loc 1 555 0
 263 0028 FB68     		ldr	r3, [r7, #12]
 556:Generated_Source\PSoC4/RTC.h **** }
 264              		.loc 1 556 0
 265 002a 1800     		movs	r0, r3
 266 002c BD46     		mov	sp, r7
 267 002e 04B0     		add	sp, sp, #16
 268              		@ sp needed
 269 0030 80BD     		pop	{r7, pc}
 270              		.cfi_endproc
 271              	.LFE4:
 272              		.size	RTC_GetHours, .-RTC_GetHours
 273 0032 C046     		.section	.text.RTC_GetAmPm,"ax",%progbits
 274              		.align	2
 275              		.code	16
 276              		.thumb_func
 277              		.type	RTC_GetAmPm, %function
 278              	RTC_GetAmPm:
 279              	.LFB5:
 557:Generated_Source\PSoC4/RTC.h **** 
 558:Generated_Source\PSoC4/RTC.h **** 
 559:Generated_Source\PSoC4/RTC.h **** /*******************************************************************************
 560:Generated_Source\PSoC4/RTC.h **** * Function Name: RTC_GetAmPm
 561:Generated_Source\PSoC4/RTC.h **** ****************************************************************************//**
 562:Generated_Source\PSoC4/RTC.h **** *
 563:Generated_Source\PSoC4/RTC.h **** * \brief
 564:Generated_Source\PSoC4/RTC.h **** *  Returns the AM/PM status from the time value that is passed as parameter.
 565:Generated_Source\PSoC4/RTC.h **** *
 566:Generated_Source\PSoC4/RTC.h **** * \param
 567:Generated_Source\PSoC4/RTC.h **** *  time The time value.
 568:Generated_Source\PSoC4/RTC.h **** *
 569:Generated_Source\PSoC4/RTC.h **** * \return
 570:Generated_Source\PSoC4/RTC.h **** *  RTC_AM - AM.
 571:Generated_Source\PSoC4/RTC.h **** * \return
 572:Generated_Source\PSoC4/RTC.h **** *  RTC_PM - PM.
 573:Generated_Source\PSoC4/RTC.h **** *
 574:Generated_Source\PSoC4/RTC.h **** *******************************************************************************/
 575:Generated_Source\PSoC4/RTC.h **** static CY_INLINE uint32 RTC_GetAmPm(uint32 inputTime)
 576:Generated_Source\PSoC4/RTC.h **** {
ARM GAS  C:\Users\okuntso\AppData\Local\Temp\ccSegaCM.s 			page 16


 280              		.loc 1 576 0
 281              		.cfi_startproc
 282              		@ args = 0, pretend = 0, frame = 8
 283              		@ frame_needed = 1, uses_anonymous_args = 0
 284 0000 80B5     		push	{r7, lr}
 285              		.cfi_def_cfa_offset 8
 286              		.cfi_offset 7, -8
 287              		.cfi_offset 14, -4
 288 0002 82B0     		sub	sp, sp, #8
 289              		.cfi_def_cfa_offset 16
 290 0004 00AF     		add	r7, sp, #0
 291              		.cfi_def_cfa_register 7
 292 0006 7860     		str	r0, [r7, #4]
 577:Generated_Source\PSoC4/RTC.h ****     return (RTC_IsBitSet(inputTime, RTC_PERIOD_OF_DAY_MASK));
 293              		.loc 1 577 0
 294 0008 8023     		movs	r3, #128
 295 000a DA03     		lsls	r2, r3, #15
 296 000c 7B68     		ldr	r3, [r7, #4]
 297 000e 1100     		movs	r1, r2
 298 0010 1800     		movs	r0, r3
 299 0012 FFF7FEFF 		bl	RTC_IsBitSet
 300 0016 0300     		movs	r3, r0
 578:Generated_Source\PSoC4/RTC.h **** }
 301              		.loc 1 578 0
 302 0018 1800     		movs	r0, r3
 303 001a BD46     		mov	sp, r7
 304 001c 02B0     		add	sp, sp, #8
 305              		@ sp needed
 306 001e 80BD     		pop	{r7, pc}
 307              		.cfi_endproc
 308              	.LFE5:
 309              		.size	RTC_GetAmPm, .-RTC_GetAmPm
 310              		.section	.text.RTC_GetDay,"ax",%progbits
 311              		.align	2
 312              		.code	16
 313              		.thumb_func
 314              		.type	RTC_GetDay, %function
 315              	RTC_GetDay:
 316              	.LFB6:
 579:Generated_Source\PSoC4/RTC.h **** 
 580:Generated_Source\PSoC4/RTC.h **** 
 581:Generated_Source\PSoC4/RTC.h **** /*******************************************************************************
 582:Generated_Source\PSoC4/RTC.h **** * Function Name: RTC_GetDay
 583:Generated_Source\PSoC4/RTC.h **** ****************************************************************************//**
 584:Generated_Source\PSoC4/RTC.h **** *
 585:Generated_Source\PSoC4/RTC.h **** * \brief
 586:Generated_Source\PSoC4/RTC.h **** *  Returns the day value from the date value that is passed as parameter.
 587:Generated_Source\PSoC4/RTC.h **** *
 588:Generated_Source\PSoC4/RTC.h **** * \param
 589:Generated_Source\PSoC4/RTC.h **** *  date The date value.
 590:Generated_Source\PSoC4/RTC.h **** *
 591:Generated_Source\PSoC4/RTC.h **** * \return
 592:Generated_Source\PSoC4/RTC.h **** *  The day value.
 593:Generated_Source\PSoC4/RTC.h **** *
 594:Generated_Source\PSoC4/RTC.h **** *******************************************************************************/
 595:Generated_Source\PSoC4/RTC.h **** static CY_INLINE uint32 RTC_GetDay(uint32 date)
 596:Generated_Source\PSoC4/RTC.h **** {
ARM GAS  C:\Users\okuntso\AppData\Local\Temp\ccSegaCM.s 			page 17


 317              		.loc 1 596 0
 318              		.cfi_startproc
 319              		@ args = 0, pretend = 0, frame = 16
 320              		@ frame_needed = 1, uses_anonymous_args = 0
 321 0000 80B5     		push	{r7, lr}
 322              		.cfi_def_cfa_offset 8
 323              		.cfi_offset 7, -8
 324              		.cfi_offset 14, -4
 325 0002 84B0     		sub	sp, sp, #16
 326              		.cfi_def_cfa_offset 24
 327 0004 00AF     		add	r7, sp, #0
 328              		.cfi_def_cfa_register 7
 329 0006 7860     		str	r0, [r7, #4]
 597:Generated_Source\PSoC4/RTC.h ****     uint32 retVal;
 598:Generated_Source\PSoC4/RTC.h **** 
 599:Generated_Source\PSoC4/RTC.h ****     retVal  = ((date & RTC_10_DAY_MASK) >> RTC_10_DAY_OFFSET) * 10u;
 330              		.loc 1 599 0
 331 0008 7B68     		ldr	r3, [r7, #4]
 332 000a 1B0D     		lsrs	r3, r3, #20
 333 000c 0322     		movs	r2, #3
 334 000e 1A40     		ands	r2, r3
 335 0010 1300     		movs	r3, r2
 336 0012 9B00     		lsls	r3, r3, #2
 337 0014 9B18     		adds	r3, r3, r2
 338 0016 5B00     		lsls	r3, r3, #1
 339 0018 FB60     		str	r3, [r7, #12]
 600:Generated_Source\PSoC4/RTC.h ****     retVal += (date & RTC_DAY_MASK) >> RTC_DAY_OFFSET;
 340              		.loc 1 600 0
 341 001a 7B68     		ldr	r3, [r7, #4]
 342 001c 1B0C     		lsrs	r3, r3, #16
 343 001e 0F22     		movs	r2, #15
 344 0020 1340     		ands	r3, r2
 345 0022 FA68     		ldr	r2, [r7, #12]
 346 0024 D318     		adds	r3, r2, r3
 347 0026 FB60     		str	r3, [r7, #12]
 601:Generated_Source\PSoC4/RTC.h **** 
 602:Generated_Source\PSoC4/RTC.h ****     return (retVal);
 348              		.loc 1 602 0
 349 0028 FB68     		ldr	r3, [r7, #12]
 603:Generated_Source\PSoC4/RTC.h **** }
 350              		.loc 1 603 0
 351 002a 1800     		movs	r0, r3
 352 002c BD46     		mov	sp, r7
 353 002e 04B0     		add	sp, sp, #16
 354              		@ sp needed
 355 0030 80BD     		pop	{r7, pc}
 356              		.cfi_endproc
 357              	.LFE6:
 358              		.size	RTC_GetDay, .-RTC_GetDay
 359 0032 C046     		.section	.text.RTC_GetMonth,"ax",%progbits
 360              		.align	2
 361              		.code	16
 362              		.thumb_func
 363              		.type	RTC_GetMonth, %function
 364              	RTC_GetMonth:
 365              	.LFB7:
 604:Generated_Source\PSoC4/RTC.h **** 
ARM GAS  C:\Users\okuntso\AppData\Local\Temp\ccSegaCM.s 			page 18


 605:Generated_Source\PSoC4/RTC.h **** 
 606:Generated_Source\PSoC4/RTC.h **** /*******************************************************************************
 607:Generated_Source\PSoC4/RTC.h **** * Function Name: RTC_GetMonth
 608:Generated_Source\PSoC4/RTC.h **** ****************************************************************************//**
 609:Generated_Source\PSoC4/RTC.h **** *
 610:Generated_Source\PSoC4/RTC.h **** * \brief
 611:Generated_Source\PSoC4/RTC.h **** *  Returns the month value from the date value that is passed as parameter.
 612:Generated_Source\PSoC4/RTC.h **** *
 613:Generated_Source\PSoC4/RTC.h **** * \param
 614:Generated_Source\PSoC4/RTC.h **** *  date The date value.
 615:Generated_Source\PSoC4/RTC.h **** *
 616:Generated_Source\PSoC4/RTC.h **** * \return
 617:Generated_Source\PSoC4/RTC.h **** *  The month value.
 618:Generated_Source\PSoC4/RTC.h **** *
 619:Generated_Source\PSoC4/RTC.h **** *******************************************************************************/
 620:Generated_Source\PSoC4/RTC.h **** static CY_INLINE uint32 RTC_GetMonth(uint32 date)
 621:Generated_Source\PSoC4/RTC.h **** {
 366              		.loc 1 621 0
 367              		.cfi_startproc
 368              		@ args = 0, pretend = 0, frame = 16
 369              		@ frame_needed = 1, uses_anonymous_args = 0
 370 0000 80B5     		push	{r7, lr}
 371              		.cfi_def_cfa_offset 8
 372              		.cfi_offset 7, -8
 373              		.cfi_offset 14, -4
 374 0002 84B0     		sub	sp, sp, #16
 375              		.cfi_def_cfa_offset 24
 376 0004 00AF     		add	r7, sp, #0
 377              		.cfi_def_cfa_register 7
 378 0006 7860     		str	r0, [r7, #4]
 622:Generated_Source\PSoC4/RTC.h ****     uint32 retVal;
 623:Generated_Source\PSoC4/RTC.h **** 
 624:Generated_Source\PSoC4/RTC.h ****     retVal  = ((date & RTC_10_MONTH_MASK) >> RTC_10_MONTH_OFFSET) * 10u;
 379              		.loc 1 624 0
 380 0008 7B68     		ldr	r3, [r7, #4]
 381 000a 1B0F     		lsrs	r3, r3, #28
 382 000c 0122     		movs	r2, #1
 383 000e 1A40     		ands	r2, r3
 384 0010 1300     		movs	r3, r2
 385 0012 9B00     		lsls	r3, r3, #2
 386 0014 9B18     		adds	r3, r3, r2
 387 0016 5B00     		lsls	r3, r3, #1
 388 0018 FB60     		str	r3, [r7, #12]
 625:Generated_Source\PSoC4/RTC.h ****     retVal += (date & RTC_MONTH_MASK) >> RTC_MONTH_OFFSET;
 389              		.loc 1 625 0
 390 001a 7B68     		ldr	r3, [r7, #4]
 391 001c 1B0E     		lsrs	r3, r3, #24
 392 001e 0F22     		movs	r2, #15
 393 0020 1340     		ands	r3, r2
 394 0022 FA68     		ldr	r2, [r7, #12]
 395 0024 D318     		adds	r3, r2, r3
 396 0026 FB60     		str	r3, [r7, #12]
 626:Generated_Source\PSoC4/RTC.h **** 
 627:Generated_Source\PSoC4/RTC.h ****     return (retVal);
 397              		.loc 1 627 0
 398 0028 FB68     		ldr	r3, [r7, #12]
 628:Generated_Source\PSoC4/RTC.h **** }
ARM GAS  C:\Users\okuntso\AppData\Local\Temp\ccSegaCM.s 			page 19


 399              		.loc 1 628 0
 400 002a 1800     		movs	r0, r3
 401 002c BD46     		mov	sp, r7
 402 002e 04B0     		add	sp, sp, #16
 403              		@ sp needed
 404 0030 80BD     		pop	{r7, pc}
 405              		.cfi_endproc
 406              	.LFE7:
 407              		.size	RTC_GetMonth, .-RTC_GetMonth
 408 0032 C046     		.section	.text.RTC_GetYear,"ax",%progbits
 409              		.align	2
 410              		.code	16
 411              		.thumb_func
 412              		.type	RTC_GetYear, %function
 413              	RTC_GetYear:
 414              	.LFB8:
 629:Generated_Source\PSoC4/RTC.h **** 
 630:Generated_Source\PSoC4/RTC.h **** 
 631:Generated_Source\PSoC4/RTC.h **** /*******************************************************************************
 632:Generated_Source\PSoC4/RTC.h **** * Function Name: RTC_GetYear
 633:Generated_Source\PSoC4/RTC.h **** ****************************************************************************//**
 634:Generated_Source\PSoC4/RTC.h **** *
 635:Generated_Source\PSoC4/RTC.h **** * \brief
 636:Generated_Source\PSoC4/RTC.h **** *  Returns the year value from the date value that is passed as parameter.
 637:Generated_Source\PSoC4/RTC.h **** *
 638:Generated_Source\PSoC4/RTC.h **** * \param
 639:Generated_Source\PSoC4/RTC.h **** *  date The date value.
 640:Generated_Source\PSoC4/RTC.h **** *
 641:Generated_Source\PSoC4/RTC.h **** * \return
 642:Generated_Source\PSoC4/RTC.h **** *  The year value.
 643:Generated_Source\PSoC4/RTC.h **** *
 644:Generated_Source\PSoC4/RTC.h **** *******************************************************************************/
 645:Generated_Source\PSoC4/RTC.h **** static CY_INLINE uint32 RTC_GetYear(uint32 date)
 646:Generated_Source\PSoC4/RTC.h **** {
 415              		.loc 1 646 0
 416              		.cfi_startproc
 417              		@ args = 0, pretend = 0, frame = 16
 418              		@ frame_needed = 1, uses_anonymous_args = 0
 419 0000 80B5     		push	{r7, lr}
 420              		.cfi_def_cfa_offset 8
 421              		.cfi_offset 7, -8
 422              		.cfi_offset 14, -4
 423 0002 84B0     		sub	sp, sp, #16
 424              		.cfi_def_cfa_offset 24
 425 0004 00AF     		add	r7, sp, #0
 426              		.cfi_def_cfa_register 7
 427 0006 7860     		str	r0, [r7, #4]
 647:Generated_Source\PSoC4/RTC.h ****     uint32 retVal;
 648:Generated_Source\PSoC4/RTC.h **** 
 649:Generated_Source\PSoC4/RTC.h ****     retVal  = ((date & RTC_1000_YEAR_MASK) >> RTC_1000_YEAR_OFFSET) * 1000u;
 428              		.loc 1 649 0
 429 0008 7B68     		ldr	r3, [r7, #4]
 430 000a 1B0B     		lsrs	r3, r3, #12
 431 000c 0322     		movs	r2, #3
 432 000e 1340     		ands	r3, r2
 433 0010 FA22     		movs	r2, #250
 434 0012 9200     		lsls	r2, r2, #2
ARM GAS  C:\Users\okuntso\AppData\Local\Temp\ccSegaCM.s 			page 20


 435 0014 5343     		muls	r3, r2
 436 0016 FB60     		str	r3, [r7, #12]
 650:Generated_Source\PSoC4/RTC.h ****     retVal += ((date & RTC_100_YEAR_MASK) >> RTC_100_YEAR_OFFSET) * 100u;
 437              		.loc 1 650 0
 438 0018 7B68     		ldr	r3, [r7, #4]
 439 001a 1B0A     		lsrs	r3, r3, #8
 440 001c 0F22     		movs	r2, #15
 441 001e 1340     		ands	r3, r2
 442 0020 6422     		movs	r2, #100
 443 0022 5343     		muls	r3, r2
 444 0024 FA68     		ldr	r2, [r7, #12]
 445 0026 D318     		adds	r3, r2, r3
 446 0028 FB60     		str	r3, [r7, #12]
 651:Generated_Source\PSoC4/RTC.h ****     retVal += ((date & RTC_10_YEAR_MASK) >> RTC_10_YEAR_OFFSET) * 10u;
 447              		.loc 1 651 0
 448 002a 7B68     		ldr	r3, [r7, #4]
 449 002c 1B09     		lsrs	r3, r3, #4
 450 002e 0F22     		movs	r2, #15
 451 0030 1A40     		ands	r2, r3
 452 0032 1300     		movs	r3, r2
 453 0034 9B00     		lsls	r3, r3, #2
 454 0036 9B18     		adds	r3, r3, r2
 455 0038 5B00     		lsls	r3, r3, #1
 456 003a 1A00     		movs	r2, r3
 457 003c FB68     		ldr	r3, [r7, #12]
 458 003e 9B18     		adds	r3, r3, r2
 459 0040 FB60     		str	r3, [r7, #12]
 652:Generated_Source\PSoC4/RTC.h ****     retVal += (date & RTC_YEAR_MASK) >> RTC_YEAR_OFFSET;
 460              		.loc 1 652 0
 461 0042 7B68     		ldr	r3, [r7, #4]
 462 0044 0F22     		movs	r2, #15
 463 0046 1340     		ands	r3, r2
 464 0048 FA68     		ldr	r2, [r7, #12]
 465 004a D318     		adds	r3, r2, r3
 466 004c FB60     		str	r3, [r7, #12]
 653:Generated_Source\PSoC4/RTC.h **** 
 654:Generated_Source\PSoC4/RTC.h ****     return (retVal);
 467              		.loc 1 654 0
 468 004e FB68     		ldr	r3, [r7, #12]
 655:Generated_Source\PSoC4/RTC.h **** }
 469              		.loc 1 655 0
 470 0050 1800     		movs	r0, r3
 471 0052 BD46     		mov	sp, r7
 472 0054 04B0     		add	sp, sp, #16
 473              		@ sp needed
 474 0056 80BD     		pop	{r7, pc}
 475              		.cfi_endproc
 476              	.LFE8:
 477              		.size	RTC_GetYear, .-RTC_GetYear
 478              		.section	.text.RTC_GetTimeFormat,"ax",%progbits
 479              		.align	2
 480              		.code	16
 481              		.thumb_func
 482              		.type	RTC_GetTimeFormat, %function
 483              	RTC_GetTimeFormat:
 484              	.LFB22:
 656:Generated_Source\PSoC4/RTC.h **** 
ARM GAS  C:\Users\okuntso\AppData\Local\Temp\ccSegaCM.s 			page 21


 657:Generated_Source\PSoC4/RTC.h **** 
 658:Generated_Source\PSoC4/RTC.h **** /*******************************************************************************
 659:Generated_Source\PSoC4/RTC.h **** * Function Name: RTC_SetSecond
 660:Generated_Source\PSoC4/RTC.h **** ****************************************************************************//**
 661:Generated_Source\PSoC4/RTC.h **** *\internal
 662:Generated_Source\PSoC4/RTC.h **** * \brief
 663:Generated_Source\PSoC4/RTC.h **** *  Updates the time with the new second value.
 664:Generated_Source\PSoC4/RTC.h **** *
 665:Generated_Source\PSoC4/RTC.h **** * \param
 666:Generated_Source\PSoC4/RTC.h **** * time The current date.
 667:Generated_Source\PSoC4/RTC.h **** * \param
 668:Generated_Source\PSoC4/RTC.h **** * second The seconds value to be set to the time variable.
 669:Generated_Source\PSoC4/RTC.h **** *
 670:Generated_Source\PSoC4/RTC.h **** * \return
 671:Generated_Source\PSoC4/RTC.h **** *  The updated time variable.
 672:Generated_Source\PSoC4/RTC.h **** *\endinternal
 673:Generated_Source\PSoC4/RTC.h **** *******************************************************************************/
 674:Generated_Source\PSoC4/RTC.h **** static CY_INLINE uint32 RTC_SetSecond(uint32 inputTime, uint32 inputSecond)
 675:Generated_Source\PSoC4/RTC.h **** {
 676:Generated_Source\PSoC4/RTC.h ****     inputTime &= ~(RTC_SECONDS_FULL_MASK);
 677:Generated_Source\PSoC4/RTC.h **** 
 678:Generated_Source\PSoC4/RTC.h ****     inputTime |= (inputSecond / 10u) << RTC_10_SECONDS_OFFSET;
 679:Generated_Source\PSoC4/RTC.h ****     inputTime |= (inputSecond % 10u) << RTC_SECONDS_OFFSET;
 680:Generated_Source\PSoC4/RTC.h **** 
 681:Generated_Source\PSoC4/RTC.h ****     return(inputTime);
 682:Generated_Source\PSoC4/RTC.h **** }
 683:Generated_Source\PSoC4/RTC.h **** 
 684:Generated_Source\PSoC4/RTC.h **** 
 685:Generated_Source\PSoC4/RTC.h **** /*******************************************************************************
 686:Generated_Source\PSoC4/RTC.h **** * Function Name: RTC_SetMinutes
 687:Generated_Source\PSoC4/RTC.h **** ****************************************************************************//**
 688:Generated_Source\PSoC4/RTC.h **** *\internal
 689:Generated_Source\PSoC4/RTC.h **** * \brief
 690:Generated_Source\PSoC4/RTC.h **** *  Updates the time with the new minute value.
 691:Generated_Source\PSoC4/RTC.h **** *
 692:Generated_Source\PSoC4/RTC.h **** * \param
 693:Generated_Source\PSoC4/RTC.h **** *  time The current date.
 694:Generated_Source\PSoC4/RTC.h **** * \param
 695:Generated_Source\PSoC4/RTC.h **** *  minutes The minutes value to be set to the time variable.
 696:Generated_Source\PSoC4/RTC.h **** *
 697:Generated_Source\PSoC4/RTC.h **** * \return
 698:Generated_Source\PSoC4/RTC.h **** *  The updated time variable.
 699:Generated_Source\PSoC4/RTC.h **** * \endinternal
 700:Generated_Source\PSoC4/RTC.h **** *******************************************************************************/
 701:Generated_Source\PSoC4/RTC.h **** static CY_INLINE uint32 RTC_SetMinutes(uint32 inputTime, uint32 inputMinute)
 702:Generated_Source\PSoC4/RTC.h **** {
 703:Generated_Source\PSoC4/RTC.h ****     inputTime &= ~(RTC_MINUTES_FULL_MASK);
 704:Generated_Source\PSoC4/RTC.h **** 
 705:Generated_Source\PSoC4/RTC.h ****     inputTime |= (inputMinute / 10u) << RTC_10_MINUTES_OFFSET;
 706:Generated_Source\PSoC4/RTC.h ****     inputTime |= (inputMinute % 10u) << RTC_MINUTES_OFFSET;
 707:Generated_Source\PSoC4/RTC.h **** 
 708:Generated_Source\PSoC4/RTC.h ****     return(inputTime);
 709:Generated_Source\PSoC4/RTC.h **** }
 710:Generated_Source\PSoC4/RTC.h **** 
 711:Generated_Source\PSoC4/RTC.h **** 
 712:Generated_Source\PSoC4/RTC.h **** /*******************************************************************************
 713:Generated_Source\PSoC4/RTC.h **** * Function Name: RTC_SetHours
ARM GAS  C:\Users\okuntso\AppData\Local\Temp\ccSegaCM.s 			page 22


 714:Generated_Source\PSoC4/RTC.h **** ****************************************************************************//**
 715:Generated_Source\PSoC4/RTC.h **** *\internal
 716:Generated_Source\PSoC4/RTC.h **** * \brief
 717:Generated_Source\PSoC4/RTC.h **** *  Updates the time with the new hour value.
 718:Generated_Source\PSoC4/RTC.h **** *
 719:Generated_Source\PSoC4/RTC.h **** * \param
 720:Generated_Source\PSoC4/RTC.h **** * time The current date.
 721:Generated_Source\PSoC4/RTC.h **** * \param
 722:Generated_Source\PSoC4/RTC.h **** * hours The hours value to be set to the time variable.
 723:Generated_Source\PSoC4/RTC.h **** *
 724:Generated_Source\PSoC4/RTC.h **** * \return
 725:Generated_Source\PSoC4/RTC.h **** *  The updated time variable.
 726:Generated_Source\PSoC4/RTC.h **** *\endinternal
 727:Generated_Source\PSoC4/RTC.h **** *******************************************************************************/
 728:Generated_Source\PSoC4/RTC.h **** static CY_INLINE uint32 RTC_SetHours(uint32 inputTime, uint32 inputHours)
 729:Generated_Source\PSoC4/RTC.h **** {
 730:Generated_Source\PSoC4/RTC.h ****     inputTime &= ~(RTC_HOURS_FULL_MASK);
 731:Generated_Source\PSoC4/RTC.h **** 
 732:Generated_Source\PSoC4/RTC.h ****     inputTime |= (inputHours / 10u) << RTC_10_HOURS_OFFSET;
 733:Generated_Source\PSoC4/RTC.h ****     inputTime |= (inputHours % 10u) << RTC_HOURS_OFFSET;
 734:Generated_Source\PSoC4/RTC.h **** 
 735:Generated_Source\PSoC4/RTC.h ****     return(inputTime);
 736:Generated_Source\PSoC4/RTC.h **** }
 737:Generated_Source\PSoC4/RTC.h **** 
 738:Generated_Source\PSoC4/RTC.h **** 
 739:Generated_Source\PSoC4/RTC.h **** /*******************************************************************************
 740:Generated_Source\PSoC4/RTC.h **** * Function Name: RTC_SetAmPm
 741:Generated_Source\PSoC4/RTC.h **** ****************************************************************************//**
 742:Generated_Source\PSoC4/RTC.h **** *\internal
 743:Generated_Source\PSoC4/RTC.h **** * \brief
 744:Generated_Source\PSoC4/RTC.h **** *  Updates the time variable with the AmPm status.
 745:Generated_Source\PSoC4/RTC.h **** *
 746:Generated_Source\PSoC4/RTC.h **** * \param
 747:Generated_Source\PSoC4/RTC.h **** * time The current date.
 748:Generated_Source\PSoC4/RTC.h **** * \param
 749:Generated_Source\PSoC4/RTC.h **** * periodOfDay The AmPm status to be set to the time variable.
 750:Generated_Source\PSoC4/RTC.h **** *
 751:Generated_Source\PSoC4/RTC.h **** * \return
 752:Generated_Source\PSoC4/RTC.h **** *  The updated time variable.
 753:Generated_Source\PSoC4/RTC.h **** * \endinternal
 754:Generated_Source\PSoC4/RTC.h **** *******************************************************************************/
 755:Generated_Source\PSoC4/RTC.h **** static CY_INLINE uint32 RTC_SetAmPm(uint32 inputTime, uint32 periodOfDay)
 756:Generated_Source\PSoC4/RTC.h **** {
 757:Generated_Source\PSoC4/RTC.h ****     if(0u != periodOfDay)
 758:Generated_Source\PSoC4/RTC.h ****     {
 759:Generated_Source\PSoC4/RTC.h ****         inputTime &= ~(RTC_PERIOD_OF_DAY_MASK);
 760:Generated_Source\PSoC4/RTC.h ****     }
 761:Generated_Source\PSoC4/RTC.h ****     else
 762:Generated_Source\PSoC4/RTC.h ****     {
 763:Generated_Source\PSoC4/RTC.h ****         inputTime |= RTC_PERIOD_OF_DAY_MASK;
 764:Generated_Source\PSoC4/RTC.h ****     }
 765:Generated_Source\PSoC4/RTC.h **** 
 766:Generated_Source\PSoC4/RTC.h ****     return(inputTime);
 767:Generated_Source\PSoC4/RTC.h **** }
 768:Generated_Source\PSoC4/RTC.h **** 
 769:Generated_Source\PSoC4/RTC.h **** 
 770:Generated_Source\PSoC4/RTC.h **** /*******************************************************************************
ARM GAS  C:\Users\okuntso\AppData\Local\Temp\ccSegaCM.s 			page 23


 771:Generated_Source\PSoC4/RTC.h **** * Function Name: RTC_SetDay
 772:Generated_Source\PSoC4/RTC.h **** ****************************************************************************//**
 773:Generated_Source\PSoC4/RTC.h **** *\internal
 774:Generated_Source\PSoC4/RTC.h **** * \brief
 775:Generated_Source\PSoC4/RTC.h **** *  Updates the date variable with the new day value.
 776:Generated_Source\PSoC4/RTC.h **** *
 777:Generated_Source\PSoC4/RTC.h **** * \param
 778:Generated_Source\PSoC4/RTC.h **** * date The current date.
 779:Generated_Source\PSoC4/RTC.h **** * \param
 780:Generated_Source\PSoC4/RTC.h **** * day The month to be set to the date variable.
 781:Generated_Source\PSoC4/RTC.h **** *
 782:Generated_Source\PSoC4/RTC.h **** * \return
 783:Generated_Source\PSoC4/RTC.h **** *  The updated date variable.
 784:Generated_Source\PSoC4/RTC.h **** *\endinternal
 785:Generated_Source\PSoC4/RTC.h **** *******************************************************************************/
 786:Generated_Source\PSoC4/RTC.h **** static CY_INLINE uint32 RTC_SetDay(uint32 inputDate, uint32 inputDay)
 787:Generated_Source\PSoC4/RTC.h **** {
 788:Generated_Source\PSoC4/RTC.h ****     inputDate &= ~(RTC_DAY_FULL_MASK);
 789:Generated_Source\PSoC4/RTC.h **** 
 790:Generated_Source\PSoC4/RTC.h ****     inputDate |= (inputDay / 10u) << RTC_10_DAY_OFFSET;
 791:Generated_Source\PSoC4/RTC.h ****     inputDate |= (inputDay % 10u) << RTC_DAY_OFFSET;
 792:Generated_Source\PSoC4/RTC.h **** 
 793:Generated_Source\PSoC4/RTC.h ****     return(inputDate);
 794:Generated_Source\PSoC4/RTC.h **** }
 795:Generated_Source\PSoC4/RTC.h **** 
 796:Generated_Source\PSoC4/RTC.h **** 
 797:Generated_Source\PSoC4/RTC.h **** /*******************************************************************************
 798:Generated_Source\PSoC4/RTC.h **** * Function Name: RTC_SetMonth
 799:Generated_Source\PSoC4/RTC.h **** ****************************************************************************//**
 800:Generated_Source\PSoC4/RTC.h **** *\internal
 801:Generated_Source\PSoC4/RTC.h **** * \brief
 802:Generated_Source\PSoC4/RTC.h **** *  Updates the date variable with the new month value.
 803:Generated_Source\PSoC4/RTC.h **** *
 804:Generated_Source\PSoC4/RTC.h **** * \param
 805:Generated_Source\PSoC4/RTC.h **** * date The current date.
 806:Generated_Source\PSoC4/RTC.h **** * \param
 807:Generated_Source\PSoC4/RTC.h **** * month The month that to be set to the date variable.
 808:Generated_Source\PSoC4/RTC.h **** *
 809:Generated_Source\PSoC4/RTC.h **** * \return
 810:Generated_Source\PSoC4/RTC.h **** *  The updated date variable.
 811:Generated_Source\PSoC4/RTC.h **** *\endinternal
 812:Generated_Source\PSoC4/RTC.h **** *******************************************************************************/
 813:Generated_Source\PSoC4/RTC.h **** static CY_INLINE uint32 RTC_SetMonth(uint32 inputDate, uint32 inputMonth)
 814:Generated_Source\PSoC4/RTC.h **** {
 815:Generated_Source\PSoC4/RTC.h ****     inputDate &= ~(RTC_MONTH_FULL_MASK);
 816:Generated_Source\PSoC4/RTC.h **** 
 817:Generated_Source\PSoC4/RTC.h ****     inputDate |= (inputMonth / 10u) << RTC_10_MONTH_OFFSET;
 818:Generated_Source\PSoC4/RTC.h ****     inputDate |= (inputMonth % 10u) << RTC_MONTH_OFFSET;
 819:Generated_Source\PSoC4/RTC.h **** 
 820:Generated_Source\PSoC4/RTC.h ****     return(inputDate);
 821:Generated_Source\PSoC4/RTC.h **** }
 822:Generated_Source\PSoC4/RTC.h **** 
 823:Generated_Source\PSoC4/RTC.h **** 
 824:Generated_Source\PSoC4/RTC.h **** /*******************************************************************************
 825:Generated_Source\PSoC4/RTC.h **** * Function Name: RTC_SetYear
 826:Generated_Source\PSoC4/RTC.h **** ****************************************************************************//**
 827:Generated_Source\PSoC4/RTC.h **** *\internal
ARM GAS  C:\Users\okuntso\AppData\Local\Temp\ccSegaCM.s 			page 24


 828:Generated_Source\PSoC4/RTC.h **** * \brief
 829:Generated_Source\PSoC4/RTC.h **** *  Updates the date variable with the new year value.
 830:Generated_Source\PSoC4/RTC.h **** *
 831:Generated_Source\PSoC4/RTC.h **** * \param
 832:Generated_Source\PSoC4/RTC.h **** * date The current date.
 833:Generated_Source\PSoC4/RTC.h **** * \param
 834:Generated_Source\PSoC4/RTC.h **** * year The year to be set to the date variable.
 835:Generated_Source\PSoC4/RTC.h **** *
 836:Generated_Source\PSoC4/RTC.h **** * \return
 837:Generated_Source\PSoC4/RTC.h **** * The updated date variable.
 838:Generated_Source\PSoC4/RTC.h **** *\endinternal
 839:Generated_Source\PSoC4/RTC.h **** *******************************************************************************/
 840:Generated_Source\PSoC4/RTC.h **** static CY_INLINE uint32 RTC_SetYear(uint32 inputDate, uint32 inputYear)
 841:Generated_Source\PSoC4/RTC.h **** {
 842:Generated_Source\PSoC4/RTC.h ****     inputDate  &= ~(RTC_YEAR_FULL_MASK);
 843:Generated_Source\PSoC4/RTC.h **** 
 844:Generated_Source\PSoC4/RTC.h ****     inputDate |= (inputYear / 1000u) << RTC_1000_YEAR_OFFSET;
 845:Generated_Source\PSoC4/RTC.h ****     inputYear %= 1000u;
 846:Generated_Source\PSoC4/RTC.h **** 
 847:Generated_Source\PSoC4/RTC.h ****     inputDate |= (inputYear / 100u) << RTC_100_YEAR_OFFSET;
 848:Generated_Source\PSoC4/RTC.h ****     inputYear %= 100u;
 849:Generated_Source\PSoC4/RTC.h **** 
 850:Generated_Source\PSoC4/RTC.h ****     inputDate |= (inputYear / 10u) << RTC_10_YEAR_OFFSET;
 851:Generated_Source\PSoC4/RTC.h ****     inputDate |= (inputYear % 10u) << RTC_YEAR_OFFSET;
 852:Generated_Source\PSoC4/RTC.h **** 
 853:Generated_Source\PSoC4/RTC.h ****     return(inputDate);
 854:Generated_Source\PSoC4/RTC.h **** }
 855:Generated_Source\PSoC4/RTC.h **** 
 856:Generated_Source\PSoC4/RTC.h **** 
 857:Generated_Source\PSoC4/RTC.h **** /*******************************************************************************
 858:Generated_Source\PSoC4/RTC.h **** * Function Name: RTC_GetNextMinSec
 859:Generated_Source\PSoC4/RTC.h **** ****************************************************************************//**
 860:Generated_Source\PSoC4/RTC.h **** *\internal
 861:Generated_Source\PSoC4/RTC.h **** * \brief
 862:Generated_Source\PSoC4/RTC.h **** * This is an internal function that calculates the value of the next Second/Minute
 863:Generated_Source\PSoC4/RTC.h **** * that follows after the current Minute/Second.
 864:Generated_Source\PSoC4/RTC.h **** *
 865:Generated_Source\PSoC4/RTC.h **** * \param
 866:Generated_Source\PSoC4/RTC.h **** * curVal The current Second/Minute value.
 867:Generated_Source\PSoC4/RTC.h **** *
 868:Generated_Source\PSoC4/RTC.h **** * \return
 869:Generated_Source\PSoC4/RTC.h **** * Returns the Second/Minute which follows after the current Second/Minute.
 870:Generated_Source\PSoC4/RTC.h **** *\endinternal
 871:Generated_Source\PSoC4/RTC.h **** *******************************************************************************/
 872:Generated_Source\PSoC4/RTC.h **** static CY_INLINE uint32 RTC_GetNextMinSec(uint32 curVal)
 873:Generated_Source\PSoC4/RTC.h **** {
 874:Generated_Source\PSoC4/RTC.h ****     return((curVal < 59u) ? (curVal + 1u) : 0u);
 875:Generated_Source\PSoC4/RTC.h **** }
 876:Generated_Source\PSoC4/RTC.h **** 
 877:Generated_Source\PSoC4/RTC.h **** 
 878:Generated_Source\PSoC4/RTC.h **** /*******************************************************************************
 879:Generated_Source\PSoC4/RTC.h **** * Function Name: RTC_GetNextHour
 880:Generated_Source\PSoC4/RTC.h **** ****************************************************************************//**
 881:Generated_Source\PSoC4/RTC.h **** *\internal
 882:Generated_Source\PSoC4/RTC.h **** * \brief
 883:Generated_Source\PSoC4/RTC.h **** *  This is an internal function that calculates the value of the next Hour
 884:Generated_Source\PSoC4/RTC.h **** *  that follows after the current Hour.
ARM GAS  C:\Users\okuntso\AppData\Local\Temp\ccSegaCM.s 			page 25


 885:Generated_Source\PSoC4/RTC.h **** *
 886:Generated_Source\PSoC4/RTC.h **** * \param
 887:Generated_Source\PSoC4/RTC.h **** * curVal The current Hour value.
 888:Generated_Source\PSoC4/RTC.h **** *
 889:Generated_Source\PSoC4/RTC.h **** * \return
 890:Generated_Source\PSoC4/RTC.h **** *  Returns the Hour which follows after the current Hour.
 891:Generated_Source\PSoC4/RTC.h **** * \endinternal
 892:Generated_Source\PSoC4/RTC.h **** *******************************************************************************/
 893:Generated_Source\PSoC4/RTC.h **** static CY_INLINE uint32 RTC_GetNextHour(uint32 curVal)
 894:Generated_Source\PSoC4/RTC.h **** {
 895:Generated_Source\PSoC4/RTC.h ****     return((curVal < 23u) ? (curVal + 1u) : 0u);
 896:Generated_Source\PSoC4/RTC.h **** }
 897:Generated_Source\PSoC4/RTC.h **** 
 898:Generated_Source\PSoC4/RTC.h **** 
 899:Generated_Source\PSoC4/RTC.h **** /*******************************************************************************
 900:Generated_Source\PSoC4/RTC.h **** * Function Name: RTC_GetNextDay
 901:Generated_Source\PSoC4/RTC.h **** ****************************************************************************//**
 902:Generated_Source\PSoC4/RTC.h **** * \internal
 903:Generated_Source\PSoC4/RTC.h **** * \brief
 904:Generated_Source\PSoC4/RTC.h **** *  This is an internal function that calculates the value of the next Day
 905:Generated_Source\PSoC4/RTC.h **** *  that follows after the current Day.
 906:Generated_Source\PSoC4/RTC.h **** *
 907:Generated_Source\PSoC4/RTC.h **** * \param
 908:Generated_Source\PSoC4/RTC.h **** *  curYear The current year.
 909:Generated_Source\PSoC4/RTC.h **** * \param
 910:Generated_Source\PSoC4/RTC.h **** *  curMonth The current month.
 911:Generated_Source\PSoC4/RTC.h **** * \param
 912:Generated_Source\PSoC4/RTC.h **** *  curDay The current day.
 913:Generated_Source\PSoC4/RTC.h **** * \param
 914:Generated_Source\PSoC4/RTC.h **** *  alarmCfgMask Alarm Config Mask.
 915:Generated_Source\PSoC4/RTC.h **** *
 916:Generated_Source\PSoC4/RTC.h **** * \return
 917:Generated_Source\PSoC4/RTC.h **** *  Returns the day which follows after the current Day.
 918:Generated_Source\PSoC4/RTC.h **** * \endinternal
 919:Generated_Source\PSoC4/RTC.h **** *******************************************************************************/
 920:Generated_Source\PSoC4/RTC.h **** static CY_INLINE uint32 RTC_GetNextDay(uint32 curYear, uint32 curMonth, uint32 curDay, uint32 alarm
 921:Generated_Source\PSoC4/RTC.h **** {
 922:Generated_Source\PSoC4/RTC.h ****     uint32 daysInMonth;
 923:Generated_Source\PSoC4/RTC.h ****     uint32 tmpVal;
 924:Generated_Source\PSoC4/RTC.h **** 
 925:Generated_Source\PSoC4/RTC.h ****     daysInMonth = RTC_DaysInMonth(curMonth, curYear);
 926:Generated_Source\PSoC4/RTC.h **** 
 927:Generated_Source\PSoC4/RTC.h ****     if(0u != (alarmCfgMask & RTC_ALARM_DAYOFWEEK_MASK))
 928:Generated_Source\PSoC4/RTC.h ****     {
 929:Generated_Source\PSoC4/RTC.h ****         tmpVal = curDay + RTC_DAYS_PER_WEEK;
 930:Generated_Source\PSoC4/RTC.h ****         tmpVal = (tmpVal > daysInMonth) ? (tmpVal - daysInMonth) : tmpVal;
 931:Generated_Source\PSoC4/RTC.h ****     }
 932:Generated_Source\PSoC4/RTC.h ****     else
 933:Generated_Source\PSoC4/RTC.h ****     {
 934:Generated_Source\PSoC4/RTC.h ****         tmpVal = (curDay < daysInMonth) ? (curDay + 1u) : 1u;
 935:Generated_Source\PSoC4/RTC.h ****     }
 936:Generated_Source\PSoC4/RTC.h **** 
 937:Generated_Source\PSoC4/RTC.h ****     return(tmpVal);
 938:Generated_Source\PSoC4/RTC.h **** }
 939:Generated_Source\PSoC4/RTC.h **** 
 940:Generated_Source\PSoC4/RTC.h **** 
 941:Generated_Source\PSoC4/RTC.h **** /*******************************************************************************
ARM GAS  C:\Users\okuntso\AppData\Local\Temp\ccSegaCM.s 			page 26


 942:Generated_Source\PSoC4/RTC.h **** * Function Name: RTC_GetNextMonth
 943:Generated_Source\PSoC4/RTC.h **** ****************************************************************************//**
 944:Generated_Source\PSoC4/RTC.h **** * \internal
 945:Generated_Source\PSoC4/RTC.h **** * \brief
 946:Generated_Source\PSoC4/RTC.h **** *  This is an internal function that calculates the value of the next month
 947:Generated_Source\PSoC4/RTC.h **** *  that follows after the current month.
 948:Generated_Source\PSoC4/RTC.h **** *
 949:Generated_Source\PSoC4/RTC.h **** * \param
 950:Generated_Source\PSoC4/RTC.h **** *  curMonth The current month.
 951:Generated_Source\PSoC4/RTC.h **** *
 952:Generated_Source\PSoC4/RTC.h **** * \return
 953:Generated_Source\PSoC4/RTC.h **** *  Returns the month which follows after the current month.
 954:Generated_Source\PSoC4/RTC.h **** * \endinternal
 955:Generated_Source\PSoC4/RTC.h **** *******************************************************************************/
 956:Generated_Source\PSoC4/RTC.h **** static CY_INLINE uint32 RTC_GetNextMonth(uint32 curMonth)
 957:Generated_Source\PSoC4/RTC.h **** {
 958:Generated_Source\PSoC4/RTC.h ****     return((curMonth < 12u) ? (curMonth + 1u) : 1u);
 959:Generated_Source\PSoC4/RTC.h **** }
 960:Generated_Source\PSoC4/RTC.h **** 
 961:Generated_Source\PSoC4/RTC.h **** 
 962:Generated_Source\PSoC4/RTC.h **** /*******************************************************************************
 963:Generated_Source\PSoC4/RTC.h **** * Function Name: RTC_GetNextYear
 964:Generated_Source\PSoC4/RTC.h **** ****************************************************************************//**
 965:Generated_Source\PSoC4/RTC.h **** * \internal
 966:Generated_Source\PSoC4/RTC.h **** * \brief
 967:Generated_Source\PSoC4/RTC.h **** *  This is an internal function that calculates the value of the next year
 968:Generated_Source\PSoC4/RTC.h **** *  that follows after the current year.
 969:Generated_Source\PSoC4/RTC.h **** *
 970:Generated_Source\PSoC4/RTC.h **** * \param
 971:Generated_Source\PSoC4/RTC.h **** *  curYear The current year.
 972:Generated_Source\PSoC4/RTC.h **** *
 973:Generated_Source\PSoC4/RTC.h **** * \return
 974:Generated_Source\PSoC4/RTC.h **** *  Returns the year which follows after the current year.
 975:Generated_Source\PSoC4/RTC.h **** * \endinternal
 976:Generated_Source\PSoC4/RTC.h **** *******************************************************************************/
 977:Generated_Source\PSoC4/RTC.h **** static CY_INLINE uint32 RTC_GetNextYear(uint32 curYear)
 978:Generated_Source\PSoC4/RTC.h **** {
 979:Generated_Source\PSoC4/RTC.h ****     return(curYear + 1u);
 980:Generated_Source\PSoC4/RTC.h **** }
 981:Generated_Source\PSoC4/RTC.h **** 
 982:Generated_Source\PSoC4/RTC.h **** 
 983:Generated_Source\PSoC4/RTC.h **** /*******************************************************************************
 984:Generated_Source\PSoC4/RTC.h **** * Function Name: RTC_SetTimeFormat
 985:Generated_Source\PSoC4/RTC.h **** ****************************************************************************//**
 986:Generated_Source\PSoC4/RTC.h **** * \internal
 987:Generated_Source\PSoC4/RTC.h **** * \brief
 988:Generated_Source\PSoC4/RTC.h **** *  Updates the "Time Format" value in the variable that contains time in the
 989:Generated_Source\PSoC4/RTC.h **** *  "HH:MM:SS" format.
 990:Generated_Source\PSoC4/RTC.h **** *
 991:Generated_Source\PSoC4/RTC.h **** * \param
 992:Generated_Source\PSoC4/RTC.h **** *  inputTime The current value of the time in the "HH:MM:SS" format.
 993:Generated_Source\PSoC4/RTC.h **** *
 994:Generated_Source\PSoC4/RTC.h **** * \return
 995:Generated_Source\PSoC4/RTC.h **** *  Returns the updated value of the time in the "HH:MM:SS" format.
 996:Generated_Source\PSoC4/RTC.h **** * \endinternal
 997:Generated_Source\PSoC4/RTC.h **** *******************************************************************************/
 998:Generated_Source\PSoC4/RTC.h **** static CY_INLINE uint32 RTC_SetTimeFormat(uint32 inputTime, uint32 timeFormat)
ARM GAS  C:\Users\okuntso\AppData\Local\Temp\ccSegaCM.s 			page 27


 999:Generated_Source\PSoC4/RTC.h **** {
1000:Generated_Source\PSoC4/RTC.h ****     inputTime &= ~(RTC_TIME_FORMAT_MASK);
1001:Generated_Source\PSoC4/RTC.h **** 
1002:Generated_Source\PSoC4/RTC.h ****     if((uint32)RTC_12_HOURS_FORMAT != timeFormat)
1003:Generated_Source\PSoC4/RTC.h ****     {
1004:Generated_Source\PSoC4/RTC.h ****         inputTime |= RTC_TIME_FORMAT_MASK;
1005:Generated_Source\PSoC4/RTC.h ****     }
1006:Generated_Source\PSoC4/RTC.h **** 
1007:Generated_Source\PSoC4/RTC.h ****     return(inputTime);
1008:Generated_Source\PSoC4/RTC.h **** }
1009:Generated_Source\PSoC4/RTC.h **** 
1010:Generated_Source\PSoC4/RTC.h **** 
1011:Generated_Source\PSoC4/RTC.h **** /*******************************************************************************
1012:Generated_Source\PSoC4/RTC.h **** * Function Name: RTC_GetTimeFormat
1013:Generated_Source\PSoC4/RTC.h **** ****************************************************************************//**
1014:Generated_Source\PSoC4/RTC.h **** * \internal
1015:Generated_Source\PSoC4/RTC.h **** * \brief
1016:Generated_Source\PSoC4/RTC.h **** *  Reads the time format from the variable that contains time in the
1017:Generated_Source\PSoC4/RTC.h **** *  "HH:MM:SS" format.
1018:Generated_Source\PSoC4/RTC.h **** *
1019:Generated_Source\PSoC4/RTC.h **** * \param
1020:Generated_Source\PSoC4/RTC.h **** *  inputTime The current value of the time in the "HH:MM:SS" format.
1021:Generated_Source\PSoC4/RTC.h **** *
1022:Generated_Source\PSoC4/RTC.h **** * \return
1023:Generated_Source\PSoC4/RTC.h **** *  Returns the time format that is stored in the variable that contains time
1024:Generated_Source\PSoC4/RTC.h **** *  in the "HH:MM:SS" format.
1025:Generated_Source\PSoC4/RTC.h **** * \endinternal
1026:Generated_Source\PSoC4/RTC.h **** *******************************************************************************/
1027:Generated_Source\PSoC4/RTC.h **** static CY_INLINE uint32 RTC_GetTimeFormat(uint32 inputTime)
1028:Generated_Source\PSoC4/RTC.h **** {
 485              		.loc 1 1028 0
 486              		.cfi_startproc
 487              		@ args = 0, pretend = 0, frame = 8
 488              		@ frame_needed = 1, uses_anonymous_args = 0
 489 0000 80B5     		push	{r7, lr}
 490              		.cfi_def_cfa_offset 8
 491              		.cfi_offset 7, -8
 492              		.cfi_offset 14, -4
 493 0002 82B0     		sub	sp, sp, #8
 494              		.cfi_def_cfa_offset 16
 495 0004 00AF     		add	r7, sp, #0
 496              		.cfi_def_cfa_register 7
 497 0006 7860     		str	r0, [r7, #4]
1029:Generated_Source\PSoC4/RTC.h ****     return ((0uL != (inputTime & (1uL << RTC_TIME_FORMAT_OFFSET))) ? (uint32)RTC_12_HOURS_FORMAT :
 498              		.loc 1 1029 0
 499 0008 7A68     		ldr	r2, [r7, #4]
 500 000a 8023     		movs	r3, #128
 501 000c 1B04     		lsls	r3, r3, #16
 502 000e 1340     		ands	r3, r2
 503 0010 01D0     		beq	.L26
 504              		.loc 1 1029 0 is_stmt 0 discriminator 1
 505 0012 0123     		movs	r3, #1
 506 0014 00E0     		b	.L28
 507              	.L26:
 508              		.loc 1 1029 0 discriminator 2
 509 0016 0023     		movs	r3, #0
 510              	.L28:
ARM GAS  C:\Users\okuntso\AppData\Local\Temp\ccSegaCM.s 			page 28


1030:Generated_Source\PSoC4/RTC.h ****                                                                                   (uint32)RTC_24_HO
1031:Generated_Source\PSoC4/RTC.h **** }
 511              		.loc 1 1031 0 is_stmt 1 discriminator 5
 512 0018 1800     		movs	r0, r3
 513 001a BD46     		mov	sp, r7
 514 001c 02B0     		add	sp, sp, #8
 515              		@ sp needed
 516 001e 80BD     		pop	{r7, pc}
 517              		.cfi_endproc
 518              	.LFE22:
 519              		.size	RTC_GetTimeFormat, .-RTC_GetTimeFormat
 520              		.global	__aeabi_uidiv
 521              		.section	.text.RTC_ConstructTime,"ax",%progbits
 522              		.align	2
 523              		.code	16
 524              		.thumb_func
 525              		.type	RTC_ConstructTime, %function
 526              	RTC_ConstructTime:
 527              	.LFB23:
1032:Generated_Source\PSoC4/RTC.h **** 
1033:Generated_Source\PSoC4/RTC.h **** 
1034:Generated_Source\PSoC4/RTC.h **** /*******************************************************************************
1035:Generated_Source\PSoC4/RTC.h **** * Function Name: RTC_ConstructTime
1036:Generated_Source\PSoC4/RTC.h **** ****************************************************************************//**
1037:Generated_Source\PSoC4/RTC.h **** *
1038:Generated_Source\PSoC4/RTC.h **** * \brief
1039:Generated_Source\PSoC4/RTC.h **** *  Returns the time in the format used in APIs from individual elements
1040:Generated_Source\PSoC4/RTC.h **** *  passed (hour, min, sec etc)
1041:Generated_Source\PSoC4/RTC.h **** *
1042:Generated_Source\PSoC4/RTC.h **** * \param
1043:Generated_Source\PSoC4/RTC.h **** * timeFormat The 12/24 hours time format <br>
1044:Generated_Source\PSoC4/RTC.h **** * RTC_24_HOURS_FORMAT - The 24 hours format. <br>
1045:Generated_Source\PSoC4/RTC.h **** * RTC_12_HOURS_FORMAT - The 12 hours format.
1046:Generated_Source\PSoC4/RTC.h **** *
1047:Generated_Source\PSoC4/RTC.h **** * \param
1048:Generated_Source\PSoC4/RTC.h **** * stateAmPm  The AM/PM status <br>
1049:Generated_Source\PSoC4/RTC.h **** * RTC_AM - AM. <br>
1050:Generated_Source\PSoC4/RTC.h **** * RTC_PM - PM.
1051:Generated_Source\PSoC4/RTC.h **** *
1052:Generated_Source\PSoC4/RTC.h **** * \param
1053:Generated_Source\PSoC4/RTC.h **** *  hour The hour.
1054:Generated_Source\PSoC4/RTC.h **** *
1055:Generated_Source\PSoC4/RTC.h **** * \param
1056:Generated_Source\PSoC4/RTC.h **** *  min The minute.
1057:Generated_Source\PSoC4/RTC.h **** *
1058:Generated_Source\PSoC4/RTC.h **** * \param
1059:Generated_Source\PSoC4/RTC.h **** *  sec The second.
1060:Generated_Source\PSoC4/RTC.h **** *
1061:Generated_Source\PSoC4/RTC.h **** * \return
1062:Generated_Source\PSoC4/RTC.h **** *  Time in the format used in API.
1063:Generated_Source\PSoC4/RTC.h **** *
1064:Generated_Source\PSoC4/RTC.h **** *******************************************************************************/
1065:Generated_Source\PSoC4/RTC.h **** static CY_INLINE uint32 RTC_ConstructTime(uint32 timeFormat, uint32 stateAmPm, uint32 hour, uint32 
1066:Generated_Source\PSoC4/RTC.h **** {
 528              		.loc 1 1066 0
 529              		.cfi_startproc
 530              		@ args = 4, pretend = 0, frame = 24
ARM GAS  C:\Users\okuntso\AppData\Local\Temp\ccSegaCM.s 			page 29


 531              		@ frame_needed = 1, uses_anonymous_args = 0
 532 0000 80B5     		push	{r7, lr}
 533              		.cfi_def_cfa_offset 8
 534              		.cfi_offset 7, -8
 535              		.cfi_offset 14, -4
 536 0002 86B0     		sub	sp, sp, #24
 537              		.cfi_def_cfa_offset 32
 538 0004 00AF     		add	r7, sp, #0
 539              		.cfi_def_cfa_register 7
 540 0006 F860     		str	r0, [r7, #12]
 541 0008 B960     		str	r1, [r7, #8]
 542 000a 7A60     		str	r2, [r7, #4]
 543 000c 3B60     		str	r3, [r7]
1067:Generated_Source\PSoC4/RTC.h ****     uint32 retVal;
1068:Generated_Source\PSoC4/RTC.h **** 
1069:Generated_Source\PSoC4/RTC.h ****     retVal  = timeFormat << RTC_TIME_FORMAT_OFFSET;
 544              		.loc 1 1069 0
 545 000e FB68     		ldr	r3, [r7, #12]
 546 0010 DB05     		lsls	r3, r3, #23
 547 0012 7B61     		str	r3, [r7, #20]
1070:Generated_Source\PSoC4/RTC.h ****     retVal |= stateAmPm << RTC_PERIOD_OF_DAY_OFFSET;
 548              		.loc 1 1070 0
 549 0014 BB68     		ldr	r3, [r7, #8]
 550 0016 9B05     		lsls	r3, r3, #22
 551 0018 7A69     		ldr	r2, [r7, #20]
 552 001a 1343     		orrs	r3, r2
 553 001c 7B61     		str	r3, [r7, #20]
1071:Generated_Source\PSoC4/RTC.h **** 
1072:Generated_Source\PSoC4/RTC.h ****     retVal |= (hour / 10u) << RTC_10_HOURS_OFFSET;
 554              		.loc 1 1072 0
 555 001e 7B68     		ldr	r3, [r7, #4]
 556 0020 0A21     		movs	r1, #10
 557 0022 1800     		movs	r0, r3
 558 0024 FFF7FEFF 		bl	__aeabi_uidiv
 559 0028 0300     		movs	r3, r0
 560 002a 1B05     		lsls	r3, r3, #20
 561 002c 7A69     		ldr	r2, [r7, #20]
 562 002e 1343     		orrs	r3, r2
 563 0030 7B61     		str	r3, [r7, #20]
1073:Generated_Source\PSoC4/RTC.h ****     retVal |= (hour % 10u) << RTC_HOURS_OFFSET;
 564              		.loc 1 1073 0
 565 0032 7B68     		ldr	r3, [r7, #4]
 566 0034 0A21     		movs	r1, #10
 567 0036 1800     		movs	r0, r3
 568 0038 FFF7FEFF 		bl	__aeabi_uidivmod
 569 003c 0B00     		movs	r3, r1
 570 003e 1B04     		lsls	r3, r3, #16
 571 0040 7A69     		ldr	r2, [r7, #20]
 572 0042 1343     		orrs	r3, r2
 573 0044 7B61     		str	r3, [r7, #20]
1074:Generated_Source\PSoC4/RTC.h **** 
1075:Generated_Source\PSoC4/RTC.h ****     retVal |= (min / 10u) << RTC_10_MINUTES_OFFSET;
 574              		.loc 1 1075 0
 575 0046 3B68     		ldr	r3, [r7]
 576 0048 0A21     		movs	r1, #10
 577 004a 1800     		movs	r0, r3
 578 004c FFF7FEFF 		bl	__aeabi_uidiv
ARM GAS  C:\Users\okuntso\AppData\Local\Temp\ccSegaCM.s 			page 30


 579 0050 0300     		movs	r3, r0
 580 0052 1B03     		lsls	r3, r3, #12
 581 0054 7A69     		ldr	r2, [r7, #20]
 582 0056 1343     		orrs	r3, r2
 583 0058 7B61     		str	r3, [r7, #20]
1076:Generated_Source\PSoC4/RTC.h ****     retVal |= (min % 10u) << RTC_MINUTES_OFFSET;
 584              		.loc 1 1076 0
 585 005a 3B68     		ldr	r3, [r7]
 586 005c 0A21     		movs	r1, #10
 587 005e 1800     		movs	r0, r3
 588 0060 FFF7FEFF 		bl	__aeabi_uidivmod
 589 0064 0B00     		movs	r3, r1
 590 0066 1B02     		lsls	r3, r3, #8
 591 0068 7A69     		ldr	r2, [r7, #20]
 592 006a 1343     		orrs	r3, r2
 593 006c 7B61     		str	r3, [r7, #20]
1077:Generated_Source\PSoC4/RTC.h **** 
1078:Generated_Source\PSoC4/RTC.h ****     retVal |= (sec / 10u) << RTC_10_SECONDS_OFFSET;
 594              		.loc 1 1078 0
 595 006e 3B6A     		ldr	r3, [r7, #32]
 596 0070 0A21     		movs	r1, #10
 597 0072 1800     		movs	r0, r3
 598 0074 FFF7FEFF 		bl	__aeabi_uidiv
 599 0078 0300     		movs	r3, r0
 600 007a 1B01     		lsls	r3, r3, #4
 601 007c 7A69     		ldr	r2, [r7, #20]
 602 007e 1343     		orrs	r3, r2
 603 0080 7B61     		str	r3, [r7, #20]
1079:Generated_Source\PSoC4/RTC.h ****     retVal |= (sec % 10u) << RTC_SECONDS_OFFSET;
 604              		.loc 1 1079 0
 605 0082 3B6A     		ldr	r3, [r7, #32]
 606 0084 0A21     		movs	r1, #10
 607 0086 1800     		movs	r0, r3
 608 0088 FFF7FEFF 		bl	__aeabi_uidivmod
 609 008c 0B00     		movs	r3, r1
 610 008e 1A00     		movs	r2, r3
 611 0090 7B69     		ldr	r3, [r7, #20]
 612 0092 1343     		orrs	r3, r2
 613 0094 7B61     		str	r3, [r7, #20]
1080:Generated_Source\PSoC4/RTC.h **** 
1081:Generated_Source\PSoC4/RTC.h ****     return (retVal);
 614              		.loc 1 1081 0
 615 0096 7B69     		ldr	r3, [r7, #20]
1082:Generated_Source\PSoC4/RTC.h **** }
 616              		.loc 1 1082 0
 617 0098 1800     		movs	r0, r3
 618 009a BD46     		mov	sp, r7
 619 009c 06B0     		add	sp, sp, #24
 620              		@ sp needed
 621 009e 80BD     		pop	{r7, pc}
 622              		.cfi_endproc
 623              	.LFE23:
 624              		.size	RTC_ConstructTime, .-RTC_ConstructTime
 625              		.section	.text.RTC_ConstructDate,"ax",%progbits
 626              		.align	2
 627              		.code	16
 628              		.thumb_func
ARM GAS  C:\Users\okuntso\AppData\Local\Temp\ccSegaCM.s 			page 31


 629              		.type	RTC_ConstructDate, %function
 630              	RTC_ConstructDate:
 631              	.LFB24:
1083:Generated_Source\PSoC4/RTC.h **** 
1084:Generated_Source\PSoC4/RTC.h **** 
1085:Generated_Source\PSoC4/RTC.h **** /*******************************************************************************
1086:Generated_Source\PSoC4/RTC.h **** * Function Name: RTC_ConstructDate
1087:Generated_Source\PSoC4/RTC.h **** ****************************************************************************//**
1088:Generated_Source\PSoC4/RTC.h **** *
1089:Generated_Source\PSoC4/RTC.h **** * \brief
1090:Generated_Source\PSoC4/RTC.h **** *  Returns the date in the format used in APIs from individual elements
1091:Generated_Source\PSoC4/RTC.h **** *  passed (day. Month and year)
1092:Generated_Source\PSoC4/RTC.h **** *
1093:Generated_Source\PSoC4/RTC.h **** * \param
1094:Generated_Source\PSoC4/RTC.h **** *  month The month.
1095:Generated_Source\PSoC4/RTC.h **** *
1096:Generated_Source\PSoC4/RTC.h **** * \param
1097:Generated_Source\PSoC4/RTC.h **** *  day The day.
1098:Generated_Source\PSoC4/RTC.h **** *
1099:Generated_Source\PSoC4/RTC.h **** * \param
1100:Generated_Source\PSoC4/RTC.h **** *  year The year.
1101:Generated_Source\PSoC4/RTC.h **** *
1102:Generated_Source\PSoC4/RTC.h **** * \return
1103:Generated_Source\PSoC4/RTC.h **** *  The date in the format used in API.
1104:Generated_Source\PSoC4/RTC.h **** *
1105:Generated_Source\PSoC4/RTC.h **** *******************************************************************************/
1106:Generated_Source\PSoC4/RTC.h **** static CY_INLINE uint32 RTC_ConstructDate(uint32 month, uint32 day, uint32 year)
1107:Generated_Source\PSoC4/RTC.h **** {
 632              		.loc 1 1107 0
 633              		.cfi_startproc
 634              		@ args = 0, pretend = 0, frame = 24
 635              		@ frame_needed = 1, uses_anonymous_args = 0
 636 0000 80B5     		push	{r7, lr}
 637              		.cfi_def_cfa_offset 8
 638              		.cfi_offset 7, -8
 639              		.cfi_offset 14, -4
 640 0002 86B0     		sub	sp, sp, #24
 641              		.cfi_def_cfa_offset 32
 642 0004 00AF     		add	r7, sp, #0
 643              		.cfi_def_cfa_register 7
 644 0006 F860     		str	r0, [r7, #12]
 645 0008 B960     		str	r1, [r7, #8]
 646 000a 7A60     		str	r2, [r7, #4]
1108:Generated_Source\PSoC4/RTC.h ****     uint32 retVal;
1109:Generated_Source\PSoC4/RTC.h ****     uint32 tmpVal = year;
 647              		.loc 1 1109 0
 648 000c 7B68     		ldr	r3, [r7, #4]
 649 000e 7B61     		str	r3, [r7, #20]
1110:Generated_Source\PSoC4/RTC.h **** 
1111:Generated_Source\PSoC4/RTC.h ****     retVal  = (month / 10u) << RTC_10_MONTH_OFFSET;
 650              		.loc 1 1111 0
 651 0010 FB68     		ldr	r3, [r7, #12]
 652 0012 0A21     		movs	r1, #10
 653 0014 1800     		movs	r0, r3
 654 0016 FFF7FEFF 		bl	__aeabi_uidiv
 655 001a 0300     		movs	r3, r0
 656 001c 1B07     		lsls	r3, r3, #28
ARM GAS  C:\Users\okuntso\AppData\Local\Temp\ccSegaCM.s 			page 32


 657 001e 3B61     		str	r3, [r7, #16]
1112:Generated_Source\PSoC4/RTC.h ****     retVal |= (month % 10u) << RTC_MONTH_OFFSET;
 658              		.loc 1 1112 0
 659 0020 FB68     		ldr	r3, [r7, #12]
 660 0022 0A21     		movs	r1, #10
 661 0024 1800     		movs	r0, r3
 662 0026 FFF7FEFF 		bl	__aeabi_uidivmod
 663 002a 0B00     		movs	r3, r1
 664 002c 1B06     		lsls	r3, r3, #24
 665 002e 3A69     		ldr	r2, [r7, #16]
 666 0030 1343     		orrs	r3, r2
 667 0032 3B61     		str	r3, [r7, #16]
1113:Generated_Source\PSoC4/RTC.h **** 
1114:Generated_Source\PSoC4/RTC.h ****     retVal |= (day / 10u) << RTC_10_DAY_OFFSET;
 668              		.loc 1 1114 0
 669 0034 BB68     		ldr	r3, [r7, #8]
 670 0036 0A21     		movs	r1, #10
 671 0038 1800     		movs	r0, r3
 672 003a FFF7FEFF 		bl	__aeabi_uidiv
 673 003e 0300     		movs	r3, r0
 674 0040 1B05     		lsls	r3, r3, #20
 675 0042 3A69     		ldr	r2, [r7, #16]
 676 0044 1343     		orrs	r3, r2
 677 0046 3B61     		str	r3, [r7, #16]
1115:Generated_Source\PSoC4/RTC.h ****     retVal |= (day % 10u) << RTC_DAY_OFFSET;
 678              		.loc 1 1115 0
 679 0048 BB68     		ldr	r3, [r7, #8]
 680 004a 0A21     		movs	r1, #10
 681 004c 1800     		movs	r0, r3
 682 004e FFF7FEFF 		bl	__aeabi_uidivmod
 683 0052 0B00     		movs	r3, r1
 684 0054 1B04     		lsls	r3, r3, #16
 685 0056 3A69     		ldr	r2, [r7, #16]
 686 0058 1343     		orrs	r3, r2
 687 005a 3B61     		str	r3, [r7, #16]
1116:Generated_Source\PSoC4/RTC.h **** 
1117:Generated_Source\PSoC4/RTC.h ****     retVal |= (year / 1000u) << RTC_1000_YEAR_OFFSET;
 688              		.loc 1 1117 0
 689 005c 7A68     		ldr	r2, [r7, #4]
 690 005e FA23     		movs	r3, #250
 691 0060 9900     		lsls	r1, r3, #2
 692 0062 1000     		movs	r0, r2
 693 0064 FFF7FEFF 		bl	__aeabi_uidiv
 694 0068 0300     		movs	r3, r0
 695 006a 1B03     		lsls	r3, r3, #12
 696 006c 3A69     		ldr	r2, [r7, #16]
 697 006e 1343     		orrs	r3, r2
 698 0070 3B61     		str	r3, [r7, #16]
1118:Generated_Source\PSoC4/RTC.h ****     tmpVal %= 1000u;
 699              		.loc 1 1118 0
 700 0072 7A69     		ldr	r2, [r7, #20]
 701 0074 FA23     		movs	r3, #250
 702 0076 9900     		lsls	r1, r3, #2
 703 0078 1000     		movs	r0, r2
 704 007a FFF7FEFF 		bl	__aeabi_uidivmod
 705 007e 0B00     		movs	r3, r1
 706 0080 7B61     		str	r3, [r7, #20]
ARM GAS  C:\Users\okuntso\AppData\Local\Temp\ccSegaCM.s 			page 33


1119:Generated_Source\PSoC4/RTC.h **** 
1120:Generated_Source\PSoC4/RTC.h ****     retVal |= (tmpVal / 100u) << RTC_100_YEAR_OFFSET;
 707              		.loc 1 1120 0
 708 0082 7B69     		ldr	r3, [r7, #20]
 709 0084 6421     		movs	r1, #100
 710 0086 1800     		movs	r0, r3
 711 0088 FFF7FEFF 		bl	__aeabi_uidiv
 712 008c 0300     		movs	r3, r0
 713 008e 1B02     		lsls	r3, r3, #8
 714 0090 3A69     		ldr	r2, [r7, #16]
 715 0092 1343     		orrs	r3, r2
 716 0094 3B61     		str	r3, [r7, #16]
1121:Generated_Source\PSoC4/RTC.h ****     tmpVal %= 100u;
 717              		.loc 1 1121 0
 718 0096 7B69     		ldr	r3, [r7, #20]
 719 0098 6421     		movs	r1, #100
 720 009a 1800     		movs	r0, r3
 721 009c FFF7FEFF 		bl	__aeabi_uidivmod
 722 00a0 0B00     		movs	r3, r1
 723 00a2 7B61     		str	r3, [r7, #20]
1122:Generated_Source\PSoC4/RTC.h **** 
1123:Generated_Source\PSoC4/RTC.h ****     retVal |= (tmpVal / 10u) << RTC_10_YEAR_OFFSET;
 724              		.loc 1 1123 0
 725 00a4 7B69     		ldr	r3, [r7, #20]
 726 00a6 0A21     		movs	r1, #10
 727 00a8 1800     		movs	r0, r3
 728 00aa FFF7FEFF 		bl	__aeabi_uidiv
 729 00ae 0300     		movs	r3, r0
 730 00b0 1B01     		lsls	r3, r3, #4
 731 00b2 3A69     		ldr	r2, [r7, #16]
 732 00b4 1343     		orrs	r3, r2
 733 00b6 3B61     		str	r3, [r7, #16]
1124:Generated_Source\PSoC4/RTC.h ****     retVal |= (tmpVal % 10u) << RTC_YEAR_OFFSET;
 734              		.loc 1 1124 0
 735 00b8 7B69     		ldr	r3, [r7, #20]
 736 00ba 0A21     		movs	r1, #10
 737 00bc 1800     		movs	r0, r3
 738 00be FFF7FEFF 		bl	__aeabi_uidivmod
 739 00c2 0B00     		movs	r3, r1
 740 00c4 1A00     		movs	r2, r3
 741 00c6 3B69     		ldr	r3, [r7, #16]
 742 00c8 1343     		orrs	r3, r2
 743 00ca 3B61     		str	r3, [r7, #16]
1125:Generated_Source\PSoC4/RTC.h **** 
1126:Generated_Source\PSoC4/RTC.h ****     return (retVal);
 744              		.loc 1 1126 0
 745 00cc 3B69     		ldr	r3, [r7, #16]
1127:Generated_Source\PSoC4/RTC.h **** }
 746              		.loc 1 1127 0
 747 00ce 1800     		movs	r0, r3
 748 00d0 BD46     		mov	sp, r7
 749 00d2 06B0     		add	sp, sp, #24
 750              		@ sp needed
 751 00d4 80BD     		pop	{r7, pc}
 752              		.cfi_endproc
 753              	.LFE24:
 754              		.size	RTC_ConstructDate, .-RTC_ConstructDate
ARM GAS  C:\Users\okuntso\AppData\Local\Temp\ccSegaCM.s 			page 34


 755              		.section	.text.RTC_GetDayOfWeek,"ax",%progbits
 756              		.align	2
 757              		.code	16
 758              		.thumb_func
 759              		.type	RTC_GetDayOfWeek, %function
 760              	RTC_GetDayOfWeek:
 761              	.LFB25:
1128:Generated_Source\PSoC4/RTC.h **** 
1129:Generated_Source\PSoC4/RTC.h **** 
1130:Generated_Source\PSoC4/RTC.h **** /*******************************************************************************
1131:Generated_Source\PSoC4/RTC.h **** * Function Name: RTC_GetDayOfWeek
1132:Generated_Source\PSoC4/RTC.h **** ****************************************************************************//**
1133:Generated_Source\PSoC4/RTC.h **** * \internal
1134:Generated_Source\PSoC4/RTC.h **** *
1135:Generated_Source\PSoC4/RTC.h **** * \brief
1136:Generated_Source\PSoC4/RTC.h **** *  Returns a day of the week for a year, month, and day of month that are passed
1137:Generated_Source\PSoC4/RTC.h **** *  through parameters. Zeller's congruence is used to calculate the day of
1138:Generated_Source\PSoC4/RTC.h **** *  the week.
1139:Generated_Source\PSoC4/RTC.h **** *
1140:Generated_Source\PSoC4/RTC.h **** *  For the Georgian calendar, Zeller's congruence is:
1141:Generated_Source\PSoC4/RTC.h **** *  h = (q + [13 * (m + 1)] + K + [K/4] + [J/4] - 2J) mod 7
1142:Generated_Source\PSoC4/RTC.h **** *
1143:Generated_Source\PSoC4/RTC.h **** *  h - The day of the week (0 = Saturday, 1 = Sunday, 2 = Monday, ..., 6 = Friday).
1144:Generated_Source\PSoC4/RTC.h **** *  q - The day of the month.
1145:Generated_Source\PSoC4/RTC.h **** *  m - The month (3 = March, 4 = April, 5 = May, ..., 14 = February)
1146:Generated_Source\PSoC4/RTC.h **** *  K - The year of the century (year \mod 100).
1147:Generated_Source\PSoC4/RTC.h **** *  J - The zero-based century (actually [year/100]) For example, the zero-based
1148:Generated_Source\PSoC4/RTC.h **** *  centuries for 1995 and 2000 are 19 and 20 respectively (not to be
1149:Generated_Source\PSoC4/RTC.h **** *  confused with the common ordinal century enumeration which indicates
1150:Generated_Source\PSoC4/RTC.h **** *  20th for both cases).
1151:Generated_Source\PSoC4/RTC.h **** *
1152:Generated_Source\PSoC4/RTC.h **** * \note In this algorithm January and February are counted as months 13 and 14
1153:Generated_Source\PSoC4/RTC.h **** * of the previous year.
1154:Generated_Source\PSoC4/RTC.h **** *
1155:Generated_Source\PSoC4/RTC.h **** * \param
1156:Generated_Source\PSoC4/RTC.h **** *  day The day of the month(1..31)
1157:Generated_Source\PSoC4/RTC.h **** *
1158:Generated_Source\PSoC4/RTC.h **** * \param
1159:Generated_Source\PSoC4/RTC.h **** *  month The month of the year
1160:Generated_Source\PSoC4/RTC.h **** * RTC_JANUARY <br>
1161:Generated_Source\PSoC4/RTC.h **** * RTC_FEBRUARY <br>
1162:Generated_Source\PSoC4/RTC.h **** * RTC_MARCH <br>
1163:Generated_Source\PSoC4/RTC.h **** * RTC_APRIL <br>
1164:Generated_Source\PSoC4/RTC.h **** * RTC_MAY <br>
1165:Generated_Source\PSoC4/RTC.h **** * RTC_JUNE <br>
1166:Generated_Source\PSoC4/RTC.h **** * RTC_JULY <br>
1167:Generated_Source\PSoC4/RTC.h **** * RTC_AUGUST <br>
1168:Generated_Source\PSoC4/RTC.h **** * RTC_SEPTEMBER <br>
1169:Generated_Source\PSoC4/RTC.h **** * RTC_OCTOBER <br>
1170:Generated_Source\PSoC4/RTC.h **** * RTC_NOVEMBER <br>
1171:Generated_Source\PSoC4/RTC.h **** * RTC_DECEMBER <br>
1172:Generated_Source\PSoC4/RTC.h **** *
1173:Generated_Source\PSoC4/RTC.h **** * \param
1174:Generated_Source\PSoC4/RTC.h **** *  year The year value.
1175:Generated_Source\PSoC4/RTC.h **** *
1176:Generated_Source\PSoC4/RTC.h **** * \return
1177:Generated_Source\PSoC4/RTC.h **** * Returns a day of the week
ARM GAS  C:\Users\okuntso\AppData\Local\Temp\ccSegaCM.s 			page 35


1178:Generated_Source\PSoC4/RTC.h **** * RTC_SUNDAY <br>
1179:Generated_Source\PSoC4/RTC.h **** * RTC_MONDAY <br>
1180:Generated_Source\PSoC4/RTC.h **** * RTC_TUESDAY <br>
1181:Generated_Source\PSoC4/RTC.h **** * RTC_WEDNESDAY <br>
1182:Generated_Source\PSoC4/RTC.h **** * RTC_THURSDAY <br>
1183:Generated_Source\PSoC4/RTC.h **** * RTC_FRIDAY <br>
1184:Generated_Source\PSoC4/RTC.h **** * RTC_SATURDAY <br>
1185:Generated_Source\PSoC4/RTC.h **** *
1186:Generated_Source\PSoC4/RTC.h **** * \endinternal
1187:Generated_Source\PSoC4/RTC.h **** *******************************************************************************/
1188:Generated_Source\PSoC4/RTC.h **** static CY_INLINE uint32 RTC_GetDayOfWeek(uint32 day, uint32 month, uint32 year)
1189:Generated_Source\PSoC4/RTC.h **** {
 762              		.loc 1 1189 0
 763              		.cfi_startproc
 764              		@ args = 0, pretend = 0, frame = 24
 765              		@ frame_needed = 1, uses_anonymous_args = 0
 766 0000 90B5     		push	{r4, r7, lr}
 767              		.cfi_def_cfa_offset 12
 768              		.cfi_offset 4, -12
 769              		.cfi_offset 7, -8
 770              		.cfi_offset 14, -4
 771 0002 87B0     		sub	sp, sp, #28
 772              		.cfi_def_cfa_offset 40
 773 0004 00AF     		add	r7, sp, #0
 774              		.cfi_def_cfa_register 7
 775 0006 F860     		str	r0, [r7, #12]
 776 0008 B960     		str	r1, [r7, #8]
 777 000a 7A60     		str	r2, [r7, #4]
1190:Generated_Source\PSoC4/RTC.h ****     uint32 retVal;
1191:Generated_Source\PSoC4/RTC.h **** 
1192:Generated_Source\PSoC4/RTC.h ****     /* Converts month number from regular convention
1193:Generated_Source\PSoC4/RTC.h ****      * (1=January,..., 12=December) to convention required for this
1194:Generated_Source\PSoC4/RTC.h ****      * algorithm(January and February are counted as months 13 and 14 of
1195:Generated_Source\PSoC4/RTC.h ****      * previous year).
1196:Generated_Source\PSoC4/RTC.h ****     */
1197:Generated_Source\PSoC4/RTC.h ****     if(month < (uint32)RTC_MARCH)
 778              		.loc 1 1197 0
 779 000c BB68     		ldr	r3, [r7, #8]
 780 000e 022B     		cmp	r3, #2
 781 0010 05D8     		bhi	.L34
1198:Generated_Source\PSoC4/RTC.h ****     {
1199:Generated_Source\PSoC4/RTC.h ****         month = 12u + month;
 782              		.loc 1 1199 0
 783 0012 BB68     		ldr	r3, [r7, #8]
 784 0014 0C33     		adds	r3, r3, #12
 785 0016 BB60     		str	r3, [r7, #8]
1200:Generated_Source\PSoC4/RTC.h ****         year--;
 786              		.loc 1 1200 0
 787 0018 7B68     		ldr	r3, [r7, #4]
 788 001a 013B     		subs	r3, r3, #1
 789 001c 7B60     		str	r3, [r7, #4]
 790              	.L34:
1201:Generated_Source\PSoC4/RTC.h ****     }
1202:Generated_Source\PSoC4/RTC.h **** 
1203:Generated_Source\PSoC4/RTC.h ****     /* Calculates Day of Week using Zeller's congruence algorithms.
1204:Generated_Source\PSoC4/RTC.h ****     */
1205:Generated_Source\PSoC4/RTC.h ****     retVal = (day + (((month + 1u) * 26u) / 10u) + year + (year / 4u) + (6u * (year / 100u)) + (yea
ARM GAS  C:\Users\okuntso\AppData\Local\Temp\ccSegaCM.s 			page 36


 791              		.loc 1 1205 0
 792 001e BB68     		ldr	r3, [r7, #8]
 793 0020 0133     		adds	r3, r3, #1
 794 0022 1A22     		movs	r2, #26
 795 0024 5343     		muls	r3, r2
 796 0026 0A21     		movs	r1, #10
 797 0028 1800     		movs	r0, r3
 798 002a FFF7FEFF 		bl	__aeabi_uidiv
 799 002e 0300     		movs	r3, r0
 800 0030 1A00     		movs	r2, r3
 801 0032 FB68     		ldr	r3, [r7, #12]
 802 0034 D218     		adds	r2, r2, r3
 803 0036 7B68     		ldr	r3, [r7, #4]
 804 0038 D218     		adds	r2, r2, r3
 805 003a 7B68     		ldr	r3, [r7, #4]
 806 003c 9B08     		lsrs	r3, r3, #2
 807 003e D418     		adds	r4, r2, r3
 808 0040 7B68     		ldr	r3, [r7, #4]
 809 0042 6421     		movs	r1, #100
 810 0044 1800     		movs	r0, r3
 811 0046 FFF7FEFF 		bl	__aeabi_uidiv
 812 004a 0300     		movs	r3, r0
 813 004c 1A00     		movs	r2, r3
 814 004e 1300     		movs	r3, r2
 815 0050 5B00     		lsls	r3, r3, #1
 816 0052 9B18     		adds	r3, r3, r2
 817 0054 5B00     		lsls	r3, r3, #1
 818 0056 E418     		adds	r4, r4, r3
 819 0058 7A68     		ldr	r2, [r7, #4]
 820 005a C823     		movs	r3, #200
 821 005c 5900     		lsls	r1, r3, #1
 822 005e 1000     		movs	r0, r2
 823 0060 FFF7FEFF 		bl	__aeabi_uidiv
 824 0064 0300     		movs	r3, r0
 825 0066 E318     		adds	r3, r4, r3
 826 0068 0721     		movs	r1, #7
 827 006a 1800     		movs	r0, r3
 828 006c FFF7FEFF 		bl	__aeabi_uidivmod
 829 0070 0B00     		movs	r3, r1
 830 0072 7B61     		str	r3, [r7, #20]
1206:Generated_Source\PSoC4/RTC.h **** 
1207:Generated_Source\PSoC4/RTC.h ****     /* Makes correction for Saturday. Saturday number should be 7 instead of 0. */
1208:Generated_Source\PSoC4/RTC.h ****     if(0u == retVal)
 831              		.loc 1 1208 0
 832 0074 7B69     		ldr	r3, [r7, #20]
 833 0076 002B     		cmp	r3, #0
 834 0078 01D1     		bne	.L35
1209:Generated_Source\PSoC4/RTC.h ****     {
1210:Generated_Source\PSoC4/RTC.h ****         retVal = (uint32)RTC_SATURDAY;
 835              		.loc 1 1210 0
 836 007a 0723     		movs	r3, #7
 837 007c 7B61     		str	r3, [r7, #20]
 838              	.L35:
1211:Generated_Source\PSoC4/RTC.h ****     }
1212:Generated_Source\PSoC4/RTC.h **** 
1213:Generated_Source\PSoC4/RTC.h ****     return(retVal);
 839              		.loc 1 1213 0
ARM GAS  C:\Users\okuntso\AppData\Local\Temp\ccSegaCM.s 			page 37


 840 007e 7B69     		ldr	r3, [r7, #20]
1214:Generated_Source\PSoC4/RTC.h **** }
 841              		.loc 1 1214 0
 842 0080 1800     		movs	r0, r3
 843 0082 BD46     		mov	sp, r7
 844 0084 07B0     		add	sp, sp, #28
 845              		@ sp needed
 846 0086 90BD     		pop	{r4, r7, pc}
 847              		.cfi_endproc
 848              	.LFE25:
 849              		.size	RTC_GetDayOfWeek, .-RTC_GetDayOfWeek
 850              		.comm	RTC_initVar,1,1
 851              		.comm	RTC_unixTime,8,8
 852              		.comm	RTC_currentTimeDate,16,4
 853              		.bss
 854              		.align	2
 855              	RTC_updateTimePeriod:
 856 0000 00000000 		.space	4
 857              		.align	2
 858              	RTC_tickRefOneSec:
 859 0004 00000000 		.space	4
 860              		.comm	RTC_dstStatus,1,1
 861              		.align	2
 862              	RTC_dstTimeOffset:
 863 0008 00000000 		.space	4
 864 000c 00000000 		.align	3
 865              	RTC_unixTimeDstStart:
 866 0010 00000000 		.space	8
 866      00000000 
 867              		.align	3
 868              	RTC_unixTimeDstStop:
 869 0018 00000000 		.space	8
 869      00000000 
 870              		.comm	RTC_dstStartTime,24,4
 871              		.comm	RTC_dstStopTime,24,4
 872              		.comm	RTC_alarmCurStatus,4,4
 873              		.global	RTC_daysBeforeMonthTbl
 874              		.section	.rodata
 875              		.align	2
 876              		.type	RTC_daysBeforeMonthTbl, %object
 877              		.size	RTC_daysBeforeMonthTbl, 24
 878              	RTC_daysBeforeMonthTbl:
 879 0000 0000     		.short	0
 880 0002 1F00     		.short	31
 881 0004 3B00     		.short	59
 882 0006 5A00     		.short	90
 883 0008 7800     		.short	120
 884 000a 9700     		.short	151
 885 000c B500     		.short	181
 886 000e D400     		.short	212
 887 0010 F300     		.short	243
 888 0012 1101     		.short	273
 889 0014 3001     		.short	304
 890 0016 4E01     		.short	334
 891              		.global	RTC_daysInMonthTbl
 892              		.align	2
 893              		.type	RTC_daysInMonthTbl, %object
ARM GAS  C:\Users\okuntso\AppData\Local\Temp\ccSegaCM.s 			page 38


 894              		.size	RTC_daysInMonthTbl, 12
 895              	RTC_daysInMonthTbl:
 896 0018 1F       		.byte	31
 897 0019 1C       		.byte	28
 898 001a 1F       		.byte	31
 899 001b 1E       		.byte	30
 900 001c 1F       		.byte	31
 901 001d 1E       		.byte	30
 902 001e 1F       		.byte	31
 903 001f 1F       		.byte	31
 904 0020 1E       		.byte	30
 905 0021 1F       		.byte	31
 906 0022 1E       		.byte	30
 907 0023 1F       		.byte	31
 908              		.section	.text.RTC_Start,"ax",%progbits
 909              		.align	2
 910              		.global	RTC_Start
 911              		.code	16
 912              		.thumb_func
 913              		.type	RTC_Start, %function
 914              	RTC_Start:
 915              	.LFB26:
 916              		.file 2 "Generated_Source\\PSoC4\\RTC.c"
   1:Generated_Source\PSoC4/RTC.c **** /***************************************************************************//**
   2:Generated_Source\PSoC4/RTC.c **** * \file Name: RTC.c
   3:Generated_Source\PSoC4/RTC.c **** * \version 1.10
   4:Generated_Source\PSoC4/RTC.c **** *
   5:Generated_Source\PSoC4/RTC.c **** * \brief
   6:Generated_Source\PSoC4/RTC.c **** *  This file provides the source code to the API for the RTC_P4 Component.
   7:Generated_Source\PSoC4/RTC.c **** *
   8:Generated_Source\PSoC4/RTC.c **** ********************************************************************************
   9:Generated_Source\PSoC4/RTC.c **** * \copyright
  10:Generated_Source\PSoC4/RTC.c **** * Copyright 2015-2016, Cypress Semiconductor Corporation. All rights reserved.
  11:Generated_Source\PSoC4/RTC.c **** * You may use this file only in accordance with the license, terms, conditions,
  12:Generated_Source\PSoC4/RTC.c **** * disclaimers, and limitations in the end user license agreement accompanying
  13:Generated_Source\PSoC4/RTC.c **** * the software package with which this file was provided.
  14:Generated_Source\PSoC4/RTC.c **** *******************************************************************************/
  15:Generated_Source\PSoC4/RTC.c **** 
  16:Generated_Source\PSoC4/RTC.c **** #include "RTC.h"
  17:Generated_Source\PSoC4/RTC.c **** 
  18:Generated_Source\PSoC4/RTC.c **** uint8  RTC_initVar;
  19:Generated_Source\PSoC4/RTC.c **** 
  20:Generated_Source\PSoC4/RTC.c **** volatile uint64 RTC_unixTime;
  21:Generated_Source\PSoC4/RTC.c **** RTC_DATE_TIME RTC_currentTimeDate;
  22:Generated_Source\PSoC4/RTC.c **** 
  23:Generated_Source\PSoC4/RTC.c **** static uint32 RTC_updateTimePeriod;
  24:Generated_Source\PSoC4/RTC.c **** static uint32 RTC_tickRefOneSec;
  25:Generated_Source\PSoC4/RTC.c **** 
  26:Generated_Source\PSoC4/RTC.c **** uint8  RTC_dstStatus;
  27:Generated_Source\PSoC4/RTC.c **** static uint32 RTC_dstTimeOffset;
  28:Generated_Source\PSoC4/RTC.c **** #if(0u != RTC_INITIAL_DST_STATUS)
  29:Generated_Source\PSoC4/RTC.c ****     static volatile uint64 RTC_unixTimeDstStart;
  30:Generated_Source\PSoC4/RTC.c ****     static volatile uint64 RTC_unixTimeDstStop;
  31:Generated_Source\PSoC4/RTC.c ****     RTC_DST_TIME RTC_dstStartTime;
  32:Generated_Source\PSoC4/RTC.c ****     RTC_DST_TIME RTC_dstStopTime;
  33:Generated_Source\PSoC4/RTC.c **** #endif /* (0u != RTC_INITIAL_DST_STATUS) */
  34:Generated_Source\PSoC4/RTC.c **** 
ARM GAS  C:\Users\okuntso\AppData\Local\Temp\ccSegaCM.s 			page 39


  35:Generated_Source\PSoC4/RTC.c **** uint32 RTC_alarmCurStatus;
  36:Generated_Source\PSoC4/RTC.c **** #if(0u != RTC_INITIAL_ALARM_STATUS)
  37:Generated_Source\PSoC4/RTC.c ****     uint32  RTC_alarmCfgMask = 0xFFu;
  38:Generated_Source\PSoC4/RTC.c ****     static volatile uint64 RTC_unixTimeAlarm;
  39:Generated_Source\PSoC4/RTC.c ****     RTC_DATE_TIME RTC_alarmCfgTimeDate;
  40:Generated_Source\PSoC4/RTC.c ****     void (*RTC_alarmCallbackPtr)(void) = (void *)0;
  41:Generated_Source\PSoC4/RTC.c **** #endif /* (0u != RTC_INITIAL_ALARM_STATUS) */
  42:Generated_Source\PSoC4/RTC.c **** 
  43:Generated_Source\PSoC4/RTC.c **** const uint16 RTC_daysBeforeMonthTbl[RTC_MONTHS_PER_YEAR] = {
  44:Generated_Source\PSoC4/RTC.c ****                                                  (0u), /* JANUARY */
  45:Generated_Source\PSoC4/RTC.c ****                                                  (0u + 31u), /* FEBRUARY */
  46:Generated_Source\PSoC4/RTC.c ****                                                  (0u + 31u + 28u), /* MARCH */
  47:Generated_Source\PSoC4/RTC.c ****                                                  (0u + 31u + 28u + 31u), /* APRIL */
  48:Generated_Source\PSoC4/RTC.c ****                                                  (0u + 31u + 28u + 31u + 30u), /* MAY */
  49:Generated_Source\PSoC4/RTC.c ****                                                  (0u + 31u + 28u + 31u + 30u + 31u), /* JUNE */
  50:Generated_Source\PSoC4/RTC.c ****                                                  (0u + 31u + 28u + 31u + 30u + 31u + 30u), /* JULY 
  51:Generated_Source\PSoC4/RTC.c ****                                                  (0u + 31u + 28u + 31u + 30u + 31u + 30u + 31u), /*
  52:Generated_Source\PSoC4/RTC.c ****                                                  (0u + 31u + 28u + 31u + 30u + 31u + 30u + 31u + 31
  53:Generated_Source\PSoC4/RTC.c ****                                                  (0u + 31u + 28u + 31u + 30u + 31u + 30u + 31u + 31
  54:Generated_Source\PSoC4/RTC.c ****                                                  (0u + 31u + 28u + 31u + 30u + 31u + 30u + 31u + 31
  55:Generated_Source\PSoC4/RTC.c ****                                                  (0u + 31u + 28u + 31u + 30u + 31u + 30u + 31u + 31
  56:Generated_Source\PSoC4/RTC.c **** 
  57:Generated_Source\PSoC4/RTC.c **** const uint8 RTC_daysInMonthTbl[RTC_MONTHS_PER_YEAR] = {RTC_DAYS_IN_JANUARY,
  58:Generated_Source\PSoC4/RTC.c ****                                                                                  RTC_DAYS_IN_FEBRUA
  59:Generated_Source\PSoC4/RTC.c ****                                                                                  RTC_DAYS_IN_MARCH,
  60:Generated_Source\PSoC4/RTC.c ****                                                                                  RTC_DAYS_IN_APRIL,
  61:Generated_Source\PSoC4/RTC.c ****                                                                                  RTC_DAYS_IN_MAY,
  62:Generated_Source\PSoC4/RTC.c ****                                                                                  RTC_DAYS_IN_JUNE,
  63:Generated_Source\PSoC4/RTC.c ****                                                                                  RTC_DAYS_IN_JULY,
  64:Generated_Source\PSoC4/RTC.c ****                                                                                  RTC_DAYS_IN_AUGUST
  65:Generated_Source\PSoC4/RTC.c ****                                                                                  RTC_DAYS_IN_SEPTEM
  66:Generated_Source\PSoC4/RTC.c ****                                                                                  RTC_DAYS_IN_OCTOBE
  67:Generated_Source\PSoC4/RTC.c ****                                                                                  RTC_DAYS_IN_NOVEMB
  68:Generated_Source\PSoC4/RTC.c ****                                                                                  RTC_DAYS_IN_DECEMB
  69:Generated_Source\PSoC4/RTC.c **** 
  70:Generated_Source\PSoC4/RTC.c **** 
  71:Generated_Source\PSoC4/RTC.c **** /*******************************************************************************
  72:Generated_Source\PSoC4/RTC.c **** * Function Name: RTC_Start
  73:Generated_Source\PSoC4/RTC.c **** ****************************************************************************//**
  74:Generated_Source\PSoC4/RTC.c **** *
  75:Generated_Source\PSoC4/RTC.c **** * \brief
  76:Generated_Source\PSoC4/RTC.c **** *  Performs all the required calculations for the time and date registers and
  77:Generated_Source\PSoC4/RTC.c **** *  initializes the component along with the date and time selected in the
  78:Generated_Source\PSoC4/RTC.c **** *  customizer. 
  79:Generated_Source\PSoC4/RTC.c **** *
  80:Generated_Source\PSoC4/RTC.c **** *  If "Implement RTC update manually" is disabled in the customizer
  81:Generated_Source\PSoC4/RTC.c **** *  and if WDT or WCO timer is selected as a source in the clocks configuration 
  82:Generated_Source\PSoC4/RTC.c **** *  window (low frequency clocks tab), attaches RTC_Update API to a corresponding
  83:Generated_Source\PSoC4/RTC.c **** *  WDT's or WCO's ISR callback.
  84:Generated_Source\PSoC4/RTC.c **** *
  85:Generated_Source\PSoC4/RTC.c **** * \note "Implement RTC update manually" checkbox is available for PSoC 4200L / 
  86:Generated_Source\PSoC4/RTC.c **** * PSoC 4100M / PSoC 4200M / PSoC 4100 BLE / PSoC 4200 BLE / PSoC 4000S / PSoC 
  87:Generated_Source\PSoC4/RTC.c **** * 4100S and Analog Coprocessor.
  88:Generated_Source\PSoC4/RTC.c **** *
  89:Generated_Source\PSoC4/RTC.c **** *******************************************************************************/
  90:Generated_Source\PSoC4/RTC.c **** void RTC_Start(void)
  91:Generated_Source\PSoC4/RTC.c **** {
ARM GAS  C:\Users\okuntso\AppData\Local\Temp\ccSegaCM.s 			page 40


 917              		.loc 2 91 0
 918              		.cfi_startproc
 919              		@ args = 0, pretend = 0, frame = 0
 920              		@ frame_needed = 1, uses_anonymous_args = 0
 921 0000 80B5     		push	{r7, lr}
 922              		.cfi_def_cfa_offset 8
 923              		.cfi_offset 7, -8
 924              		.cfi_offset 14, -4
 925 0002 00AF     		add	r7, sp, #0
 926              		.cfi_def_cfa_register 7
  92:Generated_Source\PSoC4/RTC.c ****     if(0u == RTC_initVar)
 927              		.loc 2 92 0
 928 0004 044B     		ldr	r3, .L40
 929 0006 1B78     		ldrb	r3, [r3]
 930 0008 002B     		cmp	r3, #0
 931 000a 01D1     		bne	.L39
  93:Generated_Source\PSoC4/RTC.c ****     {
  94:Generated_Source\PSoC4/RTC.c ****         RTC_Init();
 932              		.loc 2 94 0
 933 000c FFF7FEFF 		bl	RTC_Init
 934              	.L39:
  95:Generated_Source\PSoC4/RTC.c ****     }
  96:Generated_Source\PSoC4/RTC.c **** 
  97:Generated_Source\PSoC4/RTC.c ****     #if defined(CYDEV_RTC_SOURCE_WDT)
  98:Generated_Source\PSoC4/RTC.c ****         #if((0u != CYDEV_WDT_GENERATE_ISR) && (0u == RTC_INITIAL_UPDATE_MODE))
  99:Generated_Source\PSoC4/RTC.c ****             RTC_CySysRtcSetCallback(CYDEV_RTC_SOURCE_WDT);
 100:Generated_Source\PSoC4/RTC.c ****         #endif /* ((0u != CYDEV_WDT_GENERATE_ISR) && (0u == RTC_INITIAL_UPDATE_MODE)) */
 101:Generated_Source\PSoC4/RTC.c ****     #endif /* (CYDEV_RTC_SOURCE_WDT) */
 102:Generated_Source\PSoC4/RTC.c **** }
 935              		.loc 2 102 0
 936 0010 C046     		nop
 937 0012 BD46     		mov	sp, r7
 938              		@ sp needed
 939 0014 80BD     		pop	{r7, pc}
 940              	.L41:
 941 0016 C046     		.align	2
 942              	.L40:
 943 0018 00000000 		.word	RTC_initVar
 944              		.cfi_endproc
 945              	.LFE26:
 946              		.size	RTC_Start, .-RTC_Start
 947              		.section	.text.RTC_Stop,"ax",%progbits
 948              		.align	2
 949              		.global	RTC_Stop
 950              		.code	16
 951              		.thumb_func
 952              		.type	RTC_Stop, %function
 953              	RTC_Stop:
 954              	.LFB27:
 103:Generated_Source\PSoC4/RTC.c **** 
 104:Generated_Source\PSoC4/RTC.c **** 
 105:Generated_Source\PSoC4/RTC.c **** /*******************************************************************************
 106:Generated_Source\PSoC4/RTC.c **** * Function Name: RTC_Stop
 107:Generated_Source\PSoC4/RTC.c **** ****************************************************************************//**
 108:Generated_Source\PSoC4/RTC.c **** *
 109:Generated_Source\PSoC4/RTC.c **** * \brief
 110:Generated_Source\PSoC4/RTC.c **** *  Stops the time and date updates.
ARM GAS  C:\Users\okuntso\AppData\Local\Temp\ccSegaCM.s 			page 41


 111:Generated_Source\PSoC4/RTC.c **** *
 112:Generated_Source\PSoC4/RTC.c **** *******************************************************************************/
 113:Generated_Source\PSoC4/RTC.c **** void RTC_Stop(void)
 114:Generated_Source\PSoC4/RTC.c **** {
 955              		.loc 2 114 0
 956              		.cfi_startproc
 957              		@ args = 0, pretend = 0, frame = 0
 958              		@ frame_needed = 1, uses_anonymous_args = 0
 959 0000 80B5     		push	{r7, lr}
 960              		.cfi_def_cfa_offset 8
 961              		.cfi_offset 7, -8
 962              		.cfi_offset 14, -4
 963 0002 00AF     		add	r7, sp, #0
 964              		.cfi_def_cfa_register 7
 115:Generated_Source\PSoC4/RTC.c ****     #if defined(CYDEV_RTC_SOURCE_WDT)
 116:Generated_Source\PSoC4/RTC.c ****         #if((0u != CYDEV_WDT_GENERATE_ISR) && (0u == RTC_INITIAL_UPDATE_MODE))
 117:Generated_Source\PSoC4/RTC.c ****             RTC_CySysRtcResetCallback(CYDEV_RTC_SOURCE_WDT);
 118:Generated_Source\PSoC4/RTC.c ****         #endif /* ((0u != CYDEV_WDT_GENERATE_ISR) && (0u == RTC_INITIAL_UPDATE_MODE)) */
 119:Generated_Source\PSoC4/RTC.c ****     #endif /* (CYDEV_RTC_SOURCE_WDT) */
 120:Generated_Source\PSoC4/RTC.c **** }
 965              		.loc 2 120 0
 966 0004 C046     		nop
 967 0006 BD46     		mov	sp, r7
 968              		@ sp needed
 969 0008 80BD     		pop	{r7, pc}
 970              		.cfi_endproc
 971              	.LFE27:
 972              		.size	RTC_Stop, .-RTC_Stop
 973              		.section	.text.RTC_Init,"ax",%progbits
 974              		.align	2
 975              		.global	RTC_Init
 976              		.code	16
 977              		.thumb_func
 978              		.type	RTC_Init, %function
 979              	RTC_Init:
 980              	.LFB28:
 121:Generated_Source\PSoC4/RTC.c **** 
 122:Generated_Source\PSoC4/RTC.c **** 
 123:Generated_Source\PSoC4/RTC.c **** /*******************************************************************************
 124:Generated_Source\PSoC4/RTC.c **** * Function Name: RTC_Init
 125:Generated_Source\PSoC4/RTC.c **** ****************************************************************************//**
 126:Generated_Source\PSoC4/RTC.c **** *
 127:Generated_Source\PSoC4/RTC.c **** * \brief
 128:Generated_Source\PSoC4/RTC.c **** *  Initializes or restores the component according to the customizer Configure
 129:Generated_Source\PSoC4/RTC.c **** *  dialog settings. 
 130:Generated_Source\PSoC4/RTC.c **** *
 131:Generated_Source\PSoC4/RTC.c **** * It is not necessary to call RTC_Init() because
 132:Generated_Source\PSoC4/RTC.c **** *  RTC_Start() API calls this function and is the preferred method to begin
 133:Generated_Source\PSoC4/RTC.c **** *  component operation.
 134:Generated_Source\PSoC4/RTC.c **** *
 135:Generated_Source\PSoC4/RTC.c **** *  All registers are set to values according to the customizer Configure
 136:Generated_Source\PSoC4/RTC.c **** *  dialog. The default date value, if not set by the user before this function 
 137:Generated_Source\PSoC4/RTC.c **** *  call, is 12:00:00 AM January 1, 2000.
 138:Generated_Source\PSoC4/RTC.c **** *
 139:Generated_Source\PSoC4/RTC.c **** *******************************************************************************/
 140:Generated_Source\PSoC4/RTC.c **** void RTC_Init(void)
 141:Generated_Source\PSoC4/RTC.c **** {
ARM GAS  C:\Users\okuntso\AppData\Local\Temp\ccSegaCM.s 			page 42


 981              		.loc 2 141 0
 982              		.cfi_startproc
 983              		@ args = 0, pretend = 0, frame = 32
 984              		@ frame_needed = 1, uses_anonymous_args = 0
 985 0000 90B5     		push	{r4, r7, lr}
 986              		.cfi_def_cfa_offset 12
 987              		.cfi_offset 4, -12
 988              		.cfi_offset 7, -8
 989              		.cfi_offset 14, -4
 990 0002 8BB0     		sub	sp, sp, #44
 991              		.cfi_def_cfa_offset 56
 992 0004 02AF     		add	r7, sp, #8
 993              		.cfi_def_cfa 7, 48
 142:Generated_Source\PSoC4/RTC.c ****     uint32 tmpDate;
 143:Generated_Source\PSoC4/RTC.c ****     uint32 tmpTime;
 144:Generated_Source\PSoC4/RTC.c **** 
 145:Generated_Source\PSoC4/RTC.c ****     #if(0u != RTC_INITIAL_DST_STATUS)
 146:Generated_Source\PSoC4/RTC.c ****         RTC_DST_TIME dstTimeTmp;
 147:Generated_Source\PSoC4/RTC.c ****     #endif /* (0u != RTC_INITIAL_DST_STATUS) */
 148:Generated_Source\PSoC4/RTC.c **** 
 149:Generated_Source\PSoC4/RTC.c ****     RTC_initVar = 1u;
 994              		.loc 2 149 0
 995 0006 474B     		ldr	r3, .L49
 996 0008 0122     		movs	r2, #1
 997 000a 1A70     		strb	r2, [r3]
 150:Generated_Source\PSoC4/RTC.c ****     RTC_dstTimeOffset = 0uL;
 998              		.loc 2 150 0
 999 000c 464B     		ldr	r3, .L49+4
 1000 000e 0022     		movs	r2, #0
 1001 0010 1A60     		str	r2, [r3]
 151:Generated_Source\PSoC4/RTC.c ****     RTC_currentTimeDate.status = 0uL;
 1002              		.loc 2 151 0
 1003 0012 464B     		ldr	r3, .L49+8
 1004 0014 0022     		movs	r2, #0
 1005 0016 DA60     		str	r2, [r3, #12]
 152:Generated_Source\PSoC4/RTC.c **** 
 153:Generated_Source\PSoC4/RTC.c ****     RTC_dstStatus      = RTC_INITIAL_DST_STATUS;
 1006              		.loc 2 153 0
 1007 0018 454B     		ldr	r3, .L49+12
 1008 001a 0122     		movs	r2, #1
 1009 001c 1A70     		strb	r2, [r3]
 154:Generated_Source\PSoC4/RTC.c ****     RTC_alarmCurStatus = RTC_INITIAL_ALARM_STATUS;
 1010              		.loc 2 154 0
 1011 001e 454B     		ldr	r3, .L49+16
 1012 0020 0022     		movs	r2, #0
 1013 0022 1A60     		str	r2, [r3]
 155:Generated_Source\PSoC4/RTC.c **** 
 156:Generated_Source\PSoC4/RTC.c ****     tmpDate = RTC_ConstructDate(RTC_INITIAL_MONTH,
 1014              		.loc 2 156 0
 1015 0024 444B     		ldr	r3, .L49+20
 1016 0026 1A00     		movs	r2, r3
 1017 0028 0121     		movs	r1, #1
 1018 002a 0120     		movs	r0, #1
 1019 002c FFF7FEFF 		bl	RTC_ConstructDate
 1020 0030 0300     		movs	r3, r0
 1021 0032 FB61     		str	r3, [r7, #28]
 157:Generated_Source\PSoC4/RTC.c ****                                           RTC_INITIAL_DAY,
ARM GAS  C:\Users\okuntso\AppData\Local\Temp\ccSegaCM.s 			page 43


 158:Generated_Source\PSoC4/RTC.c ****                                           RTC_INITIAL_YEAR);
 159:Generated_Source\PSoC4/RTC.c **** 
 160:Generated_Source\PSoC4/RTC.c ****     tmpTime = RTC_ConstructTime(RTC_INITIAL_TIME_FORMAT,
 1022              		.loc 2 160 0
 1023 0034 0023     		movs	r3, #0
 1024 0036 0093     		str	r3, [sp]
 1025 0038 0023     		movs	r3, #0
 1026 003a 0022     		movs	r2, #0
 1027 003c 0021     		movs	r1, #0
 1028 003e 0020     		movs	r0, #0
 1029 0040 FFF7FEFF 		bl	RTC_ConstructTime
 1030 0044 0300     		movs	r3, r0
 1031 0046 BB61     		str	r3, [r7, #24]
 161:Generated_Source\PSoC4/RTC.c ****                                           0u,
 162:Generated_Source\PSoC4/RTC.c ****                                           RTC_INITIAL_HOUR,
 163:Generated_Source\PSoC4/RTC.c ****                                           RTC_INITIAL_MINUTE,
 164:Generated_Source\PSoC4/RTC.c ****                                           RTC_INITIAL_SECOND);
 165:Generated_Source\PSoC4/RTC.c **** 
 166:Generated_Source\PSoC4/RTC.c ****     #if(0u != RTC_INITIAL_DST_STATUS)
 167:Generated_Source\PSoC4/RTC.c ****         RTC_dstStatus = 0u;
 1032              		.loc 2 167 0
 1033 0048 394B     		ldr	r3, .L49+12
 1034 004a 0022     		movs	r2, #0
 1035 004c 1A70     		strb	r2, [r3]
 168:Generated_Source\PSoC4/RTC.c ****         RTC_currentTimeDate.status = (1uL << RTC_STATUS_DST_OFFSET);
 1036              		.loc 2 168 0
 1037 004e 374B     		ldr	r3, .L49+8
 1038 0050 0222     		movs	r2, #2
 1039 0052 DA60     		str	r2, [r3, #12]
 169:Generated_Source\PSoC4/RTC.c **** 
 170:Generated_Source\PSoC4/RTC.c ****         dstTimeTmp.timeFormat    = RTC_INITIAL_DST_DATE_TYPE;
 1040              		.loc 2 170 0
 1041 0054 3B00     		movs	r3, r7
 1042 0056 0122     		movs	r2, #1
 1043 0058 1A75     		strb	r2, [r3, #20]
 171:Generated_Source\PSoC4/RTC.c ****         dstTimeTmp.hour          = RTC_INITIAL_DST_START_HRS;
 1044              		.loc 2 171 0
 1045 005a 3B00     		movs	r3, r7
 1046 005c 0322     		movs	r2, #3
 1047 005e 1A60     		str	r2, [r3]
 172:Generated_Source\PSoC4/RTC.c ****         dstTimeTmp.dayOfWeek     = RTC_INITIAL_DST_START_DOW;
 1048              		.loc 2 172 0
 1049 0060 3B00     		movs	r3, r7
 1050 0062 0122     		movs	r2, #1
 1051 0064 5A60     		str	r2, [r3, #4]
 173:Generated_Source\PSoC4/RTC.c ****         dstTimeTmp.weekOfMonth   = RTC_INITIAL_DST_START_WOM;
 1052              		.loc 2 173 0
 1053 0066 3B00     		movs	r3, r7
 1054 0068 0622     		movs	r2, #6
 1055 006a DA60     		str	r2, [r3, #12]
 174:Generated_Source\PSoC4/RTC.c ****         dstTimeTmp.dayOfMonth    = RTC_INITIAL_DST_START_DOM;
 1056              		.loc 2 174 0
 1057 006c 3B00     		movs	r3, r7
 1058 006e 1622     		movs	r2, #22
 1059 0070 9A60     		str	r2, [r3, #8]
 175:Generated_Source\PSoC4/RTC.c ****         dstTimeTmp.month         = RTC_INITIAL_DST_START_MONTH;
 1060              		.loc 2 175 0
ARM GAS  C:\Users\okuntso\AppData\Local\Temp\ccSegaCM.s 			page 44


 1061 0072 3B00     		movs	r3, r7
 1062 0074 0322     		movs	r2, #3
 1063 0076 1A61     		str	r2, [r3, #16]
 176:Generated_Source\PSoC4/RTC.c ****         RTC_SetDSTStartTime(&dstTimeTmp, (RTC_DST_DATETYPE_ENUM)RTC_INITIAL_DST_DATE_TYPE);
 1064              		.loc 2 176 0
 1065 0078 3B00     		movs	r3, r7
 1066 007a 0121     		movs	r1, #1
 1067 007c 1800     		movs	r0, r3
 1068 007e FFF7FEFF 		bl	RTC_SetDSTStartTime
 177:Generated_Source\PSoC4/RTC.c **** 
 178:Generated_Source\PSoC4/RTC.c ****         dstTimeTmp.timeFormat    = RTC_INITIAL_DST_DATE_TYPE;
 1069              		.loc 2 178 0
 1070 0082 3B00     		movs	r3, r7
 1071 0084 0122     		movs	r2, #1
 1072 0086 1A75     		strb	r2, [r3, #20]
 179:Generated_Source\PSoC4/RTC.c ****         dstTimeTmp.hour          = RTC_INITIAL_DST_STOP_HRS;
 1073              		.loc 2 179 0
 1074 0088 3B00     		movs	r3, r7
 1075 008a 0322     		movs	r2, #3
 1076 008c 1A60     		str	r2, [r3]
 180:Generated_Source\PSoC4/RTC.c ****         dstTimeTmp.dayOfWeek     = RTC_INITIAL_DST_STOP_DOW;
 1077              		.loc 2 180 0
 1078 008e 3B00     		movs	r3, r7
 1079 0090 0122     		movs	r2, #1
 1080 0092 5A60     		str	r2, [r3, #4]
 181:Generated_Source\PSoC4/RTC.c ****         dstTimeTmp.weekOfMonth   = RTC_INITIAL_DST_STOP_WOM;
 1081              		.loc 2 181 0
 1082 0094 3B00     		movs	r3, r7
 1083 0096 0622     		movs	r2, #6
 1084 0098 DA60     		str	r2, [r3, #12]
 182:Generated_Source\PSoC4/RTC.c ****         dstTimeTmp.dayOfMonth    = RTC_INITIAL_DST_STOP_DOM;
 1085              		.loc 2 182 0
 1086 009a 3B00     		movs	r3, r7
 1087 009c 1622     		movs	r2, #22
 1088 009e 9A60     		str	r2, [r3, #8]
 183:Generated_Source\PSoC4/RTC.c ****         dstTimeTmp.month         = RTC_INITIAL_DST_STOP_MONTH;
 1089              		.loc 2 183 0
 1090 00a0 3B00     		movs	r3, r7
 1091 00a2 0A22     		movs	r2, #10
 1092 00a4 1A61     		str	r2, [r3, #16]
 184:Generated_Source\PSoC4/RTC.c ****         RTC_SetDSTStopTime(&dstTimeTmp, (RTC_DST_DATETYPE_ENUM)RTC_INITIAL_DST_DATE_TYPE);
 1093              		.loc 2 184 0
 1094 00a6 3B00     		movs	r3, r7
 1095 00a8 0121     		movs	r1, #1
 1096 00aa 1800     		movs	r0, r3
 1097 00ac FFF7FEFF 		bl	RTC_SetDSTStopTime
 185:Generated_Source\PSoC4/RTC.c **** 
 186:Generated_Source\PSoC4/RTC.c ****         RTC_unixTimeDstStart = RTC_GetDstUnixTime(&RTC_dstStartTime);
 1098              		.loc 2 186 0
 1099 00b0 224B     		ldr	r3, .L49+24
 1100 00b2 1800     		movs	r0, r3
 1101 00b4 FFF7FEFF 		bl	RTC_GetDstUnixTime
 1102 00b8 0300     		movs	r3, r0
 1103 00ba 0C00     		movs	r4, r1
 1104 00bc 204A     		ldr	r2, .L49+28
 1105 00be 1360     		str	r3, [r2]
 1106 00c0 5460     		str	r4, [r2, #4]
ARM GAS  C:\Users\okuntso\AppData\Local\Temp\ccSegaCM.s 			page 45


 187:Generated_Source\PSoC4/RTC.c ****         RTC_unixTimeDstStop  = RTC_GetDstUnixTime(&RTC_dstStopTime);
 1107              		.loc 2 187 0
 1108 00c2 204B     		ldr	r3, .L49+32
 1109 00c4 1800     		movs	r0, r3
 1110 00c6 FFF7FEFF 		bl	RTC_GetDstUnixTime
 1111 00ca 0300     		movs	r3, r0
 1112 00cc 0C00     		movs	r4, r1
 1113 00ce 1E4A     		ldr	r2, .L49+36
 1114 00d0 1360     		str	r3, [r2]
 1115 00d2 5460     		str	r4, [r2, #4]
 188:Generated_Source\PSoC4/RTC.c **** 
 189:Generated_Source\PSoC4/RTC.c ****         if((RTC_unixTime >= RTC_unixTimeDstStart) &&
 1116              		.loc 2 189 0
 1117 00d4 1D4B     		ldr	r3, .L49+40
 1118 00d6 5C68     		ldr	r4, [r3, #4]
 1119 00d8 1B68     		ldr	r3, [r3]
 1120 00da 194A     		ldr	r2, .L49+28
 1121 00dc 1168     		ldr	r1, [r2]
 1122 00de 5268     		ldr	r2, [r2, #4]
 1123 00e0 A242     		cmp	r2, r4
 1124 00e2 14D8     		bhi	.L44
 1125 00e4 01D1     		bne	.L47
 1126 00e6 9942     		cmp	r1, r3
 1127 00e8 11D8     		bhi	.L44
 1128              	.L47:
 190:Generated_Source\PSoC4/RTC.c ****            (RTC_unixTime <= RTC_unixTimeDstStop))
 1129              		.loc 2 190 0 discriminator 1
 1130 00ea 184B     		ldr	r3, .L49+40
 1131 00ec 1968     		ldr	r1, [r3]
 1132 00ee 5A68     		ldr	r2, [r3, #4]
 1133 00f0 154B     		ldr	r3, .L49+36
 1134 00f2 5C68     		ldr	r4, [r3, #4]
 1135 00f4 1B68     		ldr	r3, [r3]
 189:Generated_Source\PSoC4/RTC.c ****            (RTC_unixTime <= RTC_unixTimeDstStop))
 1136              		.loc 2 189 0 discriminator 1
 1137 00f6 A242     		cmp	r2, r4
 1138 00f8 09D8     		bhi	.L44
 1139 00fa 01D1     		bne	.L48
 1140 00fc 9942     		cmp	r1, r3
 1141 00fe 06D8     		bhi	.L44
 1142              	.L48:
 191:Generated_Source\PSoC4/RTC.c ****         {
 192:Generated_Source\PSoC4/RTC.c ****             RTC_dstStatus = 1u;
 1143              		.loc 2 192 0
 1144 0100 0B4B     		ldr	r3, .L49+12
 1145 0102 0122     		movs	r2, #1
 1146 0104 1A70     		strb	r2, [r3]
 193:Generated_Source\PSoC4/RTC.c ****             RTC_dstTimeOffset = RTC_SECONDS_PER_HOUR;
 1147              		.loc 2 193 0
 1148 0106 084B     		ldr	r3, .L49+4
 1149 0108 E122     		movs	r2, #225
 1150 010a 1201     		lsls	r2, r2, #4
 1151 010c 1A60     		str	r2, [r3]
 1152              	.L44:
 194:Generated_Source\PSoC4/RTC.c ****         }
 195:Generated_Source\PSoC4/RTC.c ****     #endif /* (0u != RTC_INITIAL_DST_STATUS) */
 196:Generated_Source\PSoC4/RTC.c **** 
ARM GAS  C:\Users\okuntso\AppData\Local\Temp\ccSegaCM.s 			page 46


 197:Generated_Source\PSoC4/RTC.c ****     RTC_SetDateAndTime(tmpTime, tmpDate);
 1153              		.loc 2 197 0
 1154 010e FA69     		ldr	r2, [r7, #28]
 1155 0110 BB69     		ldr	r3, [r7, #24]
 1156 0112 1100     		movs	r1, r2
 1157 0114 1800     		movs	r0, r3
 1158 0116 FFF7FEFF 		bl	RTC_SetDateAndTime
 198:Generated_Source\PSoC4/RTC.c **** }
 1159              		.loc 2 198 0
 1160 011a C046     		nop
 1161 011c BD46     		mov	sp, r7
 1162 011e 09B0     		add	sp, sp, #36
 1163              		@ sp needed
 1164 0120 90BD     		pop	{r4, r7, pc}
 1165              	.L50:
 1166 0122 C046     		.align	2
 1167              	.L49:
 1168 0124 00000000 		.word	RTC_initVar
 1169 0128 08000000 		.word	RTC_dstTimeOffset
 1170 012c 00000000 		.word	RTC_currentTimeDate
 1171 0130 00000000 		.word	RTC_dstStatus
 1172 0134 00000000 		.word	RTC_alarmCurStatus
 1173 0138 B2070000 		.word	1970
 1174 013c 00000000 		.word	RTC_dstStartTime
 1175 0140 10000000 		.word	RTC_unixTimeDstStart
 1176 0144 00000000 		.word	RTC_dstStopTime
 1177 0148 18000000 		.word	RTC_unixTimeDstStop
 1178 014c 00000000 		.word	RTC_unixTime
 1179              		.cfi_endproc
 1180              	.LFE28:
 1181              		.size	RTC_Init, .-RTC_Init
 1182              		.section	.text.RTC_SetDateAndTime,"ax",%progbits
 1183              		.align	2
 1184              		.global	RTC_SetDateAndTime
 1185              		.code	16
 1186              		.thumb_func
 1187              		.type	RTC_SetDateAndTime, %function
 1188              	RTC_SetDateAndTime:
 1189              	.LFB29:
 199:Generated_Source\PSoC4/RTC.c **** 
 200:Generated_Source\PSoC4/RTC.c **** 
 201:Generated_Source\PSoC4/RTC.c **** /*******************************************************************************
 202:Generated_Source\PSoC4/RTC.c **** * Function Name: RTC_SetDateAndTime
 203:Generated_Source\PSoC4/RTC.c **** ****************************************************************************//**
 204:Generated_Source\PSoC4/RTC.c **** *
 205:Generated_Source\PSoC4/RTC.c **** * \brief
 206:Generated_Source\PSoC4/RTC.c **** * Sets the time and date values as the current time and date.
 207:Generated_Source\PSoC4/RTC.c **** *
 208:Generated_Source\PSoC4/RTC.c **** * \param
 209:Generated_Source\PSoC4/RTC.c **** * inputTime The time value in the HH:MM:SS format. <br>
 210:Generated_Source\PSoC4/RTC.c **** * "HH"- The 2nd 8-bit MSB that denotes the hour value.
 211:Generated_Source\PSoC4/RTC.c **** * (0-23 for the 24-hour format and 1-12 for the 12-hour format. The MSB bit of the
 212:Generated_Source\PSoC4/RTC.c **** * value denotes AM/PM for the 12-hour format (0-AM and 1-PM). <br>
 213:Generated_Source\PSoC4/RTC.c **** * "MM" - The 3nd 8-bit MSB denotes the minutes value, the valid entries -> 0-59.<br>
 214:Generated_Source\PSoC4/RTC.c **** * "SS" - The 8-bit LSB denotes the seconds value, the valid entries -> 0-59.
 215:Generated_Source\PSoC4/RTC.c **** * Each byte is in the BCD format. Invalid time entries retain the
 216:Generated_Source\PSoC4/RTC.c **** * previously set values.
ARM GAS  C:\Users\okuntso\AppData\Local\Temp\ccSegaCM.s 			page 47


 217:Generated_Source\PSoC4/RTC.c **** *
 218:Generated_Source\PSoC4/RTC.c **** * \param
 219:Generated_Source\PSoC4/RTC.c **** *  inputDate The date value in the format selected in the customizer.
 220:Generated_Source\PSoC4/RTC.c **** * For the MM/DD/YYYY format: <br>
 221:Generated_Source\PSoC4/RTC.c **** * "MM" - The 8-bit MSB denotes the month value in BCD, the valid entries -> 1-12<br>
 222:Generated_Source\PSoC4/RTC.c **** * "DD" - The 2nd 8-bit MSB denotes a day of the month value in BCD, the valid
 223:Generated_Source\PSoC4/RTC.c **** * entries -> 1-31.<br>
 224:Generated_Source\PSoC4/RTC.c **** * "YYYY" - The 16-bit LSB denotes a year in BCD, the valid entries -> 1900-2200.
 225:Generated_Source\PSoC4/RTC.c **** * Each byte is in the BCD format. Invalid date entries retain the
 226:Generated_Source\PSoC4/RTC.c **** * previously set values.
 227:Generated_Source\PSoC4/RTC.c **** *
 228:Generated_Source\PSoC4/RTC.c **** *******************************************************************************/
 229:Generated_Source\PSoC4/RTC.c **** void RTC_SetDateAndTime(uint32 inputTime, uint32 inputDate)
 230:Generated_Source\PSoC4/RTC.c **** {
 1190              		.loc 2 230 0
 1191              		.cfi_startproc
 1192              		@ args = 0, pretend = 0, frame = 24
 1193              		@ frame_needed = 1, uses_anonymous_args = 0
 1194 0000 F0B5     		push	{r4, r5, r6, r7, lr}
 1195              		.cfi_def_cfa_offset 20
 1196              		.cfi_offset 4, -20
 1197              		.cfi_offset 5, -16
 1198              		.cfi_offset 6, -12
 1199              		.cfi_offset 7, -8
 1200              		.cfi_offset 14, -4
 1201 0002 87B0     		sub	sp, sp, #28
 1202              		.cfi_def_cfa_offset 48
 1203 0004 00AF     		add	r7, sp, #0
 1204              		.cfi_def_cfa_register 7
 1205 0006 7860     		str	r0, [r7, #4]
 1206 0008 3960     		str	r1, [r7]
 231:Generated_Source\PSoC4/RTC.c ****     uint32 tmpDay;
 232:Generated_Source\PSoC4/RTC.c ****     uint32 tmpMonth;
 233:Generated_Source\PSoC4/RTC.c ****     uint32 tmpYear;
 234:Generated_Source\PSoC4/RTC.c **** 
 235:Generated_Source\PSoC4/RTC.c ****     tmpDay   = RTC_GetDay(inputDate);
 1207              		.loc 2 235 0
 1208 000a 3B68     		ldr	r3, [r7]
 1209 000c 1800     		movs	r0, r3
 1210 000e FFF7FEFF 		bl	RTC_GetDay
 1211 0012 0300     		movs	r3, r0
 1212 0014 7B61     		str	r3, [r7, #20]
 236:Generated_Source\PSoC4/RTC.c ****     tmpMonth = RTC_GetMonth(inputDate);
 1213              		.loc 2 236 0
 1214 0016 3B68     		ldr	r3, [r7]
 1215 0018 1800     		movs	r0, r3
 1216 001a FFF7FEFF 		bl	RTC_GetMonth
 1217 001e 0300     		movs	r3, r0
 1218 0020 3B61     		str	r3, [r7, #16]
 237:Generated_Source\PSoC4/RTC.c ****     tmpYear  = RTC_GetYear(inputDate);
 1219              		.loc 2 237 0
 1220 0022 3B68     		ldr	r3, [r7]
 1221 0024 1800     		movs	r0, r3
 1222 0026 FFF7FEFF 		bl	RTC_GetYear
 1223 002a 0300     		movs	r3, r0
 1224 002c FB60     		str	r3, [r7, #12]
 238:Generated_Source\PSoC4/RTC.c **** 
ARM GAS  C:\Users\okuntso\AppData\Local\Temp\ccSegaCM.s 			page 48


 239:Generated_Source\PSoC4/RTC.c ****     RTC_unixTime = RTC_DateTimeToUnix(inputDate, inputTime);
 1225              		.loc 2 239 0
 1226 002e 7A68     		ldr	r2, [r7, #4]
 1227 0030 3B68     		ldr	r3, [r7]
 1228 0032 1100     		movs	r1, r2
 1229 0034 1800     		movs	r0, r3
 1230 0036 FFF7FEFF 		bl	RTC_DateTimeToUnix
 1231 003a 0300     		movs	r3, r0
 1232 003c 0C00     		movs	r4, r1
 1233 003e 2C4A     		ldr	r2, .L58
 1234 0040 1360     		str	r3, [r2]
 1235 0042 5460     		str	r4, [r2, #4]
 240:Generated_Source\PSoC4/RTC.c ****     RTC_currentTimeDate.date = inputDate;
 1236              		.loc 2 240 0
 1237 0044 2B4B     		ldr	r3, .L58+4
 1238 0046 3A68     		ldr	r2, [r7]
 1239 0048 5A60     		str	r2, [r3, #4]
 241:Generated_Source\PSoC4/RTC.c ****     RTC_currentTimeDate.time = inputTime;
 1240              		.loc 2 241 0
 1241 004a 2A4B     		ldr	r3, .L58+4
 1242 004c 7A68     		ldr	r2, [r7, #4]
 1243 004e 1A60     		str	r2, [r3]
 242:Generated_Source\PSoC4/RTC.c ****     RTC_currentTimeDate.dayOfWeek = RTC_GetDayOfWeek(tmpDay, tmpMonth, tmpYear);
 1244              		.loc 2 242 0
 1245 0050 FA68     		ldr	r2, [r7, #12]
 1246 0052 3969     		ldr	r1, [r7, #16]
 1247 0054 7B69     		ldr	r3, [r7, #20]
 1248 0056 1800     		movs	r0, r3
 1249 0058 FFF7FEFF 		bl	RTC_GetDayOfWeek
 1250 005c 0200     		movs	r2, r0
 1251 005e 254B     		ldr	r3, .L58+4
 1252 0060 9A60     		str	r2, [r3, #8]
 243:Generated_Source\PSoC4/RTC.c **** 
 244:Generated_Source\PSoC4/RTC.c ****     #if(0u != RTC_INITIAL_DST_STATUS)
 245:Generated_Source\PSoC4/RTC.c ****         RTC_unixTimeDstStart = RTC_GetDstUnixTime(&RTC_dstStartTime);
 1253              		.loc 2 245 0
 1254 0062 254B     		ldr	r3, .L58+8
 1255 0064 1800     		movs	r0, r3
 1256 0066 FFF7FEFF 		bl	RTC_GetDstUnixTime
 1257 006a 0300     		movs	r3, r0
 1258 006c 0C00     		movs	r4, r1
 1259 006e 234A     		ldr	r2, .L58+12
 1260 0070 1360     		str	r3, [r2]
 1261 0072 5460     		str	r4, [r2, #4]
 246:Generated_Source\PSoC4/RTC.c ****         RTC_unixTimeDstStop  = RTC_GetDstUnixTime(&RTC_dstStopTime);
 1262              		.loc 2 246 0
 1263 0074 224B     		ldr	r3, .L58+16
 1264 0076 1800     		movs	r0, r3
 1265 0078 FFF7FEFF 		bl	RTC_GetDstUnixTime
 1266 007c 0300     		movs	r3, r0
 1267 007e 0C00     		movs	r4, r1
 1268 0080 204A     		ldr	r2, .L58+20
 1269 0082 1360     		str	r3, [r2]
 1270 0084 5460     		str	r4, [r2, #4]
 247:Generated_Source\PSoC4/RTC.c **** 
 248:Generated_Source\PSoC4/RTC.c ****         if((RTC_unixTime >= RTC_unixTimeDstStart) &&
 1271              		.loc 2 248 0
ARM GAS  C:\Users\okuntso\AppData\Local\Temp\ccSegaCM.s 			page 49


 1272 0086 1A4B     		ldr	r3, .L58
 1273 0088 5C68     		ldr	r4, [r3, #4]
 1274 008a 1B68     		ldr	r3, [r3]
 1275 008c 1B4A     		ldr	r2, .L58+12
 1276 008e 1168     		ldr	r1, [r2]
 1277 0090 5268     		ldr	r2, [r2, #4]
 1278 0092 A242     		cmp	r2, r4
 1279 0094 22D8     		bhi	.L52
 1280 0096 01D1     		bne	.L56
 1281 0098 9942     		cmp	r1, r3
 1282 009a 1FD8     		bhi	.L52
 1283              	.L56:
 249:Generated_Source\PSoC4/RTC.c ****            (RTC_unixTime <= RTC_unixTimeDstStop))
 1284              		.loc 2 249 0 discriminator 1
 1285 009c 144B     		ldr	r3, .L58
 1286 009e 1968     		ldr	r1, [r3]
 1287 00a0 5A68     		ldr	r2, [r3, #4]
 1288 00a2 184B     		ldr	r3, .L58+20
 1289 00a4 5C68     		ldr	r4, [r3, #4]
 1290 00a6 1B68     		ldr	r3, [r3]
 248:Generated_Source\PSoC4/RTC.c ****            (RTC_unixTime <= RTC_unixTimeDstStop))
 1291              		.loc 2 248 0 discriminator 1
 1292 00a8 A242     		cmp	r2, r4
 1293 00aa 17D8     		bhi	.L52
 1294 00ac 01D1     		bne	.L57
 1295 00ae 9942     		cmp	r1, r3
 1296 00b0 14D8     		bhi	.L52
 1297              	.L57:
 250:Generated_Source\PSoC4/RTC.c ****         {
 251:Generated_Source\PSoC4/RTC.c ****             RTC_dstStatus = 1u;
 1298              		.loc 2 251 0
 1299 00b2 154B     		ldr	r3, .L58+24
 1300 00b4 0122     		movs	r2, #1
 1301 00b6 1A70     		strb	r2, [r3]
 252:Generated_Source\PSoC4/RTC.c ****             RTC_dstTimeOffset = RTC_SECONDS_PER_HOUR;
 1302              		.loc 2 252 0
 1303 00b8 144B     		ldr	r3, .L58+28
 1304 00ba E122     		movs	r2, #225
 1305 00bc 1201     		lsls	r2, r2, #4
 1306 00be 1A60     		str	r2, [r3]
 253:Generated_Source\PSoC4/RTC.c ****             RTC_unixTime -= RTC_dstTimeOffset;
 1307              		.loc 2 253 0
 1308 00c0 0B4B     		ldr	r3, .L58
 1309 00c2 5C68     		ldr	r4, [r3, #4]
 1310 00c4 1B68     		ldr	r3, [r3]
 1311 00c6 114A     		ldr	r2, .L58+28
 1312 00c8 1268     		ldr	r2, [r2]
 1313 00ca 1500     		movs	r5, r2
 1314 00cc 0022     		movs	r2, #0
 1315 00ce 1600     		movs	r6, r2
 1316 00d0 5B1B     		subs	r3, r3, r5
 1317 00d2 B441     		sbcs	r4, r4, r6
 1318 00d4 064A     		ldr	r2, .L58
 1319 00d6 1360     		str	r3, [r2]
 1320 00d8 5460     		str	r4, [r2, #4]
 1321 00da 05E0     		b	.L55
 1322              	.L52:
ARM GAS  C:\Users\okuntso\AppData\Local\Temp\ccSegaCM.s 			page 50


 254:Generated_Source\PSoC4/RTC.c ****         }
 255:Generated_Source\PSoC4/RTC.c ****         else
 256:Generated_Source\PSoC4/RTC.c ****         {
 257:Generated_Source\PSoC4/RTC.c ****             RTC_dstStatus = 0u;
 1323              		.loc 2 257 0
 1324 00dc 0A4B     		ldr	r3, .L58+24
 1325 00de 0022     		movs	r2, #0
 1326 00e0 1A70     		strb	r2, [r3]
 258:Generated_Source\PSoC4/RTC.c ****             RTC_dstTimeOffset = 0uL;
 1327              		.loc 2 258 0
 1328 00e2 0A4B     		ldr	r3, .L58+28
 1329 00e4 0022     		movs	r2, #0
 1330 00e6 1A60     		str	r2, [r3]
 1331              	.L55:
 259:Generated_Source\PSoC4/RTC.c ****         }
 260:Generated_Source\PSoC4/RTC.c ****     #endif /* (0u != RTC_INITIAL_DST_STATUS) */
 261:Generated_Source\PSoC4/RTC.c **** 
 262:Generated_Source\PSoC4/RTC.c ****     #if(0u != RTC_INITIAL_ALARM_STATUS)
 263:Generated_Source\PSoC4/RTC.c ****         RTC_unixTimeAlarm = RTC_ConstructUnixAlarmTime(&RTC_alarmCfgTimeDate,
 264:Generated_Source\PSoC4/RTC.c ****                                                                                  (uint8)RTC_alarmCf
 265:Generated_Source\PSoC4/RTC.c ****     #endif /* (0u != RTC_INITIAL_ALARM_STATUS) */
 266:Generated_Source\PSoC4/RTC.c **** }
 1332              		.loc 2 266 0
 1333 00e8 C046     		nop
 1334 00ea BD46     		mov	sp, r7
 1335 00ec 07B0     		add	sp, sp, #28
 1336              		@ sp needed
 1337 00ee F0BD     		pop	{r4, r5, r6, r7, pc}
 1338              	.L59:
 1339              		.align	2
 1340              	.L58:
 1341 00f0 00000000 		.word	RTC_unixTime
 1342 00f4 00000000 		.word	RTC_currentTimeDate
 1343 00f8 00000000 		.word	RTC_dstStartTime
 1344 00fc 10000000 		.word	RTC_unixTimeDstStart
 1345 0100 00000000 		.word	RTC_dstStopTime
 1346 0104 18000000 		.word	RTC_unixTimeDstStop
 1347 0108 00000000 		.word	RTC_dstStatus
 1348 010c 08000000 		.word	RTC_dstTimeOffset
 1349              		.cfi_endproc
 1350              	.LFE29:
 1351              		.size	RTC_SetDateAndTime, .-RTC_SetDateAndTime
 1352              		.section	.text.RTC_SetUnixTime,"ax",%progbits
 1353              		.align	2
 1354              		.global	RTC_SetUnixTime
 1355              		.code	16
 1356              		.thumb_func
 1357              		.type	RTC_SetUnixTime, %function
 1358              	RTC_SetUnixTime:
 1359              	.LFB30:
 267:Generated_Source\PSoC4/RTC.c **** 
 268:Generated_Source\PSoC4/RTC.c **** 
 269:Generated_Source\PSoC4/RTC.c **** /*******************************************************************************
 270:Generated_Source\PSoC4/RTC.c **** * Function Name: RTC_SetUnixTime
 271:Generated_Source\PSoC4/RTC.c **** ****************************************************************************//**
 272:Generated_Source\PSoC4/RTC.c **** *
 273:Generated_Source\PSoC4/RTC.c **** * \brief
ARM GAS  C:\Users\okuntso\AppData\Local\Temp\ccSegaCM.s 			page 51


 274:Generated_Source\PSoC4/RTC.c **** * Sets the time in the Unix/Epoch time format - the number of seconds elapsed 
 275:Generated_Source\PSoC4/RTC.c **** *  from January 1, 1970 UTC 00:00 hrs.
 276:Generated_Source\PSoC4/RTC.c **** *
 277:Generated_Source\PSoC4/RTC.c **** * \param
 278:Generated_Source\PSoC4/RTC.c **** *  time The time value in the Unix time/Epoch time format.
 279:Generated_Source\PSoC4/RTC.c **** *
 280:Generated_Source\PSoC4/RTC.c **** *******************************************************************************/
 281:Generated_Source\PSoC4/RTC.c **** void RTC_SetUnixTime(uint64 unixTime)
 282:Generated_Source\PSoC4/RTC.c **** {
 1360              		.loc 2 282 0
 1361              		.cfi_startproc
 1362              		@ args = 0, pretend = 0, frame = 24
 1363              		@ frame_needed = 1, uses_anonymous_args = 0
 1364 0000 90B5     		push	{r4, r7, lr}
 1365              		.cfi_def_cfa_offset 12
 1366              		.cfi_offset 4, -12
 1367              		.cfi_offset 7, -8
 1368              		.cfi_offset 14, -4
 1369 0002 89B0     		sub	sp, sp, #36
 1370              		.cfi_def_cfa_offset 48
 1371 0004 02AF     		add	r7, sp, #8
 1372              		.cfi_def_cfa 7, 40
 1373 0006 3860     		str	r0, [r7]
 1374 0008 7960     		str	r1, [r7, #4]
 283:Generated_Source\PSoC4/RTC.c ****     RTC_DATE_TIME tmpDateTime;
 284:Generated_Source\PSoC4/RTC.c **** 
 285:Generated_Source\PSoC4/RTC.c ****     RTC_unixTime = unixTime;
 1375              		.loc 2 285 0
 1376 000a 254A     		ldr	r2, .L67
 1377 000c 3B68     		ldr	r3, [r7]
 1378 000e 7C68     		ldr	r4, [r7, #4]
 1379 0010 1360     		str	r3, [r2]
 1380 0012 5460     		str	r4, [r2, #4]
 286:Generated_Source\PSoC4/RTC.c ****     RTC_UnixToDateTime(&tmpDateTime, unixTime, (uint32)RTC_24_HOURS_FORMAT);
 1381              		.loc 2 286 0
 1382 0014 3B68     		ldr	r3, [r7]
 1383 0016 7C68     		ldr	r4, [r7, #4]
 1384 0018 0822     		movs	r2, #8
 1385 001a B918     		adds	r1, r7, r2
 1386 001c 0022     		movs	r2, #0
 1387 001e 0092     		str	r2, [sp]
 1388 0020 1A00     		movs	r2, r3
 1389 0022 2300     		movs	r3, r4
 1390 0024 0800     		movs	r0, r1
 1391 0026 FFF7FEFF 		bl	RTC_UnixToDateTime
 287:Generated_Source\PSoC4/RTC.c **** 
 288:Generated_Source\PSoC4/RTC.c ****     #if(0u != RTC_INITIAL_DST_STATUS)
 289:Generated_Source\PSoC4/RTC.c ****         RTC_unixTimeDstStart = RTC_GetDstUnixTime(&RTC_dstStartTime);
 1392              		.loc 2 289 0
 1393 002a 1E4B     		ldr	r3, .L67+4
 1394 002c 1800     		movs	r0, r3
 1395 002e FFF7FEFF 		bl	RTC_GetDstUnixTime
 1396 0032 0300     		movs	r3, r0
 1397 0034 0C00     		movs	r4, r1
 1398 0036 1C4A     		ldr	r2, .L67+8
 1399 0038 1360     		str	r3, [r2]
 1400 003a 5460     		str	r4, [r2, #4]
ARM GAS  C:\Users\okuntso\AppData\Local\Temp\ccSegaCM.s 			page 52


 290:Generated_Source\PSoC4/RTC.c ****         RTC_unixTimeDstStop  = RTC_GetDstUnixTime(&RTC_dstStopTime);
 1401              		.loc 2 290 0
 1402 003c 1B4B     		ldr	r3, .L67+12
 1403 003e 1800     		movs	r0, r3
 1404 0040 FFF7FEFF 		bl	RTC_GetDstUnixTime
 1405 0044 0300     		movs	r3, r0
 1406 0046 0C00     		movs	r4, r1
 1407 0048 194A     		ldr	r2, .L67+16
 1408 004a 1360     		str	r3, [r2]
 1409 004c 5460     		str	r4, [r2, #4]
 291:Generated_Source\PSoC4/RTC.c **** 
 292:Generated_Source\PSoC4/RTC.c ****         if((RTC_unixTime >= RTC_unixTimeDstStart) &&
 1410              		.loc 2 292 0
 1411 004e 144B     		ldr	r3, .L67
 1412 0050 5C68     		ldr	r4, [r3, #4]
 1413 0052 1B68     		ldr	r3, [r3]
 1414 0054 144A     		ldr	r2, .L67+8
 1415 0056 1168     		ldr	r1, [r2]
 1416 0058 5268     		ldr	r2, [r2, #4]
 1417 005a A242     		cmp	r2, r4
 1418 005c 15D8     		bhi	.L61
 1419 005e 01D1     		bne	.L65
 1420 0060 9942     		cmp	r1, r3
 1421 0062 12D8     		bhi	.L61
 1422              	.L65:
 293:Generated_Source\PSoC4/RTC.c ****            (RTC_unixTime <= RTC_unixTimeDstStop))
 1423              		.loc 2 293 0 discriminator 1
 1424 0064 0E4B     		ldr	r3, .L67
 1425 0066 1968     		ldr	r1, [r3]
 1426 0068 5A68     		ldr	r2, [r3, #4]
 1427 006a 114B     		ldr	r3, .L67+16
 1428 006c 5C68     		ldr	r4, [r3, #4]
 1429 006e 1B68     		ldr	r3, [r3]
 292:Generated_Source\PSoC4/RTC.c ****            (RTC_unixTime <= RTC_unixTimeDstStop))
 1430              		.loc 2 292 0 discriminator 1
 1431 0070 A242     		cmp	r2, r4
 1432 0072 0AD8     		bhi	.L61
 1433 0074 01D1     		bne	.L66
 1434 0076 9942     		cmp	r1, r3
 1435 0078 07D8     		bhi	.L61
 1436              	.L66:
 294:Generated_Source\PSoC4/RTC.c ****         {
 295:Generated_Source\PSoC4/RTC.c ****             RTC_dstStatus = 1u;
 1437              		.loc 2 295 0
 1438 007a 0E4B     		ldr	r3, .L67+20
 1439 007c 0122     		movs	r2, #1
 1440 007e 1A70     		strb	r2, [r3]
 296:Generated_Source\PSoC4/RTC.c ****             RTC_dstTimeOffset = RTC_SECONDS_PER_HOUR;
 1441              		.loc 2 296 0
 1442 0080 0D4B     		ldr	r3, .L67+24
 1443 0082 E122     		movs	r2, #225
 1444 0084 1201     		lsls	r2, r2, #4
 1445 0086 1A60     		str	r2, [r3]
 1446 0088 05E0     		b	.L64
 1447              	.L61:
 297:Generated_Source\PSoC4/RTC.c ****         }
 298:Generated_Source\PSoC4/RTC.c ****         else
ARM GAS  C:\Users\okuntso\AppData\Local\Temp\ccSegaCM.s 			page 53


 299:Generated_Source\PSoC4/RTC.c ****         {
 300:Generated_Source\PSoC4/RTC.c ****             RTC_dstStatus = 0u;
 1448              		.loc 2 300 0
 1449 008a 0A4B     		ldr	r3, .L67+20
 1450 008c 0022     		movs	r2, #0
 1451 008e 1A70     		strb	r2, [r3]
 301:Generated_Source\PSoC4/RTC.c ****             RTC_dstTimeOffset = 0uL;
 1452              		.loc 2 301 0
 1453 0090 094B     		ldr	r3, .L67+24
 1454 0092 0022     		movs	r2, #0
 1455 0094 1A60     		str	r2, [r3]
 1456              	.L64:
 302:Generated_Source\PSoC4/RTC.c ****         }
 303:Generated_Source\PSoC4/RTC.c ****     #endif /* (0u != RTC_INITIAL_DST_STATUS) */
 304:Generated_Source\PSoC4/RTC.c **** }
 1457              		.loc 2 304 0
 1458 0096 C046     		nop
 1459 0098 BD46     		mov	sp, r7
 1460 009a 07B0     		add	sp, sp, #28
 1461              		@ sp needed
 1462 009c 90BD     		pop	{r4, r7, pc}
 1463              	.L68:
 1464 009e C046     		.align	2
 1465              	.L67:
 1466 00a0 00000000 		.word	RTC_unixTime
 1467 00a4 00000000 		.word	RTC_dstStartTime
 1468 00a8 10000000 		.word	RTC_unixTimeDstStart
 1469 00ac 00000000 		.word	RTC_dstStopTime
 1470 00b0 18000000 		.word	RTC_unixTimeDstStop
 1471 00b4 00000000 		.word	RTC_dstStatus
 1472 00b8 08000000 		.word	RTC_dstTimeOffset
 1473              		.cfi_endproc
 1474              	.LFE30:
 1475              		.size	RTC_SetUnixTime, .-RTC_SetUnixTime
 1476              		.section	.text.RTC_GetUnixTime,"ax",%progbits
 1477              		.align	2
 1478              		.global	RTC_GetUnixTime
 1479              		.code	16
 1480              		.thumb_func
 1481              		.type	RTC_GetUnixTime, %function
 1482              	RTC_GetUnixTime:
 1483              	.LFB31:
 305:Generated_Source\PSoC4/RTC.c **** 
 306:Generated_Source\PSoC4/RTC.c **** 
 307:Generated_Source\PSoC4/RTC.c **** /*******************************************************************************
 308:Generated_Source\PSoC4/RTC.c **** * Function Name: RTC_GetUnixTime
 309:Generated_Source\PSoC4/RTC.c **** ****************************************************************************//**
 310:Generated_Source\PSoC4/RTC.c **** *
 311:Generated_Source\PSoC4/RTC.c **** * \brief
 312:Generated_Source\PSoC4/RTC.c **** *  Returns the time in the Unix/Epoch time format - the number of seconds 
 313:Generated_Source\PSoC4/RTC.c **** * elapsed from January 1, 1970 UTC 00:00 hrs.
 314:Generated_Source\PSoC4/RTC.c **** *
 315:Generated_Source\PSoC4/RTC.c **** * \return time The time value in the Unix time/Epoch time format.
 316:Generated_Source\PSoC4/RTC.c **** *
 317:Generated_Source\PSoC4/RTC.c **** *******************************************************************************/
 318:Generated_Source\PSoC4/RTC.c **** uint64 RTC_GetUnixTime(void)
 319:Generated_Source\PSoC4/RTC.c **** {
ARM GAS  C:\Users\okuntso\AppData\Local\Temp\ccSegaCM.s 			page 54


 1484              		.loc 2 319 0
 1485              		.cfi_startproc
 1486              		@ args = 0, pretend = 0, frame = 0
 1487              		@ frame_needed = 1, uses_anonymous_args = 0
 1488 0000 90B5     		push	{r4, r7, lr}
 1489              		.cfi_def_cfa_offset 12
 1490              		.cfi_offset 4, -12
 1491              		.cfi_offset 7, -8
 1492              		.cfi_offset 14, -4
 1493 0002 00AF     		add	r7, sp, #0
 1494              		.cfi_def_cfa_register 7
 320:Generated_Source\PSoC4/RTC.c ****     return (RTC_unixTime);
 1495              		.loc 2 320 0
 1496 0004 034B     		ldr	r3, .L71
 1497 0006 5C68     		ldr	r4, [r3, #4]
 1498 0008 1B68     		ldr	r3, [r3]
 321:Generated_Source\PSoC4/RTC.c **** }
 1499              		.loc 2 321 0
 1500 000a 1800     		movs	r0, r3
 1501 000c 2100     		movs	r1, r4
 1502 000e BD46     		mov	sp, r7
 1503              		@ sp needed
 1504 0010 90BD     		pop	{r4, r7, pc}
 1505              	.L72:
 1506 0012 C046     		.align	2
 1507              	.L71:
 1508 0014 00000000 		.word	RTC_unixTime
 1509              		.cfi_endproc
 1510              	.LFE31:
 1511              		.size	RTC_GetUnixTime, .-RTC_GetUnixTime
 1512              		.section	.text.RTC_SetPeriod,"ax",%progbits
 1513              		.align	2
 1514              		.global	RTC_SetPeriod
 1515              		.code	16
 1516              		.thumb_func
 1517              		.type	RTC_SetPeriod, %function
 1518              	RTC_SetPeriod:
 1519              	.LFB32:
 322:Generated_Source\PSoC4/RTC.c **** 
 323:Generated_Source\PSoC4/RTC.c **** 
 324:Generated_Source\PSoC4/RTC.c **** /*******************************************************************************
 325:Generated_Source\PSoC4/RTC.c **** * Function Name: RTC_SetPeriod
 326:Generated_Source\PSoC4/RTC.c **** ****************************************************************************//**
 327:Generated_Source\PSoC4/RTC.c **** *
 328:Generated_Source\PSoC4/RTC.c **** * \brief
 329:Generated_Source\PSoC4/RTC.c **** *  Sets the RTC time update API period.
 330:Generated_Source\PSoC4/RTC.c **** *
 331:Generated_Source\PSoC4/RTC.c **** *  The user needs to pass the period as
 332:Generated_Source\PSoC4/RTC.c **** *  a number of ticks and also a reference number of ticks taken by the same clock
 333:Generated_Source\PSoC4/RTC.c **** *  source for one second. For instance, for a 32 kHz clock source and RTC
 334:Generated_Source\PSoC4/RTC.c **** *  period of 100 ms, the "ticks" value is 3200 and the "refOneSecTicks" value
 335:Generated_Source\PSoC4/RTC.c **** *  is 32000. This value is used to increment the time every time
 336:Generated_Source\PSoC4/RTC.c **** *  RTC_Update() API is called.
 337:Generated_Source\PSoC4/RTC.c **** *
 338:Generated_Source\PSoC4/RTC.c **** * \param
 339:Generated_Source\PSoC4/RTC.c **** *  ticks The clock period taken as a number of ticks.
 340:Generated_Source\PSoC4/RTC.c **** *
ARM GAS  C:\Users\okuntso\AppData\Local\Temp\ccSegaCM.s 			page 55


 341:Generated_Source\PSoC4/RTC.c **** * \param
 342:Generated_Source\PSoC4/RTC.c **** * refOneSecTicks The reference number of ticks taken by the same clock source
 343:Generated_Source\PSoC4/RTC.c **** *  for one second (the input clock frequency in Hz).
 344:Generated_Source\PSoC4/RTC.c **** *
 345:Generated_Source\PSoC4/RTC.c **** *******************************************************************************/
 346:Generated_Source\PSoC4/RTC.c **** void RTC_SetPeriod(uint32 ticks, uint32 refOneSecTicks)
 347:Generated_Source\PSoC4/RTC.c **** {
 1520              		.loc 2 347 0
 1521              		.cfi_startproc
 1522              		@ args = 0, pretend = 0, frame = 8
 1523              		@ frame_needed = 1, uses_anonymous_args = 0
 1524 0000 80B5     		push	{r7, lr}
 1525              		.cfi_def_cfa_offset 8
 1526              		.cfi_offset 7, -8
 1527              		.cfi_offset 14, -4
 1528 0002 82B0     		sub	sp, sp, #8
 1529              		.cfi_def_cfa_offset 16
 1530 0004 00AF     		add	r7, sp, #0
 1531              		.cfi_def_cfa_register 7
 1532 0006 7860     		str	r0, [r7, #4]
 1533 0008 3960     		str	r1, [r7]
 348:Generated_Source\PSoC4/RTC.c ****     RTC_updateTimePeriod = ticks;
 1534              		.loc 2 348 0
 1535 000a 054B     		ldr	r3, .L74
 1536 000c 7A68     		ldr	r2, [r7, #4]
 1537 000e 1A60     		str	r2, [r3]
 349:Generated_Source\PSoC4/RTC.c ****     RTC_tickRefOneSec    = refOneSecTicks;
 1538              		.loc 2 349 0
 1539 0010 044B     		ldr	r3, .L74+4
 1540 0012 3A68     		ldr	r2, [r7]
 1541 0014 1A60     		str	r2, [r3]
 350:Generated_Source\PSoC4/RTC.c **** }
 1542              		.loc 2 350 0
 1543 0016 C046     		nop
 1544 0018 BD46     		mov	sp, r7
 1545 001a 02B0     		add	sp, sp, #8
 1546              		@ sp needed
 1547 001c 80BD     		pop	{r7, pc}
 1548              	.L75:
 1549 001e C046     		.align	2
 1550              	.L74:
 1551 0020 00000000 		.word	RTC_updateTimePeriod
 1552 0024 04000000 		.word	RTC_tickRefOneSec
 1553              		.cfi_endproc
 1554              	.LFE32:
 1555              		.size	RTC_SetPeriod, .-RTC_SetPeriod
 1556              		.section	.text.RTC_GetPeriod,"ax",%progbits
 1557              		.align	2
 1558              		.global	RTC_GetPeriod
 1559              		.code	16
 1560              		.thumb_func
 1561              		.type	RTC_GetPeriod, %function
 1562              	RTC_GetPeriod:
 1563              	.LFB33:
 351:Generated_Source\PSoC4/RTC.c **** 
 352:Generated_Source\PSoC4/RTC.c **** 
 353:Generated_Source\PSoC4/RTC.c **** /*******************************************************************************
ARM GAS  C:\Users\okuntso\AppData\Local\Temp\ccSegaCM.s 			page 56


 354:Generated_Source\PSoC4/RTC.c **** * Function Name: RTC_SetPeriod
 355:Generated_Source\PSoC4/RTC.c **** ****************************************************************************//**
 356:Generated_Source\PSoC4/RTC.c **** *
 357:Generated_Source\PSoC4/RTC.c **** * \brief
 358:Generated_Source\PSoC4/RTC.c **** *  Gets the RTC time update API period.
 359:Generated_Source\PSoC4/RTC.c **** *
 360:Generated_Source\PSoC4/RTC.c **** * \return period The clock period taken as a number of ticks.
 361:Generated_Source\PSoC4/RTC.c **** *
 362:Generated_Source\PSoC4/RTC.c **** *******************************************************************************/
 363:Generated_Source\PSoC4/RTC.c **** uint32 RTC_GetPeriod(void)
 364:Generated_Source\PSoC4/RTC.c **** {
 1564              		.loc 2 364 0
 1565              		.cfi_startproc
 1566              		@ args = 0, pretend = 0, frame = 0
 1567              		@ frame_needed = 1, uses_anonymous_args = 0
 1568 0000 80B5     		push	{r7, lr}
 1569              		.cfi_def_cfa_offset 8
 1570              		.cfi_offset 7, -8
 1571              		.cfi_offset 14, -4
 1572 0002 00AF     		add	r7, sp, #0
 1573              		.cfi_def_cfa_register 7
 365:Generated_Source\PSoC4/RTC.c ****     return(RTC_updateTimePeriod);
 1574              		.loc 2 365 0
 1575 0004 024B     		ldr	r3, .L78
 1576 0006 1B68     		ldr	r3, [r3]
 366:Generated_Source\PSoC4/RTC.c **** }
 1577              		.loc 2 366 0
 1578 0008 1800     		movs	r0, r3
 1579 000a BD46     		mov	sp, r7
 1580              		@ sp needed
 1581 000c 80BD     		pop	{r7, pc}
 1582              	.L79:
 1583 000e C046     		.align	2
 1584              	.L78:
 1585 0010 00000000 		.word	RTC_updateTimePeriod
 1586              		.cfi_endproc
 1587              	.LFE33:
 1588              		.size	RTC_GetPeriod, .-RTC_GetPeriod
 1589              		.section	.text.RTC_GetRefOneSec,"ax",%progbits
 1590              		.align	2
 1591              		.global	RTC_GetRefOneSec
 1592              		.code	16
 1593              		.thumb_func
 1594              		.type	RTC_GetRefOneSec, %function
 1595              	RTC_GetRefOneSec:
 1596              	.LFB34:
 367:Generated_Source\PSoC4/RTC.c **** 
 368:Generated_Source\PSoC4/RTC.c **** 
 369:Generated_Source\PSoC4/RTC.c **** /*******************************************************************************
 370:Generated_Source\PSoC4/RTC.c **** * Function Name: RTC_GetRefOneSec
 371:Generated_Source\PSoC4/RTC.c **** ****************************************************************************//**
 372:Generated_Source\PSoC4/RTC.c **** * \brief
 373:Generated_Source\PSoC4/RTC.c **** * Gets the RTC time update API period.
 374:Generated_Source\PSoC4/RTC.c **** *
 375:Generated_Source\PSoC4/RTC.c **** * \return
 376:Generated_Source\PSoC4/RTC.c **** * period The reference number of ticks taken by the RTC clock source for one
 377:Generated_Source\PSoC4/RTC.c **** * second.
ARM GAS  C:\Users\okuntso\AppData\Local\Temp\ccSegaCM.s 			page 57


 378:Generated_Source\PSoC4/RTC.c **** *
 379:Generated_Source\PSoC4/RTC.c **** *******************************************************************************/
 380:Generated_Source\PSoC4/RTC.c **** uint32 RTC_GetRefOneSec(void)
 381:Generated_Source\PSoC4/RTC.c **** {
 1597              		.loc 2 381 0
 1598              		.cfi_startproc
 1599              		@ args = 0, pretend = 0, frame = 0
 1600              		@ frame_needed = 1, uses_anonymous_args = 0
 1601 0000 80B5     		push	{r7, lr}
 1602              		.cfi_def_cfa_offset 8
 1603              		.cfi_offset 7, -8
 1604              		.cfi_offset 14, -4
 1605 0002 00AF     		add	r7, sp, #0
 1606              		.cfi_def_cfa_register 7
 382:Generated_Source\PSoC4/RTC.c ****     return(RTC_tickRefOneSec);
 1607              		.loc 2 382 0
 1608 0004 024B     		ldr	r3, .L82
 1609 0006 1B68     		ldr	r3, [r3]
 383:Generated_Source\PSoC4/RTC.c **** }
 1610              		.loc 2 383 0
 1611 0008 1800     		movs	r0, r3
 1612 000a BD46     		mov	sp, r7
 1613              		@ sp needed
 1614 000c 80BD     		pop	{r7, pc}
 1615              	.L83:
 1616 000e C046     		.align	2
 1617              	.L82:
 1618 0010 04000000 		.word	RTC_tickRefOneSec
 1619              		.cfi_endproc
 1620              	.LFE34:
 1621              		.size	RTC_GetRefOneSec, .-RTC_GetRefOneSec
 1622              		.section	.text.RTC_GetDateAndTime,"ax",%progbits
 1623              		.align	2
 1624              		.global	RTC_GetDateAndTime
 1625              		.code	16
 1626              		.thumb_func
 1627              		.type	RTC_GetDateAndTime, %function
 1628              	RTC_GetDateAndTime:
 1629              	.LFB35:
 384:Generated_Source\PSoC4/RTC.c **** 
 385:Generated_Source\PSoC4/RTC.c **** 
 386:Generated_Source\PSoC4/RTC.c **** /*******************************************************************************
 387:Generated_Source\PSoC4/RTC.c **** * Function Name: RTC_GetDateAndTime
 388:Generated_Source\PSoC4/RTC.c **** ****************************************************************************//**
 389:Generated_Source\PSoC4/RTC.c **** *
 390:Generated_Source\PSoC4/RTC.c **** * Reads the current time and date.
 391:Generated_Source\PSoC4/RTC.c **** *
 392:Generated_Source\PSoC4/RTC.c **** * \param dateTime The pointer to the RTC_date_time structure to which time and 
 393:Generated_Source\PSoC4/RTC.c **** * date is returned.
 394:Generated_Source\PSoC4/RTC.c **** *
 395:Generated_Source\PSoC4/RTC.c **** *******************************************************************************/
 396:Generated_Source\PSoC4/RTC.c **** void RTC_GetDateAndTime(RTC_DATE_TIME* dateTime)
 397:Generated_Source\PSoC4/RTC.c **** {
 1630              		.loc 2 397 0
 1631              		.cfi_startproc
 1632              		@ args = 0, pretend = 0, frame = 8
 1633              		@ frame_needed = 1, uses_anonymous_args = 0
ARM GAS  C:\Users\okuntso\AppData\Local\Temp\ccSegaCM.s 			page 58


 1634 0000 90B5     		push	{r4, r7, lr}
 1635              		.cfi_def_cfa_offset 12
 1636              		.cfi_offset 4, -12
 1637              		.cfi_offset 7, -8
 1638              		.cfi_offset 14, -4
 1639 0002 85B0     		sub	sp, sp, #20
 1640              		.cfi_def_cfa_offset 32
 1641 0004 02AF     		add	r7, sp, #8
 1642              		.cfi_def_cfa 7, 24
 1643 0006 7860     		str	r0, [r7, #4]
 398:Generated_Source\PSoC4/RTC.c ****     RTC_UnixToDateTime(dateTime, (RTC_unixTime  + RTC_dstTimeOffset),
 1644              		.loc 2 398 0
 1645 0008 0A4B     		ldr	r3, .L85
 1646 000a 1B68     		ldr	r3, [r3]
 1647 000c 1900     		movs	r1, r3
 1648 000e 0023     		movs	r3, #0
 1649 0010 1A00     		movs	r2, r3
 1650 0012 094B     		ldr	r3, .L85+4
 1651 0014 5C68     		ldr	r4, [r3, #4]
 1652 0016 1B68     		ldr	r3, [r3]
 1653 0018 5B18     		adds	r3, r3, r1
 1654 001a 5441     		adcs	r4, r4, r2
 1655 001c 7968     		ldr	r1, [r7, #4]
 1656 001e 0022     		movs	r2, #0
 1657 0020 0092     		str	r2, [sp]
 1658 0022 1A00     		movs	r2, r3
 1659 0024 2300     		movs	r3, r4
 1660 0026 0800     		movs	r0, r1
 1661 0028 FFF7FEFF 		bl	RTC_UnixToDateTime
 399:Generated_Source\PSoC4/RTC.c ****                                                                             RTC_INITIAL_TIME_FORMAT
 400:Generated_Source\PSoC4/RTC.c **** }
 1662              		.loc 2 400 0
 1663 002c C046     		nop
 1664 002e BD46     		mov	sp, r7
 1665 0030 03B0     		add	sp, sp, #12
 1666              		@ sp needed
 1667 0032 90BD     		pop	{r4, r7, pc}
 1668              	.L86:
 1669              		.align	2
 1670              	.L85:
 1671 0034 08000000 		.word	RTC_dstTimeOffset
 1672 0038 00000000 		.word	RTC_unixTime
 1673              		.cfi_endproc
 1674              	.LFE35:
 1675              		.size	RTC_GetDateAndTime, .-RTC_GetDateAndTime
 1676              		.section	.text.RTC_GetTime,"ax",%progbits
 1677              		.align	2
 1678              		.global	RTC_GetTime
 1679              		.code	16
 1680              		.thumb_func
 1681              		.type	RTC_GetTime, %function
 1682              	RTC_GetTime:
 1683              	.LFB36:
 401:Generated_Source\PSoC4/RTC.c **** 
 402:Generated_Source\PSoC4/RTC.c **** 
 403:Generated_Source\PSoC4/RTC.c **** /*******************************************************************************
 404:Generated_Source\PSoC4/RTC.c **** * Function Name: RTC_GetTime
ARM GAS  C:\Users\okuntso\AppData\Local\Temp\ccSegaCM.s 			page 59


 405:Generated_Source\PSoC4/RTC.c **** ****************************************************************************//**
 406:Generated_Source\PSoC4/RTC.c **** * \brief
 407:Generated_Source\PSoC4/RTC.c **** * Reads the current time.
 408:Generated_Source\PSoC4/RTC.c **** *
 409:Generated_Source\PSoC4/RTC.c **** * \return
 410:Generated_Source\PSoC4/RTC.c **** * date The value of date in the user selected format. The date value is 
 411:Generated_Source\PSoC4/RTC.c **** * available in the BCD format.
 412:Generated_Source\PSoC4/RTC.c **** *
 413:Generated_Source\PSoC4/RTC.c **** * \warning
 414:Generated_Source\PSoC4/RTC.c **** *  Using RTC_GetTime and RTC_GetDate API separately might result
 415:Generated_Source\PSoC4/RTC.c **** *  in errors when the time wraps around the end of the day. To avoid this,
 416:Generated_Source\PSoC4/RTC.c **** *  use RTC_GetDateAndTime API.
 417:Generated_Source\PSoC4/RTC.c **** *
 418:Generated_Source\PSoC4/RTC.c **** *******************************************************************************/
 419:Generated_Source\PSoC4/RTC.c **** uint32 RTC_GetTime(void)
 420:Generated_Source\PSoC4/RTC.c **** {
 1684              		.loc 2 420 0
 1685              		.cfi_startproc
 1686              		@ args = 0, pretend = 0, frame = 0
 1687              		@ frame_needed = 1, uses_anonymous_args = 0
 1688 0000 90B5     		push	{r4, r7, lr}
 1689              		.cfi_def_cfa_offset 12
 1690              		.cfi_offset 4, -12
 1691              		.cfi_offset 7, -8
 1692              		.cfi_offset 14, -4
 1693 0002 83B0     		sub	sp, sp, #12
 1694              		.cfi_def_cfa_offset 24
 1695 0004 02AF     		add	r7, sp, #8
 1696              		.cfi_def_cfa 7, 16
 421:Generated_Source\PSoC4/RTC.c ****     RTC_UnixToDateTime(&RTC_currentTimeDate,
 1697              		.loc 2 421 0
 1698 0006 0C4B     		ldr	r3, .L89
 1699 0008 1B68     		ldr	r3, [r3]
 1700 000a 1900     		movs	r1, r3
 1701 000c 0023     		movs	r3, #0
 1702 000e 1A00     		movs	r2, r3
 1703 0010 0A4B     		ldr	r3, .L89+4
 1704 0012 5C68     		ldr	r4, [r3, #4]
 1705 0014 1B68     		ldr	r3, [r3]
 1706 0016 5B18     		adds	r3, r3, r1
 1707 0018 5441     		adcs	r4, r4, r2
 1708 001a 0949     		ldr	r1, .L89+8
 1709 001c 0022     		movs	r2, #0
 1710 001e 0092     		str	r2, [sp]
 1711 0020 1A00     		movs	r2, r3
 1712 0022 2300     		movs	r3, r4
 1713 0024 0800     		movs	r0, r1
 1714 0026 FFF7FEFF 		bl	RTC_UnixToDateTime
 422:Generated_Source\PSoC4/RTC.c ****                                     (RTC_unixTime  + RTC_dstTimeOffset),
 423:Generated_Source\PSoC4/RTC.c ****                                      RTC_INITIAL_TIME_FORMAT);
 424:Generated_Source\PSoC4/RTC.c **** 
 425:Generated_Source\PSoC4/RTC.c ****     return(RTC_currentTimeDate.time);
 1715              		.loc 2 425 0
 1716 002a 054B     		ldr	r3, .L89+8
 1717 002c 1B68     		ldr	r3, [r3]
 426:Generated_Source\PSoC4/RTC.c **** }
 1718              		.loc 2 426 0
ARM GAS  C:\Users\okuntso\AppData\Local\Temp\ccSegaCM.s 			page 60


 1719 002e 1800     		movs	r0, r3
 1720 0030 BD46     		mov	sp, r7
 1721 0032 01B0     		add	sp, sp, #4
 1722              		@ sp needed
 1723 0034 90BD     		pop	{r4, r7, pc}
 1724              	.L90:
 1725 0036 C046     		.align	2
 1726              	.L89:
 1727 0038 08000000 		.word	RTC_dstTimeOffset
 1728 003c 00000000 		.word	RTC_unixTime
 1729 0040 00000000 		.word	RTC_currentTimeDate
 1730              		.cfi_endproc
 1731              	.LFE36:
 1732              		.size	RTC_GetTime, .-RTC_GetTime
 1733              		.section	.text.RTC_GetDate,"ax",%progbits
 1734              		.align	2
 1735              		.global	RTC_GetDate
 1736              		.code	16
 1737              		.thumb_func
 1738              		.type	RTC_GetDate, %function
 1739              	RTC_GetDate:
 1740              	.LFB37:
 427:Generated_Source\PSoC4/RTC.c **** 
 428:Generated_Source\PSoC4/RTC.c **** 
 429:Generated_Source\PSoC4/RTC.c **** /*******************************************************************************
 430:Generated_Source\PSoC4/RTC.c **** * Function Name: RTC_GetDate
 431:Generated_Source\PSoC4/RTC.c **** ****************************************************************************//**
 432:Generated_Source\PSoC4/RTC.c **** *
 433:Generated_Source\PSoC4/RTC.c **** * \brief Reads the current time.
 434:Generated_Source\PSoC4/RTC.c **** *
 435:Generated_Source\PSoC4/RTC.c **** * \return
 436:Generated_Source\PSoC4/RTC.c **** * time The time value in the format selected by the user (12/24 hr);
 437:Generated_Source\PSoC4/RTC.c **** * The time value is available in the BCD format.
 438:Generated_Source\PSoC4/RTC.c **** *
 439:Generated_Source\PSoC4/RTC.c **** * \note
 440:Generated_Source\PSoC4/RTC.c **** *  Using RTC_GetTime and RTC_GetDate API separately
 441:Generated_Source\PSoC4/RTC.c **** *  might result in errors when the time wraps around the end of the day. To
 442:Generated_Source\PSoC4/RTC.c **** *  avoid this, use RTC_GetDateAndTime API.
 443:Generated_Source\PSoC4/RTC.c **** *
 444:Generated_Source\PSoC4/RTC.c **** *******************************************************************************/
 445:Generated_Source\PSoC4/RTC.c **** uint32 RTC_GetDate(void)
 446:Generated_Source\PSoC4/RTC.c **** {
 1741              		.loc 2 446 0
 1742              		.cfi_startproc
 1743              		@ args = 0, pretend = 0, frame = 0
 1744              		@ frame_needed = 1, uses_anonymous_args = 0
 1745 0000 90B5     		push	{r4, r7, lr}
 1746              		.cfi_def_cfa_offset 12
 1747              		.cfi_offset 4, -12
 1748              		.cfi_offset 7, -8
 1749              		.cfi_offset 14, -4
 1750 0002 83B0     		sub	sp, sp, #12
 1751              		.cfi_def_cfa_offset 24
 1752 0004 02AF     		add	r7, sp, #8
 1753              		.cfi_def_cfa 7, 16
 447:Generated_Source\PSoC4/RTC.c ****     RTC_UnixToDateTime(&RTC_currentTimeDate,
 1754              		.loc 2 447 0
ARM GAS  C:\Users\okuntso\AppData\Local\Temp\ccSegaCM.s 			page 61


 1755 0006 0C4B     		ldr	r3, .L93
 1756 0008 1B68     		ldr	r3, [r3]
 1757 000a 1900     		movs	r1, r3
 1758 000c 0023     		movs	r3, #0
 1759 000e 1A00     		movs	r2, r3
 1760 0010 0A4B     		ldr	r3, .L93+4
 1761 0012 5C68     		ldr	r4, [r3, #4]
 1762 0014 1B68     		ldr	r3, [r3]
 1763 0016 5B18     		adds	r3, r3, r1
 1764 0018 5441     		adcs	r4, r4, r2
 1765 001a 0949     		ldr	r1, .L93+8
 1766 001c 0022     		movs	r2, #0
 1767 001e 0092     		str	r2, [sp]
 1768 0020 1A00     		movs	r2, r3
 1769 0022 2300     		movs	r3, r4
 1770 0024 0800     		movs	r0, r1
 1771 0026 FFF7FEFF 		bl	RTC_UnixToDateTime
 448:Generated_Source\PSoC4/RTC.c ****                                     (RTC_unixTime  + RTC_dstTimeOffset),
 449:Generated_Source\PSoC4/RTC.c ****                                      RTC_INITIAL_TIME_FORMAT);
 450:Generated_Source\PSoC4/RTC.c **** 
 451:Generated_Source\PSoC4/RTC.c ****     return(RTC_currentTimeDate.date);
 1772              		.loc 2 451 0
 1773 002a 054B     		ldr	r3, .L93+8
 1774 002c 5B68     		ldr	r3, [r3, #4]
 452:Generated_Source\PSoC4/RTC.c **** }
 1775              		.loc 2 452 0
 1776 002e 1800     		movs	r0, r3
 1777 0030 BD46     		mov	sp, r7
 1778 0032 01B0     		add	sp, sp, #4
 1779              		@ sp needed
 1780 0034 90BD     		pop	{r4, r7, pc}
 1781              	.L94:
 1782 0036 C046     		.align	2
 1783              	.L93:
 1784 0038 08000000 		.word	RTC_dstTimeOffset
 1785 003c 00000000 		.word	RTC_unixTime
 1786 0040 00000000 		.word	RTC_currentTimeDate
 1787              		.cfi_endproc
 1788              	.LFE37:
 1789              		.size	RTC_GetDate, .-RTC_GetDate
 1790              		.section	.text.RTC_ReadStatus,"ax",%progbits
 1791              		.align	2
 1792              		.global	RTC_ReadStatus
 1793              		.code	16
 1794              		.thumb_func
 1795              		.type	RTC_ReadStatus, %function
 1796              	RTC_ReadStatus:
 1797              	.LFB38:
 453:Generated_Source\PSoC4/RTC.c **** 
 454:Generated_Source\PSoC4/RTC.c **** 
 455:Generated_Source\PSoC4/RTC.c **** #if(0u != RTC_INITIAL_ALARM_STATUS)
 456:Generated_Source\PSoC4/RTC.c ****     /*******************************************************************************
 457:Generated_Source\PSoC4/RTC.c ****     * Function Name: RTC_SetAlarmDateAndTime
 458:Generated_Source\PSoC4/RTC.c ****     ****************************************************************************//**
 459:Generated_Source\PSoC4/RTC.c ****     *
 460:Generated_Source\PSoC4/RTC.c ****     * \brief
 461:Generated_Source\PSoC4/RTC.c ****     *  Writes the time and date values as the current alarm time and date.
ARM GAS  C:\Users\okuntso\AppData\Local\Temp\ccSegaCM.s 			page 62


 462:Generated_Source\PSoC4/RTC.c ****     *
 463:Generated_Source\PSoC4/RTC.c ****     * \param
 464:Generated_Source\PSoC4/RTC.c ****     *  alarmTime The pointer to the RTC_date_time global structure where
 465:Generated_Source\PSoC4/RTC.c ****     *  new values of the alarm time and date are stored.
 466:Generated_Source\PSoC4/RTC.c ****     *
 467:Generated_Source\PSoC4/RTC.c ****     * \note
 468:Generated_Source\PSoC4/RTC.c ****     *  Invalid time entries are written with "00:00:00:00" for the 24-hour format and
 469:Generated_Source\PSoC4/RTC.c ****     *  "AM 12:00:00:00" for the 12-hour format. Invalid date entries are written with
 470:Generated_Source\PSoC4/RTC.c ****     *  a date equivalent to 01-JAN-2000.
 471:Generated_Source\PSoC4/RTC.c ****     *
 472:Generated_Source\PSoC4/RTC.c ****     *******************************************************************************/
 473:Generated_Source\PSoC4/RTC.c ****     void RTC_SetAlarmDateAndTime(const RTC_DATE_TIME* alarmTime)
 474:Generated_Source\PSoC4/RTC.c ****     {
 475:Generated_Source\PSoC4/RTC.c ****         RTC_alarmCfgTimeDate = *alarmTime;
 476:Generated_Source\PSoC4/RTC.c ****         RTC_unixTimeAlarm = RTC_ConstructUnixAlarmTime(alarmTime, (uint8)RTC_alarmCfgMask);
 477:Generated_Source\PSoC4/RTC.c ****     }
 478:Generated_Source\PSoC4/RTC.c **** 
 479:Generated_Source\PSoC4/RTC.c **** 
 480:Generated_Source\PSoC4/RTC.c ****     /*******************************************************************************
 481:Generated_Source\PSoC4/RTC.c ****     * Function Name: RTC_GetAlarmDateAndTime
 482:Generated_Source\PSoC4/RTC.c ****     ****************************************************************************//**
 483:Generated_Source\PSoC4/RTC.c ****     *
 484:Generated_Source\PSoC4/RTC.c ****     * \brief
 485:Generated_Source\PSoC4/RTC.c ****     *  Reads the current alarm time and date.
 486:Generated_Source\PSoC4/RTC.c ****     *
 487:Generated_Source\PSoC4/RTC.c ****     * \param
 488:Generated_Source\PSoC4/RTC.c ****     *  alarmTimeDate The pointer to the RTC_date_time structure to which
 489:Generated_Source\PSoC4/RTC.c ****     *  the alarm date and time are returned.
 490:Generated_Source\PSoC4/RTC.c ****     *
 491:Generated_Source\PSoC4/RTC.c ****     *******************************************************************************/
 492:Generated_Source\PSoC4/RTC.c ****     void RTC_GetAlarmDateAndTime(RTC_DATE_TIME* alarmTimeDate)
 493:Generated_Source\PSoC4/RTC.c ****     {
 494:Generated_Source\PSoC4/RTC.c ****         *alarmTimeDate = RTC_alarmCfgTimeDate;
 495:Generated_Source\PSoC4/RTC.c ****     }
 496:Generated_Source\PSoC4/RTC.c **** 
 497:Generated_Source\PSoC4/RTC.c **** 
 498:Generated_Source\PSoC4/RTC.c ****     /*******************************************************************************
 499:Generated_Source\PSoC4/RTC.c ****     * Function Name: RTC_SetAlarmMask
 500:Generated_Source\PSoC4/RTC.c ****     ****************************************************************************//**
 501:Generated_Source\PSoC4/RTC.c ****     *
 502:Generated_Source\PSoC4/RTC.c ****     * \brief
 503:Generated_Source\PSoC4/RTC.c ****     *  Writes the Alarm Mask software register with one bit per time/date entry.
 504:Generated_Source\PSoC4/RTC.c ****     *  The alarm is true when all masked time/date values match the Alarm values.
 505:Generated_Source\PSoC4/RTC.c ****     *  Generated only if the alarm functionality is enabled.
 506:Generated_Source\PSoC4/RTC.c ****     *
 507:Generated_Source\PSoC4/RTC.c ****     * \param
 508:Generated_Source\PSoC4/RTC.c ****     *  mask The Alarm Mask software register value. The values shown below can be
 509:Generated_Source\PSoC4/RTC.c ****     *  OR'ed and passed as an argument as well.
 510:Generated_Source\PSoC4/RTC.c ****     * \param
 511:Generated_Source\PSoC4/RTC.c ****     *  RTC_ALARM_SEC_MASK The second alarm mask allows
 512:Generated_Source\PSoC4/RTC.c ****     *  matching the alarm second register with the current second register.
 513:Generated_Source\PSoC4/RTC.c ****     * \param
 514:Generated_Source\PSoC4/RTC.c ****     *  RTC_ALARM_MIN_MASK The minute alarm mask allows matching the
 515:Generated_Source\PSoC4/RTC.c ****     *  alarm minute register with the current minute register.
 516:Generated_Source\PSoC4/RTC.c ****     * \param
 517:Generated_Source\PSoC4/RTC.c ****     *  RTC_ALARM_HOUR_MASK The hour alarm mask allows
 518:Generated_Source\PSoC4/RTC.c ****     * matching the alarm hour register with the current hour register.
ARM GAS  C:\Users\okuntso\AppData\Local\Temp\ccSegaCM.s 			page 63


 519:Generated_Source\PSoC4/RTC.c ****     * \param
 520:Generated_Source\PSoC4/RTC.c ****     *  RTC_ALARM_DAYOFWEEK_MASK The day of the week alarm mask 
 521:Generated_Source\PSoC4/RTC.c ****     * allows matching the alarm day of the week register with the current day of
 522:Generated_Source\PSoC4/RTC.c ****     * the week register.
 523:Generated_Source\PSoC4/RTC.c ****     * \param
 524:Generated_Source\PSoC4/RTC.c ****     * RTC_ALARM_DAYOFMONTH_MASK The day of the month alarm mask
 525:Generated_Source\PSoC4/RTC.c ****     * allows matching the alarm day of the month register with the current day 
 526:Generated_Source\PSoC4/RTC.c ****     * of the month register.
 527:Generated_Source\PSoC4/RTC.c ****     * \param
 528:Generated_Source\PSoC4/RTC.c ****     * RTC_ALARM_MONTH_MASK The month alarm mask allows matching 
 529:Generated_Source\PSoC4/RTC.c ****     * the alarm month register with the current month register.
 530:Generated_Source\PSoC4/RTC.c ****     * \param
 531:Generated_Source\PSoC4/RTC.c ****     * RTC_ALARM_YEAR_MASK The year alarm mask allows matching the
 532:Generated_Source\PSoC4/RTC.c ****     *  alarm year register with the current year register.
 533:Generated_Source\PSoC4/RTC.c ****     *
 534:Generated_Source\PSoC4/RTC.c ****     *******************************************************************************/
 535:Generated_Source\PSoC4/RTC.c ****     void RTC_SetAlarmMask(uint32 mask)
 536:Generated_Source\PSoC4/RTC.c ****     {
 537:Generated_Source\PSoC4/RTC.c ****         RTC_alarmCfgMask = (uint8)mask;
 538:Generated_Source\PSoC4/RTC.c ****         RTC_unixTimeAlarm = RTC_ConstructUnixAlarmTime(&RTC_alarmCfgTimeDate, (uint8)mask);
 539:Generated_Source\PSoC4/RTC.c ****     }
 540:Generated_Source\PSoC4/RTC.c **** 
 541:Generated_Source\PSoC4/RTC.c **** 
 542:Generated_Source\PSoC4/RTC.c ****     /*******************************************************************************
 543:Generated_Source\PSoC4/RTC.c ****     * Function Name: RTC_GetAlarmMask
 544:Generated_Source\PSoC4/RTC.c ****     ****************************************************************************//**
 545:Generated_Source\PSoC4/RTC.c ****     *
 546:Generated_Source\PSoC4/RTC.c ****     * \brief
 547:Generated_Source\PSoC4/RTC.c ****     *  Reads the Alarm Mask software register. Generated only if the alarm 
 548:Generated_Source\PSoC4/RTC.c ****     * functionality is enabled.
 549:Generated_Source\PSoC4/RTC.c ****     *
 550:Generated_Source\PSoC4/RTC.c ****     * \return
 551:Generated_Source\PSoC4/RTC.c ****     *  The Alarm Mask value with each bit representing the status of the alarm 
 552:Generated_Source\PSoC4/RTC.c ****     * time/date match enable.
 553:Generated_Source\PSoC4/RTC.c ****     *
 554:Generated_Source\PSoC4/RTC.c ****     * \return
 555:Generated_Source\PSoC4/RTC.c ****     *  RTC_ALARM_SEC_MASK - The second alarm mask allows matching the
 556:Generated_Source\PSoC4/RTC.c ****     * alarm second register with the current second register.
 557:Generated_Source\PSoC4/RTC.c ****     *
 558:Generated_Source\PSoC4/RTC.c ****     * \return
 559:Generated_Source\PSoC4/RTC.c ****     * RTC_ALARM_MIN_MASK - The minute alarm mask allows matching the 
 560:Generated_Source\PSoC4/RTC.c ****     * alarm minute register with the current minute register.
 561:Generated_Source\PSoC4/RTC.c ****     *
 562:Generated_Source\PSoC4/RTC.c ****     * \return
 563:Generated_Source\PSoC4/RTC.c ****     *  RTC_ALARM_HOUR_MASK - The hour alarm mask allows matching the 
 564:Generated_Source\PSoC4/RTC.c ****     * alarm hour register with the current hour register.
 565:Generated_Source\PSoC4/RTC.c ****     *
 566:Generated_Source\PSoC4/RTC.c ****     * \return
 567:Generated_Source\PSoC4/RTC.c ****     *  RTC_ALARM_DAYOFWEEK_MASK - The day of the week alarm mask allows
 568:Generated_Source\PSoC4/RTC.c ****     * matching the alarm day of the week register with the current day of the 
 569:Generated_Source\PSoC4/RTC.c ****     * week register.
 570:Generated_Source\PSoC4/RTC.c ****     *
 571:Generated_Source\PSoC4/RTC.c ****     * \return
 572:Generated_Source\PSoC4/RTC.c ****     *  RTC_ALARM_DAYOFMONTH_MASK - The day of the month alarm mask 
 573:Generated_Source\PSoC4/RTC.c ****     * allows matching the alarm day of the month register with the current day of 
 574:Generated_Source\PSoC4/RTC.c ****     * the month register.
 575:Generated_Source\PSoC4/RTC.c ****     *
ARM GAS  C:\Users\okuntso\AppData\Local\Temp\ccSegaCM.s 			page 64


 576:Generated_Source\PSoC4/RTC.c ****     * \return
 577:Generated_Source\PSoC4/RTC.c ****     *  RTC_ALARM_MONTH_MASK - The month alarm mask allows matching 
 578:Generated_Source\PSoC4/RTC.c ****     * the alarm month register with the current month register.
 579:Generated_Source\PSoC4/RTC.c ****     *
 580:Generated_Source\PSoC4/RTC.c ****     * \return
 581:Generated_Source\PSoC4/RTC.c ****     *  RTC_ALARM_YEAR_MASK - The year alarm mask allows matching the
 582:Generated_Source\PSoC4/RTC.c ****     * alarm year register with the current year register.
 583:Generated_Source\PSoC4/RTC.c ****     *
 584:Generated_Source\PSoC4/RTC.c ****     *******************************************************************************/
 585:Generated_Source\PSoC4/RTC.c ****     uint32 RTC_GetAlarmMask(void)
 586:Generated_Source\PSoC4/RTC.c ****     {
 587:Generated_Source\PSoC4/RTC.c ****         return((uint32)RTC_alarmCfgMask);
 588:Generated_Source\PSoC4/RTC.c ****     }
 589:Generated_Source\PSoC4/RTC.c **** 
 590:Generated_Source\PSoC4/RTC.c **** 
 591:Generated_Source\PSoC4/RTC.c ****     /*******************************************************************************
 592:Generated_Source\PSoC4/RTC.c ****     * Function Name: RTC_GetAlarmStatus
 593:Generated_Source\PSoC4/RTC.c ****     ****************************************************************************//**
 594:Generated_Source\PSoC4/RTC.c ****     *
 595:Generated_Source\PSoC4/RTC.c ****     * \brief
 596:Generated_Source\PSoC4/RTC.c ****     *  Returns the alarm status of RTC.
 597:Generated_Source\PSoC4/RTC.c ****     *
 598:Generated_Source\PSoC4/RTC.c ****     * \return
 599:Generated_Source\PSoC4/RTC.c ****     *  The Alarm active status. This bit is high when the current time and date match the alarm
 600:Generated_Source\PSoC4/RTC.c ****     *  time and date.
 601:Generated_Source\PSoC4/RTC.c ****     *
 602:Generated_Source\PSoC4/RTC.c ****     * \return
 603:Generated_Source\PSoC4/RTC.c ****     *  0 - The Alarm status is not active.
 604:Generated_Source\PSoC4/RTC.c ****     * \return
 605:Generated_Source\PSoC4/RTC.c ****     *  1 - The Alarm status is active.
 606:Generated_Source\PSoC4/RTC.c ****     *
 607:Generated_Source\PSoC4/RTC.c ****     *******************************************************************************/
 608:Generated_Source\PSoC4/RTC.c ****     uint32 RTC_GetAlarmStatus(void)
 609:Generated_Source\PSoC4/RTC.c ****     {
 610:Generated_Source\PSoC4/RTC.c ****         return((0uL != (RTC_currentTimeDate.status & (1uL << RTC_STATUS_ALARM_OFFSET))) ? 1uL : 0uL
 611:Generated_Source\PSoC4/RTC.c ****     }
 612:Generated_Source\PSoC4/RTC.c **** 
 613:Generated_Source\PSoC4/RTC.c **** 
 614:Generated_Source\PSoC4/RTC.c ****     /*******************************************************************************
 615:Generated_Source\PSoC4/RTC.c ****     * Function Name: RTC_ClearAlarmStatus
 616:Generated_Source\PSoC4/RTC.c ****     ****************************************************************************//**
 617:Generated_Source\PSoC4/RTC.c ****     *
 618:Generated_Source\PSoC4/RTC.c ****     * \brief
 619:Generated_Source\PSoC4/RTC.c ****     *  Clears the alarm status of RTC.
 620:Generated_Source\PSoC4/RTC.c ****     *
 621:Generated_Source\PSoC4/RTC.c ****     * \note
 622:Generated_Source\PSoC4/RTC.c ****     * The Alarm active (AA) flag clears after read. This bit will be set in the next
 623:Generated_Source\PSoC4/RTC.c ****     * alarm match event only. If Alarm is set on only minutes and the alarm
 624:Generated_Source\PSoC4/RTC.c ****     * minutes is 20 minutes - the alarm triggers once every 20th minute of
 625:Generated_Source\PSoC4/RTC.c ****     * every hour.
 626:Generated_Source\PSoC4/RTC.c ****     *
 627:Generated_Source\PSoC4/RTC.c ****     *******************************************************************************/
 628:Generated_Source\PSoC4/RTC.c ****     void RTC_ClearAlarmStatus(void)
 629:Generated_Source\PSoC4/RTC.c ****     {
 630:Generated_Source\PSoC4/RTC.c ****         RTC_currentTimeDate.status &= (~(1uL << RTC_STATUS_ALARM_OFFSET));
 631:Generated_Source\PSoC4/RTC.c ****         RTC_alarmCurStatus = 0u;
 632:Generated_Source\PSoC4/RTC.c ****     }
ARM GAS  C:\Users\okuntso\AppData\Local\Temp\ccSegaCM.s 			page 65


 633:Generated_Source\PSoC4/RTC.c **** 
 634:Generated_Source\PSoC4/RTC.c **** 
 635:Generated_Source\PSoC4/RTC.c ****     /*******************************************************************************
 636:Generated_Source\PSoC4/RTC.c ****     * Function Name: RTC_SetAlarmHandler
 637:Generated_Source\PSoC4/RTC.c ****     ****************************************************************************//**
 638:Generated_Source\PSoC4/RTC.c ****     *
 639:Generated_Source\PSoC4/RTC.c ****     * \brief
 640:Generated_Source\PSoC4/RTC.c ****     *  This API sets the function to be called when the alarm goes off / triggers.
 641:Generated_Source\PSoC4/RTC.c ****     *  This API is generated only if the alarm functionality is enabled in the
 642:Generated_Source\PSoC4/RTC.c ****     *  customizer.
 643:Generated_Source\PSoC4/RTC.c ****     *
 644:Generated_Source\PSoC4/RTC.c ****     * \param
 645:Generated_Source\PSoC4/RTC.c ****     *  CallbackFunction The callback function address.
 646:Generated_Source\PSoC4/RTC.c ****     *
 647:Generated_Source\PSoC4/RTC.c ****     * \return
 648:Generated_Source\PSoC4/RTC.c ****     *  A previous callback function address.
 649:Generated_Source\PSoC4/RTC.c ****     *
 650:Generated_Source\PSoC4/RTC.c ****     *******************************************************************************/
 651:Generated_Source\PSoC4/RTC.c ****     void* RTC_SetAlarmHandler(void (*CallbackFunction)(void))
 652:Generated_Source\PSoC4/RTC.c ****     {
 653:Generated_Source\PSoC4/RTC.c ****         void (*tmpCallbackPtr)(void);
 654:Generated_Source\PSoC4/RTC.c **** 
 655:Generated_Source\PSoC4/RTC.c ****         tmpCallbackPtr = RTC_alarmCallbackPtr;
 656:Generated_Source\PSoC4/RTC.c ****         RTC_alarmCallbackPtr = CallbackFunction;
 657:Generated_Source\PSoC4/RTC.c **** 
 658:Generated_Source\PSoC4/RTC.c ****         return((void*)tmpCallbackPtr);
 659:Generated_Source\PSoC4/RTC.c ****     }
 660:Generated_Source\PSoC4/RTC.c **** 
 661:Generated_Source\PSoC4/RTC.c **** 
 662:Generated_Source\PSoC4/RTC.c ****     /*******************************************************************************
 663:Generated_Source\PSoC4/RTC.c ****     * Function Name: RTC_GetNexAlarmTime
 664:Generated_Source\PSoC4/RTC.c ****     ****************************************************************************//**
 665:Generated_Source\PSoC4/RTC.c ****     *
 666:Generated_Source\PSoC4/RTC.c ****     * \brief
 667:Generated_Source\PSoC4/RTC.c ****     *  This is an internal function that calculates the time of the next alarm
 668:Generated_Source\PSoC4/RTC.c ****     *  in the UNIX format taking into account the current "Alarm Config Mask".
 669:Generated_Source\PSoC4/RTC.c ****     *
 670:Generated_Source\PSoC4/RTC.c ****     * \param
 671:Generated_Source\PSoC4/RTC.c ****     *  curUnixTime The current time value in the UNIX format.
 672:Generated_Source\PSoC4/RTC.c ****     *
 673:Generated_Source\PSoC4/RTC.c ****     * \param
 674:Generated_Source\PSoC4/RTC.c ****     *  alarmCfgMask The current Alarm Config Mask.
 675:Generated_Source\PSoC4/RTC.c ****     *
 676:Generated_Source\PSoC4/RTC.c ****     * \return Returns time of the next alarm in the UNIX format.
 677:Generated_Source\PSoC4/RTC.c ****     *
 678:Generated_Source\PSoC4/RTC.c ****     *******************************************************************************/
 679:Generated_Source\PSoC4/RTC.c ****     uint64 RTC_GetNexAlarmTime(uint64 curUnixTime, uint8 alarmCfgMask)
 680:Generated_Source\PSoC4/RTC.c ****     {
 681:Generated_Source\PSoC4/RTC.c ****         uint32 prevVal;
 682:Generated_Source\PSoC4/RTC.c ****         uint32 nextVal;
 683:Generated_Source\PSoC4/RTC.c ****         uint32 carryFlag;
 684:Generated_Source\PSoC4/RTC.c ****         uint32 daysInMonth;
 685:Generated_Source\PSoC4/RTC.c ****         RTC_DATE_TIME curDateTime;
 686:Generated_Source\PSoC4/RTC.c **** 
 687:Generated_Source\PSoC4/RTC.c ****         carryFlag = 1u;
 688:Generated_Source\PSoC4/RTC.c ****         RTC_UnixToDateTime(&curDateTime, curUnixTime, (uint32)RTC_24_HOURS_FORMAT);
 689:Generated_Source\PSoC4/RTC.c **** 
ARM GAS  C:\Users\okuntso\AppData\Local\Temp\ccSegaCM.s 			page 66


 690:Generated_Source\PSoC4/RTC.c ****         /* Calculates Second value of next alarm time based on current time and Alarm Config Mask. 
 691:Generated_Source\PSoC4/RTC.c ****         if(0uL != ((~((uint32)alarmCfgMask)) & RTC_ALARM_SEC_MASK))
 692:Generated_Source\PSoC4/RTC.c ****         {
 693:Generated_Source\PSoC4/RTC.c ****             prevVal = RTC_GetSecond(curDateTime.time);
 694:Generated_Source\PSoC4/RTC.c ****             nextVal = RTC_GetNextMinSec(prevVal);
 695:Generated_Source\PSoC4/RTC.c ****             curDateTime.time = RTC_SetSecond(curDateTime.time, nextVal);
 696:Generated_Source\PSoC4/RTC.c ****             carryFlag = (nextVal < prevVal) ? 1u : 0u;
 697:Generated_Source\PSoC4/RTC.c ****         }
 698:Generated_Source\PSoC4/RTC.c **** 
 699:Generated_Source\PSoC4/RTC.c ****         /* Calculates Minute value of next alarm time based on current time and Alarm Config Mask. 
 700:Generated_Source\PSoC4/RTC.c ****         if((0uL != carryFlag) && (0uL != ((~((uint32)alarmCfgMask)) & RTC_ALARM_MIN_MASK)))
 701:Generated_Source\PSoC4/RTC.c ****         {
 702:Generated_Source\PSoC4/RTC.c ****             prevVal = RTC_GetMinutes(curDateTime.time);
 703:Generated_Source\PSoC4/RTC.c ****             nextVal = RTC_GetNextMinSec(prevVal);
 704:Generated_Source\PSoC4/RTC.c ****             curDateTime.time = RTC_SetMinutes(curDateTime.time, nextVal);
 705:Generated_Source\PSoC4/RTC.c ****             carryFlag = (nextVal < prevVal) ? 1u : 0u;
 706:Generated_Source\PSoC4/RTC.c ****         }
 707:Generated_Source\PSoC4/RTC.c **** 
 708:Generated_Source\PSoC4/RTC.c ****         /* Calculates Hour value of next alarm time based on current time and Alarm Config Mask. */
 709:Generated_Source\PSoC4/RTC.c ****         if((0uL != carryFlag) && (0uL != ((~((uint32)alarmCfgMask)) & RTC_ALARM_HOUR_MASK)))
 710:Generated_Source\PSoC4/RTC.c ****         {
 711:Generated_Source\PSoC4/RTC.c ****             prevVal = RTC_GetHours(curDateTime.time);
 712:Generated_Source\PSoC4/RTC.c ****             nextVal = RTC_GetNextHour(prevVal);
 713:Generated_Source\PSoC4/RTC.c ****             curDateTime.time = RTC_SetHours(curDateTime.time, nextVal);
 714:Generated_Source\PSoC4/RTC.c ****             carryFlag = (nextVal < prevVal) ? 1u : 0u;
 715:Generated_Source\PSoC4/RTC.c ****         }
 716:Generated_Source\PSoC4/RTC.c **** 
 717:Generated_Source\PSoC4/RTC.c ****         /* Calculates Day value of next alarm time based on current time and Alarm Config Mask. */
 718:Generated_Source\PSoC4/RTC.c ****         if((0uL != carryFlag) && (0uL != ((~((uint32)alarmCfgMask)) & RTC_ALARM_DAYOFMONTH_MASK)))
 719:Generated_Source\PSoC4/RTC.c ****         {
 720:Generated_Source\PSoC4/RTC.c ****             prevVal = RTC_GetDay(curDateTime.date);
 721:Generated_Source\PSoC4/RTC.c ****             if(0u != (alarmCfgMask & RTC_ALARM_DAYOFWEEK_MASK))
 722:Generated_Source\PSoC4/RTC.c ****             {
 723:Generated_Source\PSoC4/RTC.c ****                 daysInMonth = RTC_DaysInMonth(RTC_GetMonth(curDateTime.date),
 724:Generated_Source\PSoC4/RTC.c ****                                                            RTC_GetYear(curDateTime.date));
 725:Generated_Source\PSoC4/RTC.c ****                 nextVal = prevVal + RTC_DAYS_PER_WEEK;
 726:Generated_Source\PSoC4/RTC.c ****                 nextVal = (nextVal > daysInMonth) ? (nextVal - daysInMonth) : nextVal;
 727:Generated_Source\PSoC4/RTC.c ****             }
 728:Generated_Source\PSoC4/RTC.c ****             else
 729:Generated_Source\PSoC4/RTC.c ****             {
 730:Generated_Source\PSoC4/RTC.c ****                 nextVal = RTC_GetNextDay(RTC_GetYear(curDateTime.date),
 731:Generated_Source\PSoC4/RTC.c ****                                                       RTC_GetMonth(curDateTime.date),
 732:Generated_Source\PSoC4/RTC.c ****                                                       RTC_GetDay(curDateTime.date),
 733:Generated_Source\PSoC4/RTC.c ****                                                       (~((uint32)alarmCfgMask)));
 734:Generated_Source\PSoC4/RTC.c ****             }
 735:Generated_Source\PSoC4/RTC.c ****             curDateTime.date = RTC_SetDay(curDateTime.date, nextVal);
 736:Generated_Source\PSoC4/RTC.c ****             carryFlag = (nextVal < prevVal) ? 1u : 0u;
 737:Generated_Source\PSoC4/RTC.c ****         }
 738:Generated_Source\PSoC4/RTC.c **** 
 739:Generated_Source\PSoC4/RTC.c ****         /* Calculates Month value of next alarm time based on current time and Alarm Config Mask. *
 740:Generated_Source\PSoC4/RTC.c ****         if((0uL != carryFlag) && (0uL != ((~((uint32)alarmCfgMask)) & RTC_ALARM_MONTH_MASK)))
 741:Generated_Source\PSoC4/RTC.c ****         {
 742:Generated_Source\PSoC4/RTC.c ****             prevVal = RTC_GetMonth(curDateTime.date);
 743:Generated_Source\PSoC4/RTC.c ****             nextVal = RTC_GetNextMonth(prevVal);
 744:Generated_Source\PSoC4/RTC.c ****             curDateTime.date = RTC_SetMonth(curDateTime.date, nextVal);
 745:Generated_Source\PSoC4/RTC.c ****             carryFlag = (nextVal < prevVal) ? 1u : 0u;
 746:Generated_Source\PSoC4/RTC.c ****         }
ARM GAS  C:\Users\okuntso\AppData\Local\Temp\ccSegaCM.s 			page 67


 747:Generated_Source\PSoC4/RTC.c **** 
 748:Generated_Source\PSoC4/RTC.c ****         /* Calculates Year value of next alarm time based on current time and Alarm Config Mask. */
 749:Generated_Source\PSoC4/RTC.c ****         if((0uL != carryFlag) && (0uL != ((~((uint32)alarmCfgMask)) & RTC_ALARM_YEAR_MASK)))
 750:Generated_Source\PSoC4/RTC.c ****         {
 751:Generated_Source\PSoC4/RTC.c ****             prevVal = RTC_GetYear(curDateTime.date);
 752:Generated_Source\PSoC4/RTC.c ****             nextVal = RTC_GetNextYear(prevVal);
 753:Generated_Source\PSoC4/RTC.c ****             curDateTime.date = RTC_SetYear(curDateTime.date, nextVal);
 754:Generated_Source\PSoC4/RTC.c ****         }
 755:Generated_Source\PSoC4/RTC.c **** 
 756:Generated_Source\PSoC4/RTC.c ****         return(RTC_DateTimeToUnix(curDateTime.date, curDateTime.time));
 757:Generated_Source\PSoC4/RTC.c ****     }
 758:Generated_Source\PSoC4/RTC.c **** 
 759:Generated_Source\PSoC4/RTC.c **** 
 760:Generated_Source\PSoC4/RTC.c ****     /*******************************************************************************
 761:Generated_Source\PSoC4/RTC.c ****     * Function Name: RTC_ConstructUnixAlarmTime
 762:Generated_Source\PSoC4/RTC.c ****     ****************************************************************************//**
 763:Generated_Source\PSoC4/RTC.c ****     *
 764:Generated_Source\PSoC4/RTC.c ****     * \brief
 765:Generated_Source\PSoC4/RTC.c ****     *  This is an internal function that calculates the time of the first alarm
 766:Generated_Source\PSoC4/RTC.c ****     *  in the UNIX format taking into account the current "Alarm Config Mask".
 767:Generated_Source\PSoC4/RTC.c ****     *
 768:Generated_Source\PSoC4/RTC.c ****     * \param
 769:Generated_Source\PSoC4/RTC.c ****     *  alarmTime Desired alarm time in the regular time format.
 770:Generated_Source\PSoC4/RTC.c ****     *
 771:Generated_Source\PSoC4/RTC.c ****     * \param
 772:Generated_Source\PSoC4/RTC.c ****     *  alarmCfgMask The current Alarm Config Mask.
 773:Generated_Source\PSoC4/RTC.c ****     *
 774:Generated_Source\PSoC4/RTC.c ****     * \return
 775:Generated_Source\PSoC4/RTC.c ****     *  time of the first alarm in the UNIX format.
 776:Generated_Source\PSoC4/RTC.c ****     *
 777:Generated_Source\PSoC4/RTC.c ****     *******************************************************************************/
 778:Generated_Source\PSoC4/RTC.c ****     uint64 RTC_ConstructUnixAlarmTime(const RTC_DATE_TIME* alarmTime, uint8 alarmCfgMask)
 779:Generated_Source\PSoC4/RTC.c ****     {
 780:Generated_Source\PSoC4/RTC.c ****         uint32 tmpCurVal;
 781:Generated_Source\PSoC4/RTC.c ****         uint32 tmpNextVal;
 782:Generated_Source\PSoC4/RTC.c ****         uint32 carryFlag;
 783:Generated_Source\PSoC4/RTC.c ****         uint32 tmpAlarmDate;
 784:Generated_Source\PSoC4/RTC.c ****         uint32 tmpAlarmTime;
 785:Generated_Source\PSoC4/RTC.c ****         uint32 daysInMonth;
 786:Generated_Source\PSoC4/RTC.c ****         RTC_DATE_TIME curDateTime;
 787:Generated_Source\PSoC4/RTC.c **** 
 788:Generated_Source\PSoC4/RTC.c ****         tmpAlarmDate = 0u;
 789:Generated_Source\PSoC4/RTC.c ****         tmpAlarmTime = 0u;
 790:Generated_Source\PSoC4/RTC.c ****         RTC_UnixToDateTime(&curDateTime, RTC_unixTime, (uint32)RTC_24_HOURS_FORMAT);
 791:Generated_Source\PSoC4/RTC.c **** 
 792:Generated_Source\PSoC4/RTC.c ****         /* Calculates Seconds value of first Alarm based on current time and Alarm Config Mask. */
 793:Generated_Source\PSoC4/RTC.c ****         tmpCurVal =  RTC_GetSecond(curDateTime.time);
 794:Generated_Source\PSoC4/RTC.c ****         tmpNextVal = RTC_GetSecond(alarmTime->time);
 795:Generated_Source\PSoC4/RTC.c ****         carryFlag = (tmpCurVal > tmpNextVal) ? 1u : 0u;
 796:Generated_Source\PSoC4/RTC.c ****         if(0u != ((~((uint32)alarmCfgMask)) & RTC_ALARM_SEC_MASK))
 797:Generated_Source\PSoC4/RTC.c ****         {
 798:Generated_Source\PSoC4/RTC.c ****             tmpNextVal = (0u != carryFlag) ? 0u : tmpCurVal;
 799:Generated_Source\PSoC4/RTC.c ****         }
 800:Generated_Source\PSoC4/RTC.c ****         tmpAlarmTime = RTC_SetSecond(tmpAlarmTime, tmpNextVal);
 801:Generated_Source\PSoC4/RTC.c **** 
 802:Generated_Source\PSoC4/RTC.c ****         /* Calculates Minutes value of first Alarm based on current time and Alarm Config Mask. */
 803:Generated_Source\PSoC4/RTC.c ****         tmpCurVal  = RTC_GetMinutes(curDateTime.time);
ARM GAS  C:\Users\okuntso\AppData\Local\Temp\ccSegaCM.s 			page 68


 804:Generated_Source\PSoC4/RTC.c ****         if(0u != ((~((uint32)alarmCfgMask)) & RTC_ALARM_MIN_MASK))
 805:Generated_Source\PSoC4/RTC.c ****         {
 806:Generated_Source\PSoC4/RTC.c ****             tmpNextVal = (0u != carryFlag) ? RTC_GetNextMinSec(tmpCurVal) : tmpCurVal;
 807:Generated_Source\PSoC4/RTC.c ****         }
 808:Generated_Source\PSoC4/RTC.c ****         else
 809:Generated_Source\PSoC4/RTC.c ****         {
 810:Generated_Source\PSoC4/RTC.c ****             tmpNextVal = RTC_GetMinutes(alarmTime->time);
 811:Generated_Source\PSoC4/RTC.c ****         }
 812:Generated_Source\PSoC4/RTC.c ****         carryFlag  = (tmpNextVal < tmpCurVal) ? 1u : 0u;
 813:Generated_Source\PSoC4/RTC.c ****         tmpAlarmTime =  RTC_SetMinutes(tmpAlarmTime, tmpNextVal);
 814:Generated_Source\PSoC4/RTC.c **** 
 815:Generated_Source\PSoC4/RTC.c ****         /* Calculates Hours value of first Alarm based on current time and Alarm Config Mask. */
 816:Generated_Source\PSoC4/RTC.c ****         tmpCurVal  = RTC_GetHours(curDateTime.time);
 817:Generated_Source\PSoC4/RTC.c ****         if(0u != ((~((uint32)alarmCfgMask)) & RTC_ALARM_HOUR_MASK))
 818:Generated_Source\PSoC4/RTC.c ****         {
 819:Generated_Source\PSoC4/RTC.c ****             tmpNextVal = (0u != carryFlag) ? RTC_GetNextHour(tmpCurVal) : tmpCurVal;
 820:Generated_Source\PSoC4/RTC.c ****         }
 821:Generated_Source\PSoC4/RTC.c ****         else
 822:Generated_Source\PSoC4/RTC.c ****         {
 823:Generated_Source\PSoC4/RTC.c ****             tmpNextVal = RTC_GetHours(alarmTime->time);
 824:Generated_Source\PSoC4/RTC.c ****             if((uint32)RTC_24_HOURS_FORMAT != RTC_GetTimeFormat(alarmTime->time))
 825:Generated_Source\PSoC4/RTC.c ****             {
 826:Generated_Source\PSoC4/RTC.c ****                 if((uint32)RTC_AM != RTC_GetAmPm(alarmTime->time))
 827:Generated_Source\PSoC4/RTC.c ****                 {
 828:Generated_Source\PSoC4/RTC.c ****                     tmpNextVal += RTC_HOURS_PER_HALF_DAY;
 829:Generated_Source\PSoC4/RTC.c ****                 }
 830:Generated_Source\PSoC4/RTC.c ****             }
 831:Generated_Source\PSoC4/RTC.c ****         }
 832:Generated_Source\PSoC4/RTC.c ****         carryFlag  = (tmpNextVal < tmpCurVal) ? 1u : 0u;
 833:Generated_Source\PSoC4/RTC.c ****         tmpAlarmTime =  RTC_SetHours(tmpAlarmTime, tmpNextVal);
 834:Generated_Source\PSoC4/RTC.c **** 
 835:Generated_Source\PSoC4/RTC.c ****         /* Calculates Day value of first Alarm based on current time and Alarm Config Mask. */
 836:Generated_Source\PSoC4/RTC.c ****         tmpCurVal  = RTC_GetDay(curDateTime.date);
 837:Generated_Source\PSoC4/RTC.c ****         tmpNextVal = RTC_GetDay(alarmTime->date);
 838:Generated_Source\PSoC4/RTC.c ****         if(0u != ((~((uint32)alarmCfgMask)) & RTC_ALARM_DAYOFMONTH_MASK))
 839:Generated_Source\PSoC4/RTC.c ****         {
 840:Generated_Source\PSoC4/RTC.c ****             if(0u != (alarmCfgMask & RTC_ALARM_DAYOFWEEK_MASK))
 841:Generated_Source\PSoC4/RTC.c ****             {
 842:Generated_Source\PSoC4/RTC.c ****                 daysInMonth = RTC_DaysInMonth(RTC_GetMonth(curDateTime.date),
 843:Generated_Source\PSoC4/RTC.c ****                                                            RTC_GetYear(curDateTime.date));
 844:Generated_Source\PSoC4/RTC.c ****                 tmpNextVal = (curDateTime.dayOfWeek <= alarmTime->dayOfWeek) ? (alarmTime->dayOfWee
 845:Generated_Source\PSoC4/RTC.c ****                                 ((RTC_DAYS_PER_WEEK - curDateTime.dayOfWeek) + alarmTime->dayOfWeek
 846:Generated_Source\PSoC4/RTC.c ****                 tmpNextVal = tmpCurVal + tmpNextVal;
 847:Generated_Source\PSoC4/RTC.c ****                 tmpNextVal = (tmpNextVal > daysInMonth) ? (tmpNextVal - daysInMonth) : tmpNextVal;
 848:Generated_Source\PSoC4/RTC.c ****             }
 849:Generated_Source\PSoC4/RTC.c ****             else
 850:Generated_Source\PSoC4/RTC.c ****             {
 851:Generated_Source\PSoC4/RTC.c ****                 tmpNextVal = (0u == carryFlag) ? tmpCurVal : RTC_GetNextDay(RTC_GetYear(curDateTime
 852:Generated_Source\PSoC4/RTC.c ****                                                               RTC_GetMonth(curDateTime.date),
 853:Generated_Source\PSoC4/RTC.c ****                                                                tmpCurVal,
 854:Generated_Source\PSoC4/RTC.c ****                                                               RTC_ALARM_DAYOFMONTH_MASK);
 855:Generated_Source\PSoC4/RTC.c ****             }
 856:Generated_Source\PSoC4/RTC.c ****         }
 857:Generated_Source\PSoC4/RTC.c ****         carryFlag  = (tmpNextVal < tmpCurVal) ? 1u : 0u;
 858:Generated_Source\PSoC4/RTC.c ****         tmpAlarmDate =  RTC_SetDay(tmpAlarmDate, tmpNextVal);
 859:Generated_Source\PSoC4/RTC.c **** 
 860:Generated_Source\PSoC4/RTC.c ****         /* Calculates Month value of first Alarm based on current time and Alarm Config Mask. */
ARM GAS  C:\Users\okuntso\AppData\Local\Temp\ccSegaCM.s 			page 69


 861:Generated_Source\PSoC4/RTC.c ****         tmpCurVal  = RTC_GetMonth(curDateTime.date);
 862:Generated_Source\PSoC4/RTC.c ****         if(0u != ((~((uint32)alarmCfgMask)) & RTC_ALARM_MONTH_MASK))
 863:Generated_Source\PSoC4/RTC.c ****         {
 864:Generated_Source\PSoC4/RTC.c ****             tmpNextVal = (0u != carryFlag) ? RTC_GetNextMonth(tmpCurVal) : tmpCurVal;
 865:Generated_Source\PSoC4/RTC.c ****         }
 866:Generated_Source\PSoC4/RTC.c ****         else
 867:Generated_Source\PSoC4/RTC.c ****         {
 868:Generated_Source\PSoC4/RTC.c ****             tmpNextVal = RTC_GetMonth(alarmTime->date);
 869:Generated_Source\PSoC4/RTC.c ****         }
 870:Generated_Source\PSoC4/RTC.c ****         carryFlag  = (tmpNextVal < tmpCurVal) ? 1u : 0u;
 871:Generated_Source\PSoC4/RTC.c ****         tmpAlarmDate =  RTC_SetMonth(tmpAlarmDate, tmpNextVal);
 872:Generated_Source\PSoC4/RTC.c **** 
 873:Generated_Source\PSoC4/RTC.c ****         /* Calculates Year value of first Alarm based on current time and Alarm Config Mask. */
 874:Generated_Source\PSoC4/RTC.c ****         tmpCurVal  = RTC_GetYear(curDateTime.date);
 875:Generated_Source\PSoC4/RTC.c ****         if(0u != ((~((uint32)alarmCfgMask)) & RTC_ALARM_MONTH_MASK))
 876:Generated_Source\PSoC4/RTC.c ****         {
 877:Generated_Source\PSoC4/RTC.c ****             tmpNextVal = (0u != carryFlag) ? RTC_GetNextYear(tmpCurVal) : tmpCurVal;
 878:Generated_Source\PSoC4/RTC.c ****         }
 879:Generated_Source\PSoC4/RTC.c ****         else
 880:Generated_Source\PSoC4/RTC.c ****         {
 881:Generated_Source\PSoC4/RTC.c ****             tmpNextVal = RTC_GetYear(alarmTime->date);
 882:Generated_Source\PSoC4/RTC.c ****         }
 883:Generated_Source\PSoC4/RTC.c ****         tmpAlarmDate =  RTC_SetYear(tmpAlarmDate, tmpNextVal);
 884:Generated_Source\PSoC4/RTC.c **** 
 885:Generated_Source\PSoC4/RTC.c ****         return(RTC_DateTimeToUnix(tmpAlarmDate, tmpAlarmTime));
 886:Generated_Source\PSoC4/RTC.c ****     }
 887:Generated_Source\PSoC4/RTC.c **** #endif/* (0u != RTC_INITIAL_ALARM_STATUS) */
 888:Generated_Source\PSoC4/RTC.c **** 
 889:Generated_Source\PSoC4/RTC.c **** 
 890:Generated_Source\PSoC4/RTC.c **** /*******************************************************************************
 891:Generated_Source\PSoC4/RTC.c **** * Function Name: RTC_ReadStatus
 892:Generated_Source\PSoC4/RTC.c **** ****************************************************************************//**
 893:Generated_Source\PSoC4/RTC.c **** *
 894:Generated_Source\PSoC4/RTC.c **** * \brief
 895:Generated_Source\PSoC4/RTC.c **** * Reads the Status software register, which has flags for DST (DST),
 896:Generated_Source\PSoC4/RTC.c **** * Leap Year (LY), AM/PM (AM_PM).
 897:Generated_Source\PSoC4/RTC.c **** *
 898:Generated_Source\PSoC4/RTC.c **** * \return
 899:Generated_Source\PSoC4/RTC.c **** * The values shown below are OR'ed and returned if more than one status
 900:Generated_Source\PSoC4/RTC.c **** * bits are set.
 901:Generated_Source\PSoC4/RTC.c **** *
 902:Generated_Source\PSoC4/RTC.c **** * \return
 903:Generated_Source\PSoC4/RTC.c **** * RTC_STATUS_DST - Status of Daylight Saving Time. This bit
 904:Generated_Source\PSoC4/RTC.c **** * goes high when the current time and date match the DST time and date and the 
 905:Generated_Source\PSoC4/RTC.c **** * time is incremented. This bit goes low after the DST interval and the time is 
 906:Generated_Source\PSoC4/RTC.c **** * decremented.
 907:Generated_Source\PSoC4/RTC.c **** *
 908:Generated_Source\PSoC4/RTC.c **** * \return
 909:Generated_Source\PSoC4/RTC.c **** * RTC_STATUS_LY - Status of Leap Year. This bit goes high when the 
 910:Generated_Source\PSoC4/RTC.c **** * current year is a leap year.
 911:Generated_Source\PSoC4/RTC.c **** *
 912:Generated_Source\PSoC4/RTC.c **** * \return
 913:Generated_Source\PSoC4/RTC.c **** * RTC_STATUS_AM_PM - Status of Current Time. This bit is low from 
 914:Generated_Source\PSoC4/RTC.c **** * midnight to noon and high from noon to midnight.
 915:Generated_Source\PSoC4/RTC.c **** *
 916:Generated_Source\PSoC4/RTC.c **** * \note
 917:Generated_Source\PSoC4/RTC.c **** * Reading the status without sync with the date and time read may cause an
ARM GAS  C:\Users\okuntso\AppData\Local\Temp\ccSegaCM.s 			page 70


 918:Generated_Source\PSoC4/RTC.c **** * error due to a roll-over at AM/PM, the end of a year, the end of a day;
 919:Generated_Source\PSoC4/RTC.c **** * RTC_GetDateAndTime() API is used to obtain the status and
 920:Generated_Source\PSoC4/RTC.c **** * the status member of the returned structure can be checked with the masks.
 921:Generated_Source\PSoC4/RTC.c **** *
 922:Generated_Source\PSoC4/RTC.c **** *******************************************************************************/
 923:Generated_Source\PSoC4/RTC.c **** uint32 RTC_ReadStatus(void)
 924:Generated_Source\PSoC4/RTC.c **** {
 1798              		.loc 2 924 0
 1799              		.cfi_startproc
 1800              		@ args = 0, pretend = 0, frame = 24
 1801              		@ frame_needed = 1, uses_anonymous_args = 0
 1802 0000 80B5     		push	{r7, lr}
 1803              		.cfi_def_cfa_offset 8
 1804              		.cfi_offset 7, -8
 1805              		.cfi_offset 14, -4
 1806 0002 86B0     		sub	sp, sp, #24
 1807              		.cfi_def_cfa_offset 32
 1808 0004 00AF     		add	r7, sp, #0
 1809              		.cfi_def_cfa_register 7
 925:Generated_Source\PSoC4/RTC.c ****     uint32 tmpYear;
 926:Generated_Source\PSoC4/RTC.c ****     RTC_DATE_TIME tmpTimeDate;
 927:Generated_Source\PSoC4/RTC.c **** 
 928:Generated_Source\PSoC4/RTC.c ****     RTC_GetDateAndTime(&tmpTimeDate);
 1810              		.loc 2 928 0
 1811 0006 3B1D     		adds	r3, r7, #4
 1812 0008 1800     		movs	r0, r3
 1813 000a FFF7FEFF 		bl	RTC_GetDateAndTime
 929:Generated_Source\PSoC4/RTC.c ****     tmpYear = RTC_GetYear(tmpTimeDate.date);
 1814              		.loc 2 929 0
 1815 000e 3B1D     		adds	r3, r7, #4
 1816 0010 5B68     		ldr	r3, [r3, #4]
 1817 0012 1800     		movs	r0, r3
 1818 0014 FFF7FEFF 		bl	RTC_GetYear
 1819 0018 0300     		movs	r3, r0
 1820 001a 7B61     		str	r3, [r7, #20]
 930:Generated_Source\PSoC4/RTC.c **** 
 931:Generated_Source\PSoC4/RTC.c ****     if(0uL != RTC_LeapYear(tmpYear))
 1821              		.loc 2 931 0
 1822 001c 7B69     		ldr	r3, [r7, #20]
 1823 001e 1800     		movs	r0, r3
 1824 0020 FFF7FEFF 		bl	RTC_LeapYear
 1825 0024 031E     		subs	r3, r0, #0
 1826 0026 06D0     		beq	.L96
 932:Generated_Source\PSoC4/RTC.c ****     {
 933:Generated_Source\PSoC4/RTC.c ****         RTC_currentTimeDate.status |= (1uL << RTC_STATUS_LY_OFFSET);
 1827              		.loc 2 933 0
 1828 0028 144B     		ldr	r3, .L101
 1829 002a DB68     		ldr	r3, [r3, #12]
 1830 002c 0822     		movs	r2, #8
 1831 002e 1A43     		orrs	r2, r3
 1832 0030 124B     		ldr	r3, .L101
 1833 0032 DA60     		str	r2, [r3, #12]
 1834 0034 06E0     		b	.L97
 1835              	.L96:
 934:Generated_Source\PSoC4/RTC.c ****     }
 935:Generated_Source\PSoC4/RTC.c ****     else
 936:Generated_Source\PSoC4/RTC.c ****     {
ARM GAS  C:\Users\okuntso\AppData\Local\Temp\ccSegaCM.s 			page 71


 937:Generated_Source\PSoC4/RTC.c ****         RTC_currentTimeDate.status &= ~(1uL << RTC_STATUS_LY_OFFSET);
 1836              		.loc 2 937 0
 1837 0036 114B     		ldr	r3, .L101
 1838 0038 DB68     		ldr	r3, [r3, #12]
 1839 003a 0822     		movs	r2, #8
 1840 003c 9343     		bics	r3, r2
 1841 003e 1A00     		movs	r2, r3
 1842 0040 0E4B     		ldr	r3, .L101
 1843 0042 DA60     		str	r2, [r3, #12]
 1844              	.L97:
 938:Generated_Source\PSoC4/RTC.c ****     }
 939:Generated_Source\PSoC4/RTC.c **** 
 940:Generated_Source\PSoC4/RTC.c **** 
 941:Generated_Source\PSoC4/RTC.c ****     if(0uL != RTC_GetAmPm(tmpTimeDate.time))
 1845              		.loc 2 941 0
 1846 0044 3B1D     		adds	r3, r7, #4
 1847 0046 1B68     		ldr	r3, [r3]
 1848 0048 1800     		movs	r0, r3
 1849 004a FFF7FEFF 		bl	RTC_GetAmPm
 1850 004e 031E     		subs	r3, r0, #0
 1851 0050 06D0     		beq	.L98
 942:Generated_Source\PSoC4/RTC.c ****     {
 943:Generated_Source\PSoC4/RTC.c ****         RTC_currentTimeDate.status |= (1uL << RTC_STATUS_AM_PM_OFFSET);
 1852              		.loc 2 943 0
 1853 0052 0A4B     		ldr	r3, .L101
 1854 0054 DB68     		ldr	r3, [r3, #12]
 1855 0056 1022     		movs	r2, #16
 1856 0058 1A43     		orrs	r2, r3
 1857 005a 084B     		ldr	r3, .L101
 1858 005c DA60     		str	r2, [r3, #12]
 1859 005e 06E0     		b	.L99
 1860              	.L98:
 944:Generated_Source\PSoC4/RTC.c ****     }
 945:Generated_Source\PSoC4/RTC.c ****     else
 946:Generated_Source\PSoC4/RTC.c ****     {
 947:Generated_Source\PSoC4/RTC.c ****         RTC_currentTimeDate.status &= ~(1uL << RTC_STATUS_AM_PM_OFFSET);
 1861              		.loc 2 947 0
 1862 0060 064B     		ldr	r3, .L101
 1863 0062 DB68     		ldr	r3, [r3, #12]
 1864 0064 1022     		movs	r2, #16
 1865 0066 9343     		bics	r3, r2
 1866 0068 1A00     		movs	r2, r3
 1867 006a 044B     		ldr	r3, .L101
 1868 006c DA60     		str	r2, [r3, #12]
 1869              	.L99:
 948:Generated_Source\PSoC4/RTC.c ****     }
 949:Generated_Source\PSoC4/RTC.c **** 
 950:Generated_Source\PSoC4/RTC.c ****     return(RTC_currentTimeDate.status);
 1870              		.loc 2 950 0
 1871 006e 034B     		ldr	r3, .L101
 1872 0070 DB68     		ldr	r3, [r3, #12]
 951:Generated_Source\PSoC4/RTC.c **** }
 1873              		.loc 2 951 0
 1874 0072 1800     		movs	r0, r3
 1875 0074 BD46     		mov	sp, r7
 1876 0076 06B0     		add	sp, sp, #24
 1877              		@ sp needed
ARM GAS  C:\Users\okuntso\AppData\Local\Temp\ccSegaCM.s 			page 72


 1878 0078 80BD     		pop	{r7, pc}
 1879              	.L102:
 1880 007a C046     		.align	2
 1881              	.L101:
 1882 007c 00000000 		.word	RTC_currentTimeDate
 1883              		.cfi_endproc
 1884              	.LFE38:
 1885              		.size	RTC_ReadStatus, .-RTC_ReadStatus
 1886              		.section	.text.RTC_SetDSTStartTime,"ax",%progbits
 1887              		.align	2
 1888              		.global	RTC_SetDSTStartTime
 1889              		.code	16
 1890              		.thumb_func
 1891              		.type	RTC_SetDSTStartTime, %function
 1892              	RTC_SetDSTStartTime:
 1893              	.LFB39:
 952:Generated_Source\PSoC4/RTC.c **** 
 953:Generated_Source\PSoC4/RTC.c **** 
 954:Generated_Source\PSoC4/RTC.c **** #if(0u != RTC_INITIAL_DST_STATUS)
 955:Generated_Source\PSoC4/RTC.c ****     /*******************************************************************************
 956:Generated_Source\PSoC4/RTC.c ****     * Function Name: RTC_SetDSTStartTime
 957:Generated_Source\PSoC4/RTC.c ****     ****************************************************************************//**
 958:Generated_Source\PSoC4/RTC.c ****     *
 959:Generated_Source\PSoC4/RTC.c ****     * \brief
 960:Generated_Source\PSoC4/RTC.c ****     *  Stores the DST Start time.
 961:Generated_Source\PSoC4/RTC.c ****     *
 962:Generated_Source\PSoC4/RTC.c ****     *  Only generated if DST is enabled. The date passed can be relative or fixed. 
 963:Generated_Source\PSoC4/RTC.c ****     *  For a relative date, the user needs to provide a valid day of a week, a 
 964:Generated_Source\PSoC4/RTC.c ****     *  week of a month and a month in the dstStartTime structure.
 965:Generated_Source\PSoC4/RTC.c ****     *  For a fixed date, the user needs to enter a valid day of a month and a month in
 966:Generated_Source\PSoC4/RTC.c ****     *  the dstStartTime structure. The hour value is optional and if invalid
 967:Generated_Source\PSoC4/RTC.c ****     *  taken as 00 hrs. Invalid entries are not stored and the DST start date
 968:Generated_Source\PSoC4/RTC.c ****     *  retains a previous value or no value at all.
 969:Generated_Source\PSoC4/RTC.c ****     *
 970:Generated_Source\PSoC4/RTC.c ****     * \param
 971:Generated_Source\PSoC4/RTC.c ****     *  dstStartTime The DST Start time register value.
 972:Generated_Source\PSoC4/RTC.c ****     *
 973:Generated_Source\PSoC4/RTC.c ****     * \param
 974:Generated_Source\PSoC4/RTC.c ****     *  type Defines the DST operation mode <br>
 975:Generated_Source\PSoC4/RTC.c ****     *  DST_DATE_RELATIVE - The DST start time is relative. <br>
 976:Generated_Source\PSoC4/RTC.c ****     *  DST_DATE_FIXED - The DST start time is fixed.
 977:Generated_Source\PSoC4/RTC.c ****     *
 978:Generated_Source\PSoC4/RTC.c ****     *******************************************************************************/
 979:Generated_Source\PSoC4/RTC.c ****     void RTC_SetDSTStartTime(const RTC_DST_TIME* dstStartTime,
 980:Generated_Source\PSoC4/RTC.c ****                                                 RTC_DST_DATETYPE_ENUM type)
 981:Generated_Source\PSoC4/RTC.c ****     {
 1894              		.loc 2 981 0
 1895              		.cfi_startproc
 1896              		@ args = 0, pretend = 0, frame = 8
 1897              		@ frame_needed = 1, uses_anonymous_args = 0
 1898 0000 90B5     		push	{r4, r7, lr}
 1899              		.cfi_def_cfa_offset 12
 1900              		.cfi_offset 4, -12
 1901              		.cfi_offset 7, -8
 1902              		.cfi_offset 14, -4
 1903 0002 83B0     		sub	sp, sp, #12
 1904              		.cfi_def_cfa_offset 24
ARM GAS  C:\Users\okuntso\AppData\Local\Temp\ccSegaCM.s 			page 73


 1905 0004 00AF     		add	r7, sp, #0
 1906              		.cfi_def_cfa_register 7
 1907 0006 7860     		str	r0, [r7, #4]
 1908 0008 0A00     		movs	r2, r1
 1909 000a FB1C     		adds	r3, r7, #3
 1910 000c 1A70     		strb	r2, [r3]
 982:Generated_Source\PSoC4/RTC.c ****         RTC_dstStartTime.timeFormat    = (uint8)type;
 1911              		.loc 2 982 0
 1912 000e 244B     		ldr	r3, .L110
 1913 0010 FA1C     		adds	r2, r7, #3
 1914 0012 1278     		ldrb	r2, [r2]
 1915 0014 1A75     		strb	r2, [r3, #20]
 983:Generated_Source\PSoC4/RTC.c ****         RTC_dstStartTime.hour          = dstStartTime->hour;
 1916              		.loc 2 983 0
 1917 0016 7B68     		ldr	r3, [r7, #4]
 1918 0018 1A68     		ldr	r2, [r3]
 1919 001a 214B     		ldr	r3, .L110
 1920 001c 1A60     		str	r2, [r3]
 984:Generated_Source\PSoC4/RTC.c ****         RTC_dstStartTime.dayOfWeek     = dstStartTime->dayOfWeek;
 1921              		.loc 2 984 0
 1922 001e 7B68     		ldr	r3, [r7, #4]
 1923 0020 5A68     		ldr	r2, [r3, #4]
 1924 0022 1F4B     		ldr	r3, .L110
 1925 0024 5A60     		str	r2, [r3, #4]
 985:Generated_Source\PSoC4/RTC.c ****         RTC_dstStartTime.weekOfMonth   = dstStartTime->weekOfMonth;
 1926              		.loc 2 985 0
 1927 0026 7B68     		ldr	r3, [r7, #4]
 1928 0028 DA68     		ldr	r2, [r3, #12]
 1929 002a 1D4B     		ldr	r3, .L110
 1930 002c DA60     		str	r2, [r3, #12]
 986:Generated_Source\PSoC4/RTC.c ****         RTC_dstStartTime.dayOfMonth    = dstStartTime->dayOfMonth;
 1931              		.loc 2 986 0
 1932 002e 7B68     		ldr	r3, [r7, #4]
 1933 0030 9A68     		ldr	r2, [r3, #8]
 1934 0032 1B4B     		ldr	r3, .L110
 1935 0034 9A60     		str	r2, [r3, #8]
 987:Generated_Source\PSoC4/RTC.c ****         RTC_dstStartTime.month         = dstStartTime->month;
 1936              		.loc 2 987 0
 1937 0036 7B68     		ldr	r3, [r7, #4]
 1938 0038 1A69     		ldr	r2, [r3, #16]
 1939 003a 194B     		ldr	r3, .L110
 1940 003c 1A61     		str	r2, [r3, #16]
 988:Generated_Source\PSoC4/RTC.c **** 
 989:Generated_Source\PSoC4/RTC.c ****         RTC_unixTimeDstStart = RTC_GetDstUnixTime(&RTC_dstStartTime);
 1941              		.loc 2 989 0
 1942 003e 184B     		ldr	r3, .L110
 1943 0040 1800     		movs	r0, r3
 1944 0042 FFF7FEFF 		bl	RTC_GetDstUnixTime
 1945 0046 0300     		movs	r3, r0
 1946 0048 0C00     		movs	r4, r1
 1947 004a 164A     		ldr	r2, .L110+4
 1948 004c 1360     		str	r3, [r2]
 1949 004e 5460     		str	r4, [r2, #4]
 990:Generated_Source\PSoC4/RTC.c **** 
 991:Generated_Source\PSoC4/RTC.c ****         if((RTC_unixTime >= RTC_unixTimeDstStart) &&
 1950              		.loc 2 991 0
 1951 0050 154B     		ldr	r3, .L110+8
ARM GAS  C:\Users\okuntso\AppData\Local\Temp\ccSegaCM.s 			page 74


 1952 0052 5C68     		ldr	r4, [r3, #4]
 1953 0054 1B68     		ldr	r3, [r3]
 1954 0056 134A     		ldr	r2, .L110+4
 1955 0058 1168     		ldr	r1, [r2]
 1956 005a 5268     		ldr	r2, [r2, #4]
 1957 005c A242     		cmp	r2, r4
 1958 005e 15D8     		bhi	.L104
 1959 0060 01D1     		bne	.L108
 1960 0062 9942     		cmp	r1, r3
 1961 0064 12D8     		bhi	.L104
 1962              	.L108:
 992:Generated_Source\PSoC4/RTC.c ****            (RTC_unixTime <= RTC_unixTimeDstStop))
 1963              		.loc 2 992 0 discriminator 1
 1964 0066 104B     		ldr	r3, .L110+8
 1965 0068 1968     		ldr	r1, [r3]
 1966 006a 5A68     		ldr	r2, [r3, #4]
 1967 006c 0F4B     		ldr	r3, .L110+12
 1968 006e 5C68     		ldr	r4, [r3, #4]
 1969 0070 1B68     		ldr	r3, [r3]
 991:Generated_Source\PSoC4/RTC.c ****            (RTC_unixTime <= RTC_unixTimeDstStop))
 1970              		.loc 2 991 0 discriminator 1
 1971 0072 A242     		cmp	r2, r4
 1972 0074 0AD8     		bhi	.L104
 1973 0076 01D1     		bne	.L109
 1974 0078 9942     		cmp	r1, r3
 1975 007a 07D8     		bhi	.L104
 1976              	.L109:
 993:Generated_Source\PSoC4/RTC.c ****         {
 994:Generated_Source\PSoC4/RTC.c ****             RTC_dstStatus = 1u;
 1977              		.loc 2 994 0
 1978 007c 0C4B     		ldr	r3, .L110+16
 1979 007e 0122     		movs	r2, #1
 1980 0080 1A70     		strb	r2, [r3]
 995:Generated_Source\PSoC4/RTC.c ****             RTC_dstTimeOffset = RTC_SECONDS_PER_HOUR;
 1981              		.loc 2 995 0
 1982 0082 0C4B     		ldr	r3, .L110+20
 1983 0084 E122     		movs	r2, #225
 1984 0086 1201     		lsls	r2, r2, #4
 1985 0088 1A60     		str	r2, [r3]
 1986 008a 05E0     		b	.L107
 1987              	.L104:
 996:Generated_Source\PSoC4/RTC.c ****         }
 997:Generated_Source\PSoC4/RTC.c ****         else
 998:Generated_Source\PSoC4/RTC.c ****         {
 999:Generated_Source\PSoC4/RTC.c ****             RTC_dstStatus = 0u;
 1988              		.loc 2 999 0
 1989 008c 084B     		ldr	r3, .L110+16
 1990 008e 0022     		movs	r2, #0
 1991 0090 1A70     		strb	r2, [r3]
1000:Generated_Source\PSoC4/RTC.c ****             RTC_dstTimeOffset = 0uL;
 1992              		.loc 2 1000 0
 1993 0092 084B     		ldr	r3, .L110+20
 1994 0094 0022     		movs	r2, #0
 1995 0096 1A60     		str	r2, [r3]
 1996              	.L107:
1001:Generated_Source\PSoC4/RTC.c ****         }
1002:Generated_Source\PSoC4/RTC.c ****     }
ARM GAS  C:\Users\okuntso\AppData\Local\Temp\ccSegaCM.s 			page 75


 1997              		.loc 2 1002 0
 1998 0098 C046     		nop
 1999 009a BD46     		mov	sp, r7
 2000 009c 03B0     		add	sp, sp, #12
 2001              		@ sp needed
 2002 009e 90BD     		pop	{r4, r7, pc}
 2003              	.L111:
 2004              		.align	2
 2005              	.L110:
 2006 00a0 00000000 		.word	RTC_dstStartTime
 2007 00a4 10000000 		.word	RTC_unixTimeDstStart
 2008 00a8 00000000 		.word	RTC_unixTime
 2009 00ac 18000000 		.word	RTC_unixTimeDstStop
 2010 00b0 00000000 		.word	RTC_dstStatus
 2011 00b4 08000000 		.word	RTC_dstTimeOffset
 2012              		.cfi_endproc
 2013              	.LFE39:
 2014              		.size	RTC_SetDSTStartTime, .-RTC_SetDSTStartTime
 2015              		.section	.text.RTC_SetDSTStopTime,"ax",%progbits
 2016              		.align	2
 2017              		.global	RTC_SetDSTStopTime
 2018              		.code	16
 2019              		.thumb_func
 2020              		.type	RTC_SetDSTStopTime, %function
 2021              	RTC_SetDSTStopTime:
 2022              	.LFB40:
1003:Generated_Source\PSoC4/RTC.c **** 
1004:Generated_Source\PSoC4/RTC.c **** 
1005:Generated_Source\PSoC4/RTC.c ****     /*******************************************************************************
1006:Generated_Source\PSoC4/RTC.c ****     * Function Name: RTC_SetDSTStopTime
1007:Generated_Source\PSoC4/RTC.c ****     ****************************************************************************//**
1008:Generated_Source\PSoC4/RTC.c ****     *
1009:Generated_Source\PSoC4/RTC.c ****     * \brief
1010:Generated_Source\PSoC4/RTC.c ****     *  Stores the DST Stop time.
1011:Generated_Source\PSoC4/RTC.c ****     * 
1012:Generated_Source\PSoC4/RTC.c ****     *  Only generated if DST is enabled. The date passed can be relative or fixed. 
1013:Generated_Source\PSoC4/RTC.c ****     *  For a relative date, the user needs to provide a valid day of a week, a week 
1014:Generated_Source\PSoC4/RTC.c ****     *  of a month and a month in the dstStopTime structure.
1015:Generated_Source\PSoC4/RTC.c ****     *  For a fixed date, the user needs to enter a valid day of a month and a month in the
1016:Generated_Source\PSoC4/RTC.c ****     *  dstSoptTime structure. The hour value is optional and if invalid taken
1017:Generated_Source\PSoC4/RTC.c ****     *  as 00 hrs. Invalid entries are not stored and the DST start date retains
1018:Generated_Source\PSoC4/RTC.c ****     *  a previous value or no value at all.
1019:Generated_Source\PSoC4/RTC.c ****     *
1020:Generated_Source\PSoC4/RTC.c ****     * \param
1021:Generated_Source\PSoC4/RTC.c ****     *  dstStopTime DST Stop time register values.
1022:Generated_Source\PSoC4/RTC.c ****     *
1023:Generated_Source\PSoC4/RTC.c ****     * \param
1024:Generated_Source\PSoC4/RTC.c ****     *  type Defines the DST operation mode <br>
1025:Generated_Source\PSoC4/RTC.c ****     *  DST_DATE_RELATIVE - The DST start time is relative. <br>
1026:Generated_Source\PSoC4/RTC.c ****     *  DST_DATE_FIXED - The DST start time is fixed.
1027:Generated_Source\PSoC4/RTC.c ****     *
1028:Generated_Source\PSoC4/RTC.c ****     *******************************************************************************/
1029:Generated_Source\PSoC4/RTC.c ****     void RTC_SetDSTStopTime(const RTC_DST_TIME* dstStopTime,
1030:Generated_Source\PSoC4/RTC.c ****                                                RTC_DST_DATETYPE_ENUM type)
1031:Generated_Source\PSoC4/RTC.c ****     {
 2023              		.loc 2 1031 0
 2024              		.cfi_startproc
ARM GAS  C:\Users\okuntso\AppData\Local\Temp\ccSegaCM.s 			page 76


 2025              		@ args = 0, pretend = 0, frame = 8
 2026              		@ frame_needed = 1, uses_anonymous_args = 0
 2027 0000 90B5     		push	{r4, r7, lr}
 2028              		.cfi_def_cfa_offset 12
 2029              		.cfi_offset 4, -12
 2030              		.cfi_offset 7, -8
 2031              		.cfi_offset 14, -4
 2032 0002 83B0     		sub	sp, sp, #12
 2033              		.cfi_def_cfa_offset 24
 2034 0004 00AF     		add	r7, sp, #0
 2035              		.cfi_def_cfa_register 7
 2036 0006 7860     		str	r0, [r7, #4]
 2037 0008 0A00     		movs	r2, r1
 2038 000a FB1C     		adds	r3, r7, #3
 2039 000c 1A70     		strb	r2, [r3]
1032:Generated_Source\PSoC4/RTC.c **** 
1033:Generated_Source\PSoC4/RTC.c ****         RTC_dstStopTime.timeFormat  = (uint8)type;
 2040              		.loc 2 1033 0
 2041 000e 244B     		ldr	r3, .L119
 2042 0010 FA1C     		adds	r2, r7, #3
 2043 0012 1278     		ldrb	r2, [r2]
 2044 0014 1A75     		strb	r2, [r3, #20]
1034:Generated_Source\PSoC4/RTC.c ****         RTC_dstStopTime.hour           = dstStopTime->hour;
 2045              		.loc 2 1034 0
 2046 0016 7B68     		ldr	r3, [r7, #4]
 2047 0018 1A68     		ldr	r2, [r3]
 2048 001a 214B     		ldr	r3, .L119
 2049 001c 1A60     		str	r2, [r3]
1035:Generated_Source\PSoC4/RTC.c ****         RTC_dstStopTime.dayOfWeek      = dstStopTime->dayOfWeek;
 2050              		.loc 2 1035 0
 2051 001e 7B68     		ldr	r3, [r7, #4]
 2052 0020 5A68     		ldr	r2, [r3, #4]
 2053 0022 1F4B     		ldr	r3, .L119
 2054 0024 5A60     		str	r2, [r3, #4]
1036:Generated_Source\PSoC4/RTC.c ****         RTC_dstStopTime.weekOfMonth = dstStopTime->weekOfMonth;
 2055              		.loc 2 1036 0
 2056 0026 7B68     		ldr	r3, [r7, #4]
 2057 0028 DA68     		ldr	r2, [r3, #12]
 2058 002a 1D4B     		ldr	r3, .L119
 2059 002c DA60     		str	r2, [r3, #12]
1037:Generated_Source\PSoC4/RTC.c ****         RTC_dstStopTime.dayOfMonth     = dstStopTime->dayOfMonth;
 2060              		.loc 2 1037 0
 2061 002e 7B68     		ldr	r3, [r7, #4]
 2062 0030 9A68     		ldr	r2, [r3, #8]
 2063 0032 1B4B     		ldr	r3, .L119
 2064 0034 9A60     		str	r2, [r3, #8]
1038:Generated_Source\PSoC4/RTC.c ****         RTC_dstStopTime.month         = dstStopTime->month;
 2065              		.loc 2 1038 0
 2066 0036 7B68     		ldr	r3, [r7, #4]
 2067 0038 1A69     		ldr	r2, [r3, #16]
 2068 003a 194B     		ldr	r3, .L119
 2069 003c 1A61     		str	r2, [r3, #16]
1039:Generated_Source\PSoC4/RTC.c **** 
1040:Generated_Source\PSoC4/RTC.c ****         RTC_unixTimeDstStop  = RTC_GetDstUnixTime(&RTC_dstStopTime);
 2070              		.loc 2 1040 0
 2071 003e 184B     		ldr	r3, .L119
 2072 0040 1800     		movs	r0, r3
ARM GAS  C:\Users\okuntso\AppData\Local\Temp\ccSegaCM.s 			page 77


 2073 0042 FFF7FEFF 		bl	RTC_GetDstUnixTime
 2074 0046 0300     		movs	r3, r0
 2075 0048 0C00     		movs	r4, r1
 2076 004a 164A     		ldr	r2, .L119+4
 2077 004c 1360     		str	r3, [r2]
 2078 004e 5460     		str	r4, [r2, #4]
1041:Generated_Source\PSoC4/RTC.c **** 
1042:Generated_Source\PSoC4/RTC.c ****         if((RTC_unixTime >= RTC_unixTimeDstStart) &&
 2079              		.loc 2 1042 0
 2080 0050 154B     		ldr	r3, .L119+8
 2081 0052 5C68     		ldr	r4, [r3, #4]
 2082 0054 1B68     		ldr	r3, [r3]
 2083 0056 154A     		ldr	r2, .L119+12
 2084 0058 1168     		ldr	r1, [r2]
 2085 005a 5268     		ldr	r2, [r2, #4]
 2086 005c A242     		cmp	r2, r4
 2087 005e 15D8     		bhi	.L113
 2088 0060 01D1     		bne	.L117
 2089 0062 9942     		cmp	r1, r3
 2090 0064 12D8     		bhi	.L113
 2091              	.L117:
1043:Generated_Source\PSoC4/RTC.c ****            (RTC_unixTime <= RTC_unixTimeDstStop))
 2092              		.loc 2 1043 0 discriminator 1
 2093 0066 104B     		ldr	r3, .L119+8
 2094 0068 1968     		ldr	r1, [r3]
 2095 006a 5A68     		ldr	r2, [r3, #4]
 2096 006c 0D4B     		ldr	r3, .L119+4
 2097 006e 5C68     		ldr	r4, [r3, #4]
 2098 0070 1B68     		ldr	r3, [r3]
1042:Generated_Source\PSoC4/RTC.c ****            (RTC_unixTime <= RTC_unixTimeDstStop))
 2099              		.loc 2 1042 0 discriminator 1
 2100 0072 A242     		cmp	r2, r4
