ARM GAS  C:\Users\okuntso\AppData\Local\Temp\cceWmgJO.s 			page 1


   1              		.syntax unified
   2              		.cpu cortex-m0
   3              		.fpu softvfp
   4              		.eabi_attribute 20, 1
   5              		.eabi_attribute 21, 1
   6              		.eabi_attribute 23, 3
   7              		.eabi_attribute 24, 1
   8              		.eabi_attribute 25, 1
   9              		.eabi_attribute 26, 1
  10              		.eabi_attribute 30, 1
  11              		.eabi_attribute 34, 0
  12              		.eabi_attribute 18, 4
  13              		.thumb
  14              		.syntax unified
  15              		.file	"main.c"
  16              		.text
  17              	.Ltext0:
  18              		.cfi_sections	.debug_frame
  19              		.syntax divided
  20              		.global _printf_float
  21              		.thumb
  22              		.syntax unified
  23              		.section	.text._write,"ax",%progbits
  24              		.align	2
  25              		.global	_write
  26              		.code	16
  27              		.thumb_func
  28              		.type	_write, %function
  29              	_write:
  30              	.LFB59:
  31              		.file 1 "main.c"
   1:main.c        **** #include <project.h>
   2:main.c        **** #include <stdio.h>
   3:main.c        **** /* Order of Digital Filter */
   4:main.c        **** #define DF_ORDER (2)
   5:main.c        **** 
   6:main.c        **** /* RTC config */
   7:main.c        **** /* Time: 02:59:50 */
   8:main.c        **** #define TIME_HOUR           (0x02u)
   9:main.c        **** #define TIME_MIN            (0x59u)
  10:main.c        **** #define TIME_SEC            (0x50u)
  11:main.c        **** #define TIME_HR_MIN_SEC     ((uint32)(TIME_HOUR << RTC_HOURS_OFFSET) | \
  12:main.c        ****                             (uint32)(TIME_MIN << RTC_MINUTES_OFFSET)    | \
  13:main.c        ****                              TIME_SEC)
  14:main.c        **** /* Date: 03/22/2014 */
  15:main.c        **** #define DATE_MONTH          (RTC_MARCH)
  16:main.c        **** #define DATE_DAY            (0x22u)
  17:main.c        **** #define DATE_YEAR           (0x2014u)
  18:main.c        **** #define DATE_MONTH_DAY_YEAR ((uint32)(DATE_MONTH << RTC_MONTH_OFFSET)   | \
  19:main.c        ****                             (uint32)(DATE_DAY << RTC_DAY_OFFSET)        | \
  20:main.c        ****                              DATE_YEAR)
  21:main.c        **** 
  22:main.c        **** #define SYSTICK_EACH_10_HZ  (10u)
  23:main.c        **** #define SYSTICK_RELOAD      (CYDEV_BCLK__SYSCLK__HZ / SYSTICK_EACH_10_HZ)
  24:main.c        **** 
  25:main.c        **** /* Digital Filter Denumerator coefficients */
  26:main.c        **** float DigitalFilter_ACoefs[DF_ORDER + 1] = {1.0000, -1.1429, 0.4128};
ARM GAS  C:\Users\okuntso\AppData\Local\Temp\cceWmgJO.s 			page 2


  27:main.c        **** /* Digital Filter Numerator coefficients */
  28:main.c        **** float DigitalFilter_BCoefs[DF_ORDER + 1] = {0.0674, 0.1349, 0.0674};
  29:main.c        **** /* Digital Filter internal buffer */
  30:main.c        **** float DigitalFilter_Buffer[DF_ORDER + 1];
  31:main.c        **** 
  32:main.c        **** int16 result = 0;
  33:main.c        **** float DigitalFilter_ProcessOneSample(float NewSample);
  34:main.c        **** void print_time();
  35:main.c        **** uint32 time;
  36:main.c        **** uint32 cnt = 0;
  37:main.c        **** 
  38:main.c        **** #if defined (__GNUC__) 
  39:main.c        ****     
  40:main.c        ****     /* Add an explicit reference to the floating point printf library to allow 
  41:main.c        ****        use of floating point conversion specifier. */     
  42:main.c        ****     asm (".global _printf_float"); 
  43:main.c        ****  
  44:main.c        ****     /* For GCC compiler revise _write() function for printf functionality */     
  45:main.c        **** 	int _write(int file, char *ptr, int len) 
  46:main.c        ****     {       
  32              		.loc 1 46 0
  33              		.cfi_startproc
  34              		@ args = 0, pretend = 0, frame = 0
  35              		@ frame_needed = 0, uses_anonymous_args = 0
  36              	.LVL0:
  37 0000 70B5     		push	{r4, r5, r6, lr}
  38              		.cfi_def_cfa_offset 16
  39              		.cfi_offset 4, -16
  40              		.cfi_offset 5, -12
  41              		.cfi_offset 6, -8
  42              		.cfi_offset 14, -4
  43 0002 1600     		movs	r6, r2
  44              	.LVL1:
  47:main.c        ****         /* Warning suppression for unused function parameter */
  48:main.c        **** 		file = file;
  49:main.c        **** 		
  50:main.c        **** 		int i; 
  51:main.c        ****         /* Character is sent via UART */
  52:main.c        ****         for (i = 0; i < len; i++) 
  45              		.loc 1 52 0
  46 0004 0024     		movs	r4, #0
  47 0006 05E0     		b	.L2
  48              	.LVL2:
  49              	.L3:
  53:main.c        ****         { 
  54:main.c        ****             D_UART_UartPutChar(*(ptr++)); 
  50              		.loc 1 54 0 discriminator 3
  51 0008 4D1C     		adds	r5, r1, #1
  52              	.LVL3:
  53 000a 0878     		ldrb	r0, [r1]
  54 000c FFF7FEFF 		bl	D_UART_SpiUartWriteTxData
  55              	.LVL4:
  52:main.c        ****         { 
  56              		.loc 1 52 0 discriminator 3
  57 0010 0134     		adds	r4, r4, #1
  58              	.LVL5:
  59              		.loc 1 54 0 discriminator 3
ARM GAS  C:\Users\okuntso\AppData\Local\Temp\cceWmgJO.s 			page 3


  60 0012 2900     		movs	r1, r5
  61              	.LVL6:
  62              	.L2:
  52:main.c        ****         { 
  63              		.loc 1 52 0 discriminator 1
  64 0014 B442     		cmp	r4, r6
  65 0016 F7DB     		blt	.L3
  55:main.c        ****         }          
  56:main.c        ****         return(len); 
  57:main.c        ****     } 
  66              		.loc 1 57 0
  67 0018 3000     		movs	r0, r6
  68              		@ sp needed
  69              	.LVL7:
  70              	.LVL8:
  71 001a 70BD     		pop	{r4, r5, r6, pc}
  72              		.cfi_endproc
  73              	.LFE59:
  74              		.size	_write, .-_write
  75              		.global	__aeabi_fmul
  76              		.global	__aeabi_fsub
  77              		.global	__aeabi_fadd
  78              		.section	.text.DigitalFilter_ProcessOneSample,"ax",%progbits
  79              		.align	2
  80              		.global	DigitalFilter_ProcessOneSample
  81              		.code	16
  82              		.thumb_func
  83              		.type	DigitalFilter_ProcessOneSample, %function
  84              	DigitalFilter_ProcessOneSample:
  85              	.LFB62:
  58:main.c        **** #endif /* (__GNUC__) */
  59:main.c        **** 
  60:main.c        **** CY_ISR( MyADC )
  61:main.c        **** {
  62:main.c        ****     cnt++;
  63:main.c        ****     uint32 intr_status;
  64:main.c        ****     /* Read interrupt status register */
  65:main.c        ****     intr_status = ADC_SAR_INTR_REG;
  66:main.c        **** 
  67:main.c        ****     /* `#START MAIN_ADC_ISR` */
  68:main.c        ****     result = ADC_GetResult16(0);
  69:main.c        ****     //printf("adc measure = %d\r\n", result);
  70:main.c        ****     float accumulator = DigitalFilter_ProcessOneSample(result);
  71:main.c        ****     //printf("accum measure = %f\r\n", accumulator);
  72:main.c        ****     IDAC_SetValue(result);
  73:main.c        ****     /* Clear handled interrupt */
  74:main.c        ****     ADC_SAR_INTR_REG = intr_status;
  75:main.c        **** }
  76:main.c        **** 
  77:main.c        **** 
  78:main.c        **** int main(void)
  79:main.c        **** {
  80:main.c        **** 
  81:main.c        ****     D_UART_Start();
  82:main.c        ****     
  83:main.c        ****     isr_adc_StartEx(MyADC);
  84:main.c        ****     
ARM GAS  C:\Users\okuntso\AppData\Local\Temp\cceWmgJO.s 			page 4


  85:main.c        ****     ADC_Timer_Start();
  86:main.c        ****     ADC_Enable();
  87:main.c        ****     ADC_Init();
  88:main.c        ****     ADC_Start(); /* Initialize ADC */
  89:main.c        ****     ADC_IRQ_Enable(); /* Enable ADC interrupts */
  90:main.c        ****     ADC_StartConvert(); /* Start ADC conversions */
  91:main.c        ****     IDAC_Start();
  92:main.c        ****     
  93:main.c        ****     printf("Debug info start...\r\n");
  94:main.c        ****     
  95:main.c        ****     /* Starts SysTick component */
  96:main.c        ****     //CySysTickStart();
  97:main.c        **** 
  98:main.c        ****     /* Starts RTC component */
  99:main.c        ****     RTC_Start();
 100:main.c        **** 
 101:main.c        ****     /* Set Date and Time */
 102:main.c        ****     RTC_SetDateAndTime(TIME_HR_MIN_SEC,DATE_MONTH_DAY_YEAR);
 103:main.c        **** 
 104:main.c        ****     /* Set RTC time update period */
 105:main.c        ****     //RTC_SetPeriod(1u, SYSTICK_EACH_10_HZ);
 106:main.c        **** 
 107:main.c        ****     /* Enable global interrupts */
 108:main.c        ****     CyGlobalIntEnable;
 109:main.c        ****     print_time();
 110:main.c        ****     for(;;){
 111:main.c        ****         if (cnt==1000)
 112:main.c        ****         {
 113:main.c        ****             print_time();
 114:main.c        ****         }
 115:main.c        ****     }
 116:main.c        **** }
 117:main.c        **** 
 118:main.c        **** /***************************************************************
 119:main.c        **** * \fn DigitalFilter_ProcessOneSample
 120:main.c        **** *  
 121:main.c        **** * This function to process one sample in digital filter.
 122:main.c        **** * Note: One sample processing at DF_ORDER = 7 and CPU frequency 
 123:main.c        **** *       24 MHz takes about 160 us 
 124:main.c        **** *
 125:main.c        **** * \param NewSample
 126:main.c        **** *  Sample value to be processed
 127:main.c        **** *
 128:main.c        **** * \return 
 129:main.c        **** *  Digital filter output sample
 130:main.c        **** ****************************************************************/
 131:main.c        **** float DigitalFilter_ProcessOneSample(float NewSample)
 132:main.c        **** {
  86              		.loc 1 132 0
  87              		.cfi_startproc
  88              		@ args = 0, pretend = 0, frame = 0
  89              		@ frame_needed = 0, uses_anonymous_args = 0
  90              	.LVL9:
  91 0000 70B5     		push	{r4, r5, r6, lr}
  92              		.cfi_def_cfa_offset 16
  93              		.cfi_offset 4, -16
  94              		.cfi_offset 5, -12
ARM GAS  C:\Users\okuntso\AppData\Local\Temp\cceWmgJO.s 			page 5


  95              		.cfi_offset 6, -8
  96              		.cfi_offset 14, -4
  97 0002 061C     		adds	r6, r0, #0
  98              	.LVL10:
 133:main.c        ****     uint32 idx; 
 134:main.c        ****     float  Accumulator;
 135:main.c        ****     /* Shift the old values in the internal buffer DF_Buffer */
 136:main.c        ****     for (idx = DF_ORDER; idx > 0; idx--)
  99              		.loc 1 136 0
 100 0004 0224     		movs	r4, #2
 101 0006 06E0     		b	.L5
 102              	.LVL11:
 103              	.L6:
 137:main.c        ****     {
 138:main.c        ****         DigitalFilter_Buffer[idx] = DigitalFilter_Buffer[idx - 1];
 104              		.loc 1 138 0 discriminator 3
 105 0008 631E     		subs	r3, r4, #1
 106 000a 174A     		ldr	r2, .L11
 107 000c 9900     		lsls	r1, r3, #2
 108 000e 8958     		ldr	r1, [r1, r2]
 109 0010 A400     		lsls	r4, r4, #2
 110              	.LVL12:
 111 0012 A150     		str	r1, [r4, r2]
 112              	.LVL13:
 136:main.c        ****     {
 113              		.loc 1 136 0 discriminator 3
 114 0014 1C00     		movs	r4, r3
 115              	.LVL14:
 116              	.L5:
 136:main.c        ****     {
 117              		.loc 1 136 0 is_stmt 0 discriminator 1
 118 0016 002C     		cmp	r4, #0
 119 0018 F6D1     		bne	.L6
 120 001a 0125     		movs	r5, #1
 121 001c 0CE0     		b	.L7
 122              	.LVL15:
 123              	.L8:
 139:main.c        ****     }    
 140:main.c        ****     /* Sum in Denumerator */
 141:main.c        ****     Accumulator = NewSample;
 142:main.c        ****     for (idx = 1; idx <= DF_ORDER; idx++)
 143:main.c        ****     {
 144:main.c        ****         Accumulator = Accumulator - DigitalFilter_ACoefs[idx] * DigitalFilter_Buffer[idx];
 124              		.loc 1 144 0 is_stmt 1 discriminator 3
 125 001e AB00     		lsls	r3, r5, #2
 126 0020 124A     		ldr	r2, .L11+4
 127 0022 9858     		ldr	r0, [r3, r2]
 128 0024 104A     		ldr	r2, .L11
 129 0026 9958     		ldr	r1, [r3, r2]
 130 0028 FFF7FEFF 		bl	__aeabi_fmul
 131              	.LVL16:
 132 002c 011C     		adds	r1, r0, #0
 133 002e 301C     		adds	r0, r6, #0
 134 0030 FFF7FEFF 		bl	__aeabi_fsub
 135              	.LVL17:
 136 0034 061C     		adds	r6, r0, #0
 137              	.LVL18:
ARM GAS  C:\Users\okuntso\AppData\Local\Temp\cceWmgJO.s 			page 6


 142:main.c        ****     {
 138              		.loc 1 142 0 discriminator 3
 139 0036 0135     		adds	r5, r5, #1
 140              	.LVL19:
 141              	.L7:
 142:main.c        ****     {
 142              		.loc 1 142 0 is_stmt 0 discriminator 1
 143 0038 022D     		cmp	r5, #2
 144 003a F0D9     		bls	.L8
 145:main.c        ****     }
 146:main.c        ****     DigitalFilter_Buffer[0] = Accumulator;
 145              		.loc 1 146 0 is_stmt 1
 146 003c 0A4B     		ldr	r3, .L11
 147 003e 1E60     		str	r6, [r3]
 148              	.LVL20:
 147:main.c        ****     /* Sum in Numerator */
 148:main.c        ****     Accumulator = 0;
 149              		.loc 1 148 0
 150 0040 0025     		movs	r5, #0
 149:main.c        ****     for (idx = 0; idx <= DF_ORDER; idx++)
 151              		.loc 1 149 0
 152 0042 0DE0     		b	.L9
 153              	.LVL21:
 154              	.L10:
 150:main.c        ****     {
 151:main.c        ****         Accumulator = Accumulator + DigitalFilter_BCoefs[idx] * DigitalFilter_Buffer[idx];
 155              		.loc 1 151 0 discriminator 3
 156 0044 A200     		lsls	r2, r4, #2
 157 0046 094B     		ldr	r3, .L11+4
 158 0048 9B18     		adds	r3, r3, r2
 159 004a D868     		ldr	r0, [r3, #12]
 160 004c 064B     		ldr	r3, .L11
 161 004e D158     		ldr	r1, [r2, r3]
 162 0050 FFF7FEFF 		bl	__aeabi_fmul
 163              	.LVL22:
 164 0054 011C     		adds	r1, r0, #0
 165 0056 281C     		adds	r0, r5, #0
 166 0058 FFF7FEFF 		bl	__aeabi_fadd
 167              	.LVL23:
 168 005c 051C     		adds	r5, r0, #0
 169              	.LVL24:
 149:main.c        ****     for (idx = 0; idx <= DF_ORDER; idx++)
 170              		.loc 1 149 0 discriminator 3
 171 005e 0134     		adds	r4, r4, #1
 172              	.LVL25:
 173              	.L9:
 149:main.c        ****     for (idx = 0; idx <= DF_ORDER; idx++)
 174              		.loc 1 149 0 is_stmt 0 discriminator 1
 175 0060 022C     		cmp	r4, #2
 176 0062 EFD9     		bls	.L10
 152:main.c        ****     }
 153:main.c        ****     return (Accumulator);
 154:main.c        **** }
 177              		.loc 1 154 0 is_stmt 1
 178 0064 281C     		adds	r0, r5, #0
 179              		@ sp needed
 180              	.LVL26:
ARM GAS  C:\Users\okuntso\AppData\Local\Temp\cceWmgJO.s 			page 7


 181              	.LVL27:
 182 0066 70BD     		pop	{r4, r5, r6, pc}
 183              	.L12:
 184              		.align	2
 185              	.L11:
 186 0068 00000000 		.word	DigitalFilter_Buffer
 187 006c 00000000 		.word	.LANCHOR0
 188              		.cfi_endproc
 189              	.LFE62:
 190              		.size	DigitalFilter_ProcessOneSample, .-DigitalFilter_ProcessOneSample
 191              		.global	__aeabi_i2f
 192              		.section	.text.MyADC,"ax",%progbits
 193              		.align	2
 194              		.global	MyADC
 195              		.code	16
 196              		.thumb_func
 197              		.type	MyADC, %function
 198              	MyADC:
 199              	.LFB60:
  61:main.c        ****     cnt++;
 200              		.loc 1 61 0
 201              		.cfi_startproc
 202              		@ args = 0, pretend = 0, frame = 0
 203              		@ frame_needed = 0, uses_anonymous_args = 0
 204 0000 70B5     		push	{r4, r5, r6, lr}
 205              		.cfi_def_cfa_offset 16
 206              		.cfi_offset 4, -16
 207              		.cfi_offset 5, -12
 208              		.cfi_offset 6, -8
 209              		.cfi_offset 14, -4
  62:main.c        ****     uint32 intr_status;
 210              		.loc 1 62 0
 211 0002 0A4C     		ldr	r4, .L14
 212 0004 2368     		ldr	r3, [r4]
 213 0006 0133     		adds	r3, r3, #1
 214 0008 2360     		str	r3, [r4]
  65:main.c        **** 
 215              		.loc 1 65 0
 216 000a 094D     		ldr	r5, .L14+4
 217 000c 2E68     		ldr	r6, [r5]
 218              	.LVL28:
  68:main.c        ****     //printf("adc measure = %d\r\n", result);
 219              		.loc 1 68 0
 220 000e 0020     		movs	r0, #0
 221 0010 FFF7FEFF 		bl	ADC_GetResult16
 222              	.LVL29:
 223 0014 A080     		strh	r0, [r4, #4]
  70:main.c        ****     //printf("accum measure = %f\r\n", accumulator);
 224              		.loc 1 70 0
 225 0016 FFF7FEFF 		bl	__aeabi_i2f
 226              	.LVL30:
 227 001a FFF7FEFF 		bl	DigitalFilter_ProcessOneSample
 228              	.LVL31:
  72:main.c        ****     /* Clear handled interrupt */
 229              		.loc 1 72 0
 230 001e 0423     		movs	r3, #4
 231 0020 E05E     		ldrsh	r0, [r4, r3]
ARM GAS  C:\Users\okuntso\AppData\Local\Temp\cceWmgJO.s 			page 8


 232 0022 FFF7FEFF 		bl	IDAC_SetValue
 233              	.LVL32:
  74:main.c        **** }
 234              		.loc 1 74 0
 235 0026 2E60     		str	r6, [r5]
  75:main.c        **** 
 236              		.loc 1 75 0
 237              		@ sp needed
 238              	.LVL33:
 239 0028 70BD     		pop	{r4, r5, r6, pc}
 240              	.L15:
 241 002a C046     		.align	2
 242              	.L14:
 243 002c 00000000 		.word	.LANCHOR1
 244 0030 10021A40 		.word	1075446288
 245              		.cfi_endproc
 246              	.LFE60:
 247              		.size	MyADC, .-MyADC
 248              		.section	.text.print_time,"ax",%progbits
 249              		.align	2
 250              		.global	print_time
 251              		.code	16
 252              		.thumb_func
 253              		.type	print_time, %function
 254              	print_time:
 255              	.LFB63:
 155:main.c        **** 
 156:main.c        **** void print_time(){
 256              		.loc 1 156 0
 257              		.cfi_startproc
 258              		@ args = 0, pretend = 0, frame = 0
 259              		@ frame_needed = 0, uses_anonymous_args = 0
 260 0000 10B5     		push	{r4, lr}
 261              		.cfi_def_cfa_offset 8
 262              		.cfi_offset 4, -8
 263              		.cfi_offset 14, -4
 157:main.c        ****     RTC_Update();
 264              		.loc 1 157 0
 265 0002 FFF7FEFF 		bl	RTC_Update
 266              	.LVL34:
 158:main.c        ****     time = RTC_GetTime();
 267              		.loc 1 158 0
 268 0006 FFF7FEFF 		bl	RTC_GetTime
 269              	.LVL35:
 270 000a 0B4B     		ldr	r3, .L17
 271 000c 1860     		str	r0, [r3]
 272              	.LVL36:
 273              	.LBB6:
 274              	.LBB7:
 275              		.file 2 "Generated_Source\\PSoC4/RTC.h"
   1:Generated_Source\PSoC4/RTC.h **** /***************************************************************************//**
   2:Generated_Source\PSoC4/RTC.h **** * \file Name: RTC.h
   3:Generated_Source\PSoC4/RTC.h **** * \version 1.10
   4:Generated_Source\PSoC4/RTC.h **** *
   5:Generated_Source\PSoC4/RTC.h **** * \brief
   6:Generated_Source\PSoC4/RTC.h **** *  This file provides constants and parameter values for the RTC_P4 Component.
   7:Generated_Source\PSoC4/RTC.h **** *
ARM GAS  C:\Users\okuntso\AppData\Local\Temp\cceWmgJO.s 			page 9


   8:Generated_Source\PSoC4/RTC.h **** ********************************************************************************
   9:Generated_Source\PSoC4/RTC.h **** * Copyright 2015-2016, Cypress Semiconductor Corporation.  All rights reserved.
  10:Generated_Source\PSoC4/RTC.h **** * You may use this file only in accordance with the license, terms, conditions,
  11:Generated_Source\PSoC4/RTC.h **** * disclaimers, and limitations in the end user license agreement accompanying
  12:Generated_Source\PSoC4/RTC.h **** * the software package with which this file was provided.
  13:Generated_Source\PSoC4/RTC.h **** *******************************************************************************/
  14:Generated_Source\PSoC4/RTC.h **** 
  15:Generated_Source\PSoC4/RTC.h **** #if !defined(CY_RTC_P4_RTC_H)
  16:Generated_Source\PSoC4/RTC.h **** #define CY_RTC_P4_RTC_H
  17:Generated_Source\PSoC4/RTC.h **** 
  18:Generated_Source\PSoC4/RTC.h **** #include <cytypes.h>
  19:Generated_Source\PSoC4/RTC.h **** #include <CyLib.h>
  20:Generated_Source\PSoC4/RTC.h **** 
  21:Generated_Source\PSoC4/RTC.h **** 
  22:Generated_Source\PSoC4/RTC.h **** /*******************************************************************************
  23:Generated_Source\PSoC4/RTC.h **** *    Data types definition
  24:Generated_Source\PSoC4/RTC.h **** *******************************************************************************/
  25:Generated_Source\PSoC4/RTC.h **** 
  26:Generated_Source\PSoC4/RTC.h **** typedef enum
  27:Generated_Source\PSoC4/RTC.h **** {
  28:Generated_Source\PSoC4/RTC.h ****     RTC_DST_DATE_RELATIVE = 0u,
  29:Generated_Source\PSoC4/RTC.h ****     RTC_DST_DATE_FIXED = 1u
  30:Generated_Source\PSoC4/RTC.h **** }RTC_DST_DATETYPE_ENUM;
  31:Generated_Source\PSoC4/RTC.h **** 
  32:Generated_Source\PSoC4/RTC.h **** /**
  33:Generated_Source\PSoC4/RTC.h **** * \addtogroup group_structures
  34:Generated_Source\PSoC4/RTC.h **** * @{
  35:Generated_Source\PSoC4/RTC.h **** */
  36:Generated_Source\PSoC4/RTC.h **** 
  37:Generated_Source\PSoC4/RTC.h **** /**
  38:Generated_Source\PSoC4/RTC.h **** * This is the data structure that is used to save the current time and date 
  39:Generated_Source\PSoC4/RTC.h **** * (RTC_currentTimeDate), and Alarm time and date (RTC_alarmCfgTimeDate).
  40:Generated_Source\PSoC4/RTC.h **** */
  41:Generated_Source\PSoC4/RTC.h **** typedef struct
  42:Generated_Source\PSoC4/RTC.h **** {
  43:Generated_Source\PSoC4/RTC.h ****     uint32 time;
  44:Generated_Source\PSoC4/RTC.h ****     uint32 date;
  45:Generated_Source\PSoC4/RTC.h ****     uint32 dayOfWeek;
  46:Generated_Source\PSoC4/RTC.h ****     uint32 status;
  47:Generated_Source\PSoC4/RTC.h **** }RTC_DATE_TIME;
  48:Generated_Source\PSoC4/RTC.h **** 
  49:Generated_Source\PSoC4/RTC.h **** /**
  50:Generated_Source\PSoC4/RTC.h **** * This is the data structure that is used to save time and date values for 
  51:Generated_Source\PSoC4/RTC.h **** * Daylight Savings Time Start and Stop (RTC_dstTimeDateStart and 
  52:Generated_Source\PSoC4/RTC.h **** * RTC_dstTimeDateStop).
  53:Generated_Source\PSoC4/RTC.h **** */
  54:Generated_Source\PSoC4/RTC.h **** typedef struct
  55:Generated_Source\PSoC4/RTC.h **** {
  56:Generated_Source\PSoC4/RTC.h ****     uint32 hour;
  57:Generated_Source\PSoC4/RTC.h ****     uint32 dayOfWeek;
  58:Generated_Source\PSoC4/RTC.h ****     uint32 dayOfMonth;
  59:Generated_Source\PSoC4/RTC.h ****     uint32 weekOfMonth;
  60:Generated_Source\PSoC4/RTC.h ****     uint32 month;
  61:Generated_Source\PSoC4/RTC.h ****     uint8  timeFormat;
  62:Generated_Source\PSoC4/RTC.h **** }RTC_DST_TIME;
  63:Generated_Source\PSoC4/RTC.h **** 
  64:Generated_Source\PSoC4/RTC.h **** /** @} structures */
ARM GAS  C:\Users\okuntso\AppData\Local\Temp\cceWmgJO.s 			page 10


  65:Generated_Source\PSoC4/RTC.h **** 
  66:Generated_Source\PSoC4/RTC.h **** /*******************************************************************************
  67:Generated_Source\PSoC4/RTC.h **** *    Enumerated Types and Parameters
  68:Generated_Source\PSoC4/RTC.h **** *******************************************************************************/
  69:Generated_Source\PSoC4/RTC.h **** /* Time Format setting constants */
  70:Generated_Source\PSoC4/RTC.h **** #define RTC__HOUR_12 1
  71:Generated_Source\PSoC4/RTC.h **** #define RTC__HOUR_24 0
  72:Generated_Source\PSoC4/RTC.h **** 
  73:Generated_Source\PSoC4/RTC.h **** /*  Date Format setting constants */
  74:Generated_Source\PSoC4/RTC.h **** #define RTC__MM_DD_YYYY 0
  75:Generated_Source\PSoC4/RTC.h **** #define RTC__DD_MM_YYYY 1
  76:Generated_Source\PSoC4/RTC.h **** #define RTC__YYYY_MM_DD 2
  77:Generated_Source\PSoC4/RTC.h **** 
  78:Generated_Source\PSoC4/RTC.h **** /* Date Type setting constants */
  79:Generated_Source\PSoC4/RTC.h **** #define RTC__RELATIVE 0
  80:Generated_Source\PSoC4/RTC.h **** #define RTC__FIXED 1
  81:Generated_Source\PSoC4/RTC.h **** 
  82:Generated_Source\PSoC4/RTC.h **** /* DST Hour setting constants */
  83:Generated_Source\PSoC4/RTC.h **** #define RTC__H0000 0
  84:Generated_Source\PSoC4/RTC.h **** #define RTC__H0100 1
  85:Generated_Source\PSoC4/RTC.h **** #define RTC__H0200 2
  86:Generated_Source\PSoC4/RTC.h **** #define RTC__H0300 3
  87:Generated_Source\PSoC4/RTC.h **** #define RTC__H0400 4
  88:Generated_Source\PSoC4/RTC.h **** #define RTC__H0500 5
  89:Generated_Source\PSoC4/RTC.h **** #define RTC__H0600 6
  90:Generated_Source\PSoC4/RTC.h **** #define RTC__H0700 7
  91:Generated_Source\PSoC4/RTC.h **** #define RTC__H0800 8
  92:Generated_Source\PSoC4/RTC.h **** #define RTC__H0900 9
  93:Generated_Source\PSoC4/RTC.h **** #define RTC__H1000 10
  94:Generated_Source\PSoC4/RTC.h **** #define RTC__H1100 11
  95:Generated_Source\PSoC4/RTC.h **** #define RTC__H1200 12
  96:Generated_Source\PSoC4/RTC.h **** #define RTC__H1300 13
  97:Generated_Source\PSoC4/RTC.h **** #define RTC__H1400 14
  98:Generated_Source\PSoC4/RTC.h **** #define RTC__H1500 15
  99:Generated_Source\PSoC4/RTC.h **** #define RTC__H1600 16
 100:Generated_Source\PSoC4/RTC.h **** #define RTC__H1700 17
 101:Generated_Source\PSoC4/RTC.h **** #define RTC__H1800 18
 102:Generated_Source\PSoC4/RTC.h **** #define RTC__H1900 19
 103:Generated_Source\PSoC4/RTC.h **** #define RTC__H2000 20
 104:Generated_Source\PSoC4/RTC.h **** #define RTC__H2100 21
 105:Generated_Source\PSoC4/RTC.h **** #define RTC__H2200 22
 106:Generated_Source\PSoC4/RTC.h **** #define RTC__H2300 23
 107:Generated_Source\PSoC4/RTC.h **** 
 108:Generated_Source\PSoC4/RTC.h **** /* DST DayOfWeek setting constants */
 109:Generated_Source\PSoC4/RTC.h **** #define RTC__SUNDAY 1
 110:Generated_Source\PSoC4/RTC.h **** #define RTC__MONDAY 2
 111:Generated_Source\PSoC4/RTC.h **** #define RTC__TUESDAY 3
 112:Generated_Source\PSoC4/RTC.h **** #define RTC__WEDNESDAY 4
 113:Generated_Source\PSoC4/RTC.h **** #define RTC__THURSDAY 5
 114:Generated_Source\PSoC4/RTC.h **** #define RTC__FRIDAY 6
 115:Generated_Source\PSoC4/RTC.h **** #define RTC__SATURDAY 7
 116:Generated_Source\PSoC4/RTC.h **** 
 117:Generated_Source\PSoC4/RTC.h **** /* DST Month setting constants */
 118:Generated_Source\PSoC4/RTC.h **** #define RTC__JAN 1
 119:Generated_Source\PSoC4/RTC.h **** #define RTC__FEB 2
 120:Generated_Source\PSoC4/RTC.h **** #define RTC__MAR 3
 121:Generated_Source\PSoC4/RTC.h **** #define RTC__APR 4
ARM GAS  C:\Users\okuntso\AppData\Local\Temp\cceWmgJO.s 			page 11


 122:Generated_Source\PSoC4/RTC.h **** #define RTC__MAY 5
 123:Generated_Source\PSoC4/RTC.h **** #define RTC__JUN 6
 124:Generated_Source\PSoC4/RTC.h **** #define RTC__JUL 7
 125:Generated_Source\PSoC4/RTC.h **** #define RTC__AUG 8
 126:Generated_Source\PSoC4/RTC.h **** #define RTC__SEP 9
 127:Generated_Source\PSoC4/RTC.h **** #define RTC__OCT 10
 128:Generated_Source\PSoC4/RTC.h **** #define RTC__NOV 11
 129:Generated_Source\PSoC4/RTC.h **** #define RTC__DEC 12
 130:Generated_Source\PSoC4/RTC.h **** 
 131:Generated_Source\PSoC4/RTC.h **** /* DST WeekOfMonth setting constants */
 132:Generated_Source\PSoC4/RTC.h **** #define RTC__FIRST 1
 133:Generated_Source\PSoC4/RTC.h **** #define RTC__SECOND 2
 134:Generated_Source\PSoC4/RTC.h **** #define RTC__THIRD 3
 135:Generated_Source\PSoC4/RTC.h **** #define RTC__FOURTH 4
 136:Generated_Source\PSoC4/RTC.h **** #define RTC__FIFTH 5
 137:Generated_Source\PSoC4/RTC.h **** #define RTC__LAST 6
 138:Generated_Source\PSoC4/RTC.h **** 
 139:Generated_Source\PSoC4/RTC.h **** 
 140:Generated_Source\PSoC4/RTC.h **** #define RTC_INITIAL_DATA_FORMAT     (0u)
 141:Generated_Source\PSoC4/RTC.h **** #define RTC_INITIAL_TIME_FORMAT     (0u)
 142:Generated_Source\PSoC4/RTC.h **** #define RTC_INITIAL_UPDATE_MODE     (0u)
 143:Generated_Source\PSoC4/RTC.h **** #define RTC_INITIAL_SECOND          (0u)
 144:Generated_Source\PSoC4/RTC.h **** #define RTC_INITIAL_MINUTE          (0u)
 145:Generated_Source\PSoC4/RTC.h **** #define RTC_INITIAL_HOUR            (0u)
 146:Generated_Source\PSoC4/RTC.h **** #define RTC_INITIAL_DAY             (1u)
 147:Generated_Source\PSoC4/RTC.h **** #define RTC_INITIAL_MONTH           (1u)
 148:Generated_Source\PSoC4/RTC.h **** #define RTC_INITIAL_YEAR            (1970u)
 149:Generated_Source\PSoC4/RTC.h **** 
 150:Generated_Source\PSoC4/RTC.h **** #define RTC_INITIAL_ALARM_STATUS    (0u)
 151:Generated_Source\PSoC4/RTC.h **** 
 152:Generated_Source\PSoC4/RTC.h **** #define RTC_INITIAL_DST_STATUS      (1u)
 153:Generated_Source\PSoC4/RTC.h **** #define RTC_INITIAL_DST_DATE_TYPE   (1u)
 154:Generated_Source\PSoC4/RTC.h **** #define RTC_INITIAL_DST_START_MONTH (3uL)
 155:Generated_Source\PSoC4/RTC.h **** #define RTC_INITIAL_DST_START_WOM   (6uL)
 156:Generated_Source\PSoC4/RTC.h **** #define RTC_INITIAL_DST_START_DOM   (22uL)
 157:Generated_Source\PSoC4/RTC.h **** #define RTC_INITIAL_DST_START_DOW   (1uL)
 158:Generated_Source\PSoC4/RTC.h **** #define RTC_INITIAL_DST_START_HRS   (3uL)
 159:Generated_Source\PSoC4/RTC.h **** #define RTC_INITIAL_DST_STOP_MONTH  (10uL)
 160:Generated_Source\PSoC4/RTC.h **** #define RTC_INITIAL_DST_STOP_DOM    (22uL)
 161:Generated_Source\PSoC4/RTC.h **** #define RTC_INITIAL_DST_STOP_DOW    (1uL)
 162:Generated_Source\PSoC4/RTC.h **** #define RTC_INITIAL_DST_STOP_WOM    (6uL)
 163:Generated_Source\PSoC4/RTC.h **** #define RTC_INITIAL_DST_STOP_HRS    (3uL)
 164:Generated_Source\PSoC4/RTC.h **** 
 165:Generated_Source\PSoC4/RTC.h **** /* Day of week definitions */
 166:Generated_Source\PSoC4/RTC.h **** #define RTC_SUNDAY     (RTC__SUNDAY)
 167:Generated_Source\PSoC4/RTC.h **** #define RTC_MONDAY     (RTC__MONDAY)
 168:Generated_Source\PSoC4/RTC.h **** #define RTC_TUESDAY    (RTC__TUESDAY)
 169:Generated_Source\PSoC4/RTC.h **** #define RTC_WEDNESDAY  (RTC__WEDNESDAY)
 170:Generated_Source\PSoC4/RTC.h **** #define RTC_THURSDAY   (RTC__THURSDAY)
 171:Generated_Source\PSoC4/RTC.h **** #define RTC_FRIDAY     (RTC__FRIDAY)
 172:Generated_Source\PSoC4/RTC.h **** #define RTC_SATURDAY   (RTC__SATURDAY)
 173:Generated_Source\PSoC4/RTC.h **** 
 174:Generated_Source\PSoC4/RTC.h **** /* DST WeekOfMonth setting constants definitions */
 175:Generated_Source\PSoC4/RTC.h **** #define RTC_FIRST      (RTC__FIRST)
 176:Generated_Source\PSoC4/RTC.h **** #define RTC_SECOND     (RTC__SECOND)
 177:Generated_Source\PSoC4/RTC.h **** #define RTC_THIRD      (RTC__THIRD)
 178:Generated_Source\PSoC4/RTC.h **** #define RTC_FOURTH     (RTC__FOURTH)
ARM GAS  C:\Users\okuntso\AppData\Local\Temp\cceWmgJO.s 			page 12


 179:Generated_Source\PSoC4/RTC.h **** #define RTC_FIFTH      (RTC__FIFTH)
 180:Generated_Source\PSoC4/RTC.h **** #define RTC_LAST       (RTC__LAST)
 181:Generated_Source\PSoC4/RTC.h **** 
 182:Generated_Source\PSoC4/RTC.h **** /* Month definitions */
 183:Generated_Source\PSoC4/RTC.h **** #define RTC_JANUARY    (RTC__JAN)
 184:Generated_Source\PSoC4/RTC.h **** #define RTC_FEBRUARY   (RTC__FEB)
 185:Generated_Source\PSoC4/RTC.h **** #define RTC_MARCH      (RTC__MAR)
 186:Generated_Source\PSoC4/RTC.h **** #define RTC_APRIL      (RTC__APR)
 187:Generated_Source\PSoC4/RTC.h **** #define RTC_MAY        (RTC__MAY)
 188:Generated_Source\PSoC4/RTC.h **** #define RTC_JUNE       (RTC__JUN)
 189:Generated_Source\PSoC4/RTC.h **** #define RTC_JULY       (RTC__JUL)
 190:Generated_Source\PSoC4/RTC.h **** #define RTC_AUGUST     (RTC__AUG)
 191:Generated_Source\PSoC4/RTC.h **** #define RTC_SEPTEMBER  (RTC__SEP)
 192:Generated_Source\PSoC4/RTC.h **** #define RTC_OCTOBER    (RTC__OCT)
 193:Generated_Source\PSoC4/RTC.h **** #define RTC_NOVEMBER   (RTC__NOV)
 194:Generated_Source\PSoC4/RTC.h **** #define RTC_DECEMBER   (RTC__DEC)
 195:Generated_Source\PSoC4/RTC.h **** 
 196:Generated_Source\PSoC4/RTC.h **** #define RTC_DAYS_PER_WEEK       (7u)
 197:Generated_Source\PSoC4/RTC.h **** 
 198:Generated_Source\PSoC4/RTC.h **** /* Number of days in month definitions */
 199:Generated_Source\PSoC4/RTC.h **** #define RTC_DAYS_IN_JANUARY     (31u)
 200:Generated_Source\PSoC4/RTC.h **** #define RTC_DAYS_IN_FEBRUARY    (28u)
 201:Generated_Source\PSoC4/RTC.h **** #define RTC_DAYS_IN_MARCH       (31u)
 202:Generated_Source\PSoC4/RTC.h **** #define RTC_DAYS_IN_APRIL       (30u)
 203:Generated_Source\PSoC4/RTC.h **** #define RTC_DAYS_IN_MAY         (31u)
 204:Generated_Source\PSoC4/RTC.h **** #define RTC_DAYS_IN_JUNE        (30u)
 205:Generated_Source\PSoC4/RTC.h **** #define RTC_DAYS_IN_JULY        (31u)
 206:Generated_Source\PSoC4/RTC.h **** #define RTC_DAYS_IN_AUGUST      (31u)
 207:Generated_Source\PSoC4/RTC.h **** #define RTC_DAYS_IN_SEPTEMBER   (30u)
 208:Generated_Source\PSoC4/RTC.h **** #define RTC_DAYS_IN_OCTOBER     (31u)
 209:Generated_Source\PSoC4/RTC.h **** #define RTC_DAYS_IN_NOVEMBER    (30u)
 210:Generated_Source\PSoC4/RTC.h **** #define RTC_DAYS_IN_DECEMBER    (31u)
 211:Generated_Source\PSoC4/RTC.h **** 
 212:Generated_Source\PSoC4/RTC.h **** #define RTC_MONTHS_PER_YEAR     (12uL)
 213:Generated_Source\PSoC4/RTC.h **** 
 214:Generated_Source\PSoC4/RTC.h **** #define RTC_HOURS_PER_DAY       (24uL)
 215:Generated_Source\PSoC4/RTC.h **** #define RTC_HOURS_PER_HALF_DAY  (12uL)
 216:Generated_Source\PSoC4/RTC.h **** 
 217:Generated_Source\PSoC4/RTC.h **** #define RTC_SECONDS_PER_MINUTE  (60uL)
 218:Generated_Source\PSoC4/RTC.h **** #define RTC_SECONDS_PER_HOUR    (3600uL)
 219:Generated_Source\PSoC4/RTC.h **** #define RTC_SECONDS_PER_DAY     (24uL * 3600uL)
 220:Generated_Source\PSoC4/RTC.h **** 
 221:Generated_Source\PSoC4/RTC.h **** #define RTC_SECONDS_PER_LEAP_YEAR    (366uL * 24uL * 3600uL)
 222:Generated_Source\PSoC4/RTC.h **** #define RTC_SECONDS_PER_NONLEAP_YEAR (365uL * 24uL * 3600uL)
 223:Generated_Source\PSoC4/RTC.h **** 
 224:Generated_Source\PSoC4/RTC.h **** #define RTC_UNIX_TIME_PM   ((12uL * 3600uL) + 1uL)
 225:Generated_Source\PSoC4/RTC.h **** 
 226:Generated_Source\PSoC4/RTC.h **** /* AM/PM status definitions */
 227:Generated_Source\PSoC4/RTC.h **** #define RTC_AM                 (0u)
 228:Generated_Source\PSoC4/RTC.h **** #define RTC_PM                 (1u)
 229:Generated_Source\PSoC4/RTC.h **** 
 230:Generated_Source\PSoC4/RTC.h **** /* Time format definitions */
 231:Generated_Source\PSoC4/RTC.h **** #define RTC_12_HOURS_FORMAT    (RTC__HOUR_12)
 232:Generated_Source\PSoC4/RTC.h **** #define RTC_24_HOURS_FORMAT    (RTC__HOUR_24)
 233:Generated_Source\PSoC4/RTC.h **** 
 234:Generated_Source\PSoC4/RTC.h **** /* UNIX time begins in 1970 year.  */
 235:Generated_Source\PSoC4/RTC.h **** #define RTC_YEAR_0             (1970u)
ARM GAS  C:\Users\okuntso\AppData\Local\Temp\cceWmgJO.s 			page 13


 236:Generated_Source\PSoC4/RTC.h **** 
 237:Generated_Source\PSoC4/RTC.h **** /* Definition of date register fields */
 238:Generated_Source\PSoC4/RTC.h **** #if(RTC_INITIAL_DATA_FORMAT == RTC__MM_DD_YYYY)
 239:Generated_Source\PSoC4/RTC.h ****     #define RTC_10_MONTH_OFFSET   (28u)
 240:Generated_Source\PSoC4/RTC.h ****     #define RTC_MONTH_OFFSET      (24u)
 241:Generated_Source\PSoC4/RTC.h ****     #define RTC_10_DAY_OFFSET     (20u)
 242:Generated_Source\PSoC4/RTC.h ****     #define RTC_DAY_OFFSET        (16u)
 243:Generated_Source\PSoC4/RTC.h ****     #define RTC_1000_YEAR_OFFSET  (12u)
 244:Generated_Source\PSoC4/RTC.h ****     #define RTC_100_YEAR_OFFSET   (8u)
 245:Generated_Source\PSoC4/RTC.h ****     #define RTC_10_YEAR_OFFSET    (4u)
 246:Generated_Source\PSoC4/RTC.h ****     #define RTC_YEAR_OFFSET       (0u)
 247:Generated_Source\PSoC4/RTC.h **** #elif(RTC_INITIAL_DATA_FORMAT == RTC__DD_MM_YYYY)
 248:Generated_Source\PSoC4/RTC.h ****     #define RTC_10_MONTH_OFFSET   (20u)
 249:Generated_Source\PSoC4/RTC.h ****     #define RTC_MONTH_OFFSET      (16u)
 250:Generated_Source\PSoC4/RTC.h ****     #define RTC_10_DAY_OFFSET     (28u)
 251:Generated_Source\PSoC4/RTC.h ****     #define RTC_DAY_OFFSET        (24u)
 252:Generated_Source\PSoC4/RTC.h ****     #define RTC_1000_YEAR_OFFSET  (12u)
 253:Generated_Source\PSoC4/RTC.h ****     #define RTC_100_YEAR_OFFSET   (8u)
 254:Generated_Source\PSoC4/RTC.h ****     #define RTC_10_YEAR_OFFSET    (4u)
 255:Generated_Source\PSoC4/RTC.h ****     #define RTC_YEAR_OFFSET       (0u)
 256:Generated_Source\PSoC4/RTC.h **** #else
 257:Generated_Source\PSoC4/RTC.h ****     #define RTC_10_MONTH_OFFSET   (12u)
 258:Generated_Source\PSoC4/RTC.h ****     #define RTC_MONTH_OFFSET      (8u)
 259:Generated_Source\PSoC4/RTC.h ****     #define RTC_10_DAY_OFFSET     (4u)
 260:Generated_Source\PSoC4/RTC.h ****     #define RTC_DAY_OFFSET        (0u)
 261:Generated_Source\PSoC4/RTC.h ****     #define RTC_1000_YEAR_OFFSET  (28u)
 262:Generated_Source\PSoC4/RTC.h ****     #define RTC_100_YEAR_OFFSET   (24u)
 263:Generated_Source\PSoC4/RTC.h ****     #define RTC_10_YEAR_OFFSET    (20u)
 264:Generated_Source\PSoC4/RTC.h ****     #define RTC_YEAR_OFFSET       (16u)
 265:Generated_Source\PSoC4/RTC.h **** #endif /* (RTC_INITIAL_DATA_FORMAT == RTC__MM_DD_YYYY) */
 266:Generated_Source\PSoC4/RTC.h **** 
 267:Generated_Source\PSoC4/RTC.h **** #define RTC_10_MONTH_MASK          (0x00000001uL << RTC_10_MONTH_OFFSET)
 268:Generated_Source\PSoC4/RTC.h **** #define RTC_MONTH_MASK             (0x0000000FuL << RTC_MONTH_OFFSET)
 269:Generated_Source\PSoC4/RTC.h **** #define RTC_10_DAY_MASK            (0x00000003uL << RTC_10_DAY_OFFSET)
 270:Generated_Source\PSoC4/RTC.h **** #define RTC_DAY_MASK               (0x0000000FuL << RTC_DAY_OFFSET)
 271:Generated_Source\PSoC4/RTC.h **** #define RTC_1000_YEAR_MASK         (0x00000003uL << RTC_1000_YEAR_OFFSET)
 272:Generated_Source\PSoC4/RTC.h **** #define RTC_100_YEAR_MASK          (0x0000000FuL << RTC_100_YEAR_OFFSET)
 273:Generated_Source\PSoC4/RTC.h **** #define RTC_10_YEAR_MASK           (0x0000000FuL << RTC_10_YEAR_OFFSET)
 274:Generated_Source\PSoC4/RTC.h **** #define RTC_YEAR_MASK              (0x0000000FuL << RTC_YEAR_OFFSET)
 275:Generated_Source\PSoC4/RTC.h **** 
 276:Generated_Source\PSoC4/RTC.h **** #define  RTC_MONTH_FULL_MASK       (RTC_10_MONTH_MASK  | RTC_MONTH_MASK)
 277:Generated_Source\PSoC4/RTC.h **** #define  RTC_DAY_FULL_MASK         (RTC_10_DAY_MASK    | RTC_DAY_MASK)
 278:Generated_Source\PSoC4/RTC.h **** #define  RTC_YEAR_FULL_MASK        (RTC_1000_YEAR_MASK | RTC_100_YEAR_MASK |\
 279:Generated_Source\PSoC4/RTC.h ****                                                  RTC_10_YEAR_MASK   | RTC_YEAR_MASK)
 280:Generated_Source\PSoC4/RTC.h **** 
 281:Generated_Source\PSoC4/RTC.h **** 
 282:Generated_Source\PSoC4/RTC.h **** /* Definition of time register fields */
 283:Generated_Source\PSoC4/RTC.h **** #define RTC_TIME_FORMAT_OFFSET     (23u)
 284:Generated_Source\PSoC4/RTC.h **** #define RTC_PERIOD_OF_DAY_OFFSET   (22u)
 285:Generated_Source\PSoC4/RTC.h **** #define RTC_10_HOURS_OFFSET        (20u)
 286:Generated_Source\PSoC4/RTC.h **** #define RTC_HOURS_OFFSET           (16u)
 287:Generated_Source\PSoC4/RTC.h **** #define RTC_10_MINUTES_OFFSET      (12u)
 288:Generated_Source\PSoC4/RTC.h **** #define RTC_MINUTES_OFFSET         (8u)
 289:Generated_Source\PSoC4/RTC.h **** #define RTC_10_SECONDS_OFFSET      (4u)
 290:Generated_Source\PSoC4/RTC.h **** #define RTC_SECONDS_OFFSET         (0u)
 291:Generated_Source\PSoC4/RTC.h **** 
 292:Generated_Source\PSoC4/RTC.h **** #define RTC_TIME_FORMAT_MASK       (0x00000001uL << RTC_TIME_FORMAT_OFFSET)
ARM GAS  C:\Users\okuntso\AppData\Local\Temp\cceWmgJO.s 			page 14


 293:Generated_Source\PSoC4/RTC.h **** #define RTC_PERIOD_OF_DAY_MASK     (0x00000001uL << RTC_PERIOD_OF_DAY_OFFSET)
 294:Generated_Source\PSoC4/RTC.h **** #define RTC_10_HOURS_MASK          (0x00000003uL << RTC_10_HOURS_OFFSET)
 295:Generated_Source\PSoC4/RTC.h **** #define RTC_HOURS_MASK             (0x0000000FuL << RTC_HOURS_OFFSET)
 296:Generated_Source\PSoC4/RTC.h **** #define RTC_10_MINUTES_MASK        (0x00000007uL << RTC_10_MINUTES_OFFSET)
 297:Generated_Source\PSoC4/RTC.h **** #define RTC_MINUTES_MASK           (0x0000000FuL << RTC_MINUTES_OFFSET)
 298:Generated_Source\PSoC4/RTC.h **** #define RTC_10_SECONDS_MASK        (0x00000007uL << RTC_10_SECONDS_OFFSET)
 299:Generated_Source\PSoC4/RTC.h **** #define RTC_SECONDS_MASK           (0x0000000FuL << RTC_SECONDS_OFFSET)
 300:Generated_Source\PSoC4/RTC.h **** 
 301:Generated_Source\PSoC4/RTC.h **** #define RTC_HOURS_FULL_MASK        (RTC_10_HOURS_MASK   | RTC_HOURS_MASK)
 302:Generated_Source\PSoC4/RTC.h **** #define RTC_MINUTES_FULL_MASK      (RTC_10_MINUTES_MASK | RTC_MINUTES_MASK)
 303:Generated_Source\PSoC4/RTC.h **** #define RTC_SECONDS_FULL_MASK      (RTC_10_SECONDS_MASK | RTC_SECONDS_MASK)
 304:Generated_Source\PSoC4/RTC.h **** 
 305:Generated_Source\PSoC4/RTC.h **** #define RTC_ALARM_SEC_MASK         (0x00000001uL)
 306:Generated_Source\PSoC4/RTC.h **** #define RTC_ALARM_MIN_MASK         (0x00000002uL)
 307:Generated_Source\PSoC4/RTC.h **** #define RTC_ALARM_HOUR_MASK        (0x00000004uL)
 308:Generated_Source\PSoC4/RTC.h **** #define RTC_ALARM_DAYOFWEEK_MASK   (0x00000008uL)
 309:Generated_Source\PSoC4/RTC.h **** #define RTC_ALARM_DAYOFMONTH_MASK  (0x00000010uL)
 310:Generated_Source\PSoC4/RTC.h **** #define RTC_ALARM_MONTH_MASK       (0x00000020uL)
 311:Generated_Source\PSoC4/RTC.h **** #define RTC_ALARM_YEAR_MASK        (0x00000040uL)
 312:Generated_Source\PSoC4/RTC.h **** 
 313:Generated_Source\PSoC4/RTC.h **** #define RTC_STATUS_DST_OFFSET      (1u)
 314:Generated_Source\PSoC4/RTC.h **** #define RTC_STATUS_ALARM_OFFSET    (2u)
 315:Generated_Source\PSoC4/RTC.h **** #define RTC_STATUS_LY_OFFSET       (3u)
 316:Generated_Source\PSoC4/RTC.h **** #define RTC_STATUS_AM_PM_OFFSET    (4u)
 317:Generated_Source\PSoC4/RTC.h **** 
 318:Generated_Source\PSoC4/RTC.h **** /* Definition of the RTC status values. */
 319:Generated_Source\PSoC4/RTC.h **** #define RTC_STATUS_DST             (1uL << RTC_STATUS_DST_OFFSET)
 320:Generated_Source\PSoC4/RTC.h **** #define RTC_STATUS_LY              (1uL << RTC_STATUS_LY_OFFSET)
 321:Generated_Source\PSoC4/RTC.h **** #define RTC_STATUS_AM_PM           (1uL << RTC_STATUS_AM_PM_OFFSET)
 322:Generated_Source\PSoC4/RTC.h **** 
 323:Generated_Source\PSoC4/RTC.h **** /* Number of bits per one BCD digit. */
 324:Generated_Source\PSoC4/RTC.h **** #define RTC_BCD_NUMBER_SIZE        (4u)
 325:Generated_Source\PSoC4/RTC.h **** #define RTC_BCD_ONE_DIGIT_MASK     (0x0000000FuL)
 326:Generated_Source\PSoC4/RTC.h **** 
 327:Generated_Source\PSoC4/RTC.h **** /*******************************************************************************
 328:Generated_Source\PSoC4/RTC.h **** *    Function Prototypes
 329:Generated_Source\PSoC4/RTC.h **** *******************************************************************************/
 330:Generated_Source\PSoC4/RTC.h **** /**
 331:Generated_Source\PSoC4/RTC.h **** * \addtogroup group_api
 332:Generated_Source\PSoC4/RTC.h **** * @{
 333:Generated_Source\PSoC4/RTC.h **** */
 334:Generated_Source\PSoC4/RTC.h **** void   RTC_Start(void);
 335:Generated_Source\PSoC4/RTC.h **** void   RTC_Stop(void);
 336:Generated_Source\PSoC4/RTC.h **** void   RTC_Init(void);
 337:Generated_Source\PSoC4/RTC.h **** void   RTC_SetUnixTime(uint64 unixTime);
 338:Generated_Source\PSoC4/RTC.h **** uint64 RTC_GetUnixTime(void);
 339:Generated_Source\PSoC4/RTC.h **** void   RTC_SetPeriod(uint32 ticks, uint32 refOneSecTicks);
 340:Generated_Source\PSoC4/RTC.h **** uint32 RTC_GetPeriod(void);
 341:Generated_Source\PSoC4/RTC.h **** uint32 RTC_GetRefOneSec(void);
 342:Generated_Source\PSoC4/RTC.h **** void   RTC_SetDateAndTime(uint32 inputTime, uint32 inputDate);
 343:Generated_Source\PSoC4/RTC.h **** void   RTC_GetDateAndTime(RTC_DATE_TIME* dateTime);
 344:Generated_Source\PSoC4/RTC.h **** uint32 RTC_GetTime(void);
 345:Generated_Source\PSoC4/RTC.h **** uint32 RTC_GetDate(void);
 346:Generated_Source\PSoC4/RTC.h **** void   RTC_SetAlarmDateAndTime(const RTC_DATE_TIME* alarmTime);
 347:Generated_Source\PSoC4/RTC.h **** void   RTC_GetAlarmDateAndTime(RTC_DATE_TIME* alarmTimeDate);
 348:Generated_Source\PSoC4/RTC.h **** void   RTC_SetAlarmMask(uint32 mask);
 349:Generated_Source\PSoC4/RTC.h **** uint32 RTC_GetAlarmMask(void);
ARM GAS  C:\Users\okuntso\AppData\Local\Temp\cceWmgJO.s 			page 15


 350:Generated_Source\PSoC4/RTC.h **** uint32 RTC_ReadStatus(void);
 351:Generated_Source\PSoC4/RTC.h **** uint32 RTC_GetAlarmStatus(void);
 352:Generated_Source\PSoC4/RTC.h **** void   RTC_ClearAlarmStatus(void);
 353:Generated_Source\PSoC4/RTC.h **** void   RTC_SetDSTStartTime(const RTC_DST_TIME* dstStartTime,
 354:Generated_Source\PSoC4/RTC.h ****                                               RTC_DST_DATETYPE_ENUM type);
 355:Generated_Source\PSoC4/RTC.h **** void   RTC_SetDSTStopTime(const RTC_DST_TIME* dstStopTime,
 356:Generated_Source\PSoC4/RTC.h ****                                              RTC_DST_DATETYPE_ENUM type);
 357:Generated_Source\PSoC4/RTC.h **** uint32 RTC_ConvertBCDToDec(uint32 bcdNum);
 358:Generated_Source\PSoC4/RTC.h **** uint32 RTC_ConvertDecToBCD(uint32 decNum);
 359:Generated_Source\PSoC4/RTC.h **** void   RTC_Update(void);
 360:Generated_Source\PSoC4/RTC.h **** void*  RTC_SetAlarmHandler(void (*CallbackFunction)(void));
 361:Generated_Source\PSoC4/RTC.h **** 
 362:Generated_Source\PSoC4/RTC.h **** static uint32 RTC_ConstructDate(uint32 month, uint32 day, uint32 year);
 363:Generated_Source\PSoC4/RTC.h **** static uint32 RTC_ConstructTime(uint32 timeFormat, uint32 stateAmPm, uint32 hour, uint32 min, uint3
 364:Generated_Source\PSoC4/RTC.h **** /** @} api */
 365:Generated_Source\PSoC4/RTC.h **** 
 366:Generated_Source\PSoC4/RTC.h **** static uint32 RTC_GetTimeFormat(uint32 inputTime);
 367:Generated_Source\PSoC4/RTC.h **** static uint32 RTC_SetTimeFormat(uint32 inputTime, uint32 timeFormat);
 368:Generated_Source\PSoC4/RTC.h **** 
 369:Generated_Source\PSoC4/RTC.h **** /**
 370:Generated_Source\PSoC4/RTC.h **** * \addtogroup group_api
 371:Generated_Source\PSoC4/RTC.h **** * @{
 372:Generated_Source\PSoC4/RTC.h **** */
 373:Generated_Source\PSoC4/RTC.h **** static uint32 RTC_LeapYear(uint32 year);
 374:Generated_Source\PSoC4/RTC.h **** static uint32 RTC_IsBitSet(uint32 var, uint32 mask);
 375:Generated_Source\PSoC4/RTC.h **** static uint32 RTC_GetSecond(uint32 inputTime);
 376:Generated_Source\PSoC4/RTC.h **** static uint32 RTC_GetMinutes(uint32 inputTime);
 377:Generated_Source\PSoC4/RTC.h **** static uint32 RTC_GetHours(uint32 inputTime);
 378:Generated_Source\PSoC4/RTC.h **** static uint32 RTC_GetAmPm(uint32 inputTime);
 379:Generated_Source\PSoC4/RTC.h **** static uint32 RTC_GetDay(uint32 date);
 380:Generated_Source\PSoC4/RTC.h **** static uint32 RTC_GetMonth(uint32 date);
 381:Generated_Source\PSoC4/RTC.h **** static uint32 RTC_GetYear(uint32 date);
 382:Generated_Source\PSoC4/RTC.h **** /** @} api */
 383:Generated_Source\PSoC4/RTC.h **** 
 384:Generated_Source\PSoC4/RTC.h **** static uint32 RTC_SetSecond(uint32 inputTime, uint32 inputSecond);
 385:Generated_Source\PSoC4/RTC.h **** static uint32 RTC_SetMinutes(uint32 inputTime, uint32 inputMinute);
 386:Generated_Source\PSoC4/RTC.h **** static uint32 RTC_SetHours(uint32 inputTime, uint32 inputHours);
 387:Generated_Source\PSoC4/RTC.h **** static uint32 RTC_SetAmPm(uint32 inputTime, uint32 periodOfDay);
 388:Generated_Source\PSoC4/RTC.h **** static uint32 RTC_SetDay(uint32 inputDate, uint32 inputDay);
 389:Generated_Source\PSoC4/RTC.h **** static uint32 RTC_SetMonth(uint32 inputDate, uint32 inputMonth);
 390:Generated_Source\PSoC4/RTC.h **** static uint32 RTC_SetYear(uint32 inputDate, uint32 inputYear);
 391:Generated_Source\PSoC4/RTC.h **** 
 392:Generated_Source\PSoC4/RTC.h **** uint64 RTC_ConstructUnixAlarmTime(const RTC_DATE_TIME* alarmTime, uint8 alarmCfgMask);
 393:Generated_Source\PSoC4/RTC.h **** uint64 RTC_GetDstUnixTime(const RTC_DST_TIME* dstTime);
 394:Generated_Source\PSoC4/RTC.h **** uint64 RTC_GetNexAlarmTime(uint64 curUnixTime, uint8 alarmCfgMask);
 395:Generated_Source\PSoC4/RTC.h **** 
 396:Generated_Source\PSoC4/RTC.h **** static uint32 RTC_GetNextMinSec(uint32 curVal);
 397:Generated_Source\PSoC4/RTC.h **** static uint32 RTC_GetNextHour(uint32 curVal);
 398:Generated_Source\PSoC4/RTC.h **** static uint32 RTC_GetNextDay(uint32 curYear, uint32 curMonth, uint32 curDay, uint32 alarmCfgMask);
 399:Generated_Source\PSoC4/RTC.h **** static uint32 RTC_GetNextMonth(uint32 curMonth);
 400:Generated_Source\PSoC4/RTC.h **** static uint32 RTC_GetNextYear(uint32 curYear);
 401:Generated_Source\PSoC4/RTC.h **** static uint32 RTC_GetDayOfWeek(uint32 day, uint32 month, uint32 year);
 402:Generated_Source\PSoC4/RTC.h **** 
 403:Generated_Source\PSoC4/RTC.h **** uint32 RTC_DaysInMonth(uint32 month, uint32 year);
 404:Generated_Source\PSoC4/RTC.h **** uint32 RTC_DaysBeforeMonth(uint32 month, uint32 year);
 405:Generated_Source\PSoC4/RTC.h **** 
 406:Generated_Source\PSoC4/RTC.h **** /**
ARM GAS  C:\Users\okuntso\AppData\Local\Temp\cceWmgJO.s 			page 16


 407:Generated_Source\PSoC4/RTC.h **** * \addtogroup group_api
 408:Generated_Source\PSoC4/RTC.h **** * @{
 409:Generated_Source\PSoC4/RTC.h **** */
 410:Generated_Source\PSoC4/RTC.h **** void   RTC_UnixToDateTime(RTC_DATE_TIME* dateTime, uint64 unixTime, uint32 timeFormat);
 411:Generated_Source\PSoC4/RTC.h **** uint64 RTC_DateTimeToUnix(uint32 inputDate, uint32 inputTime);
 412:Generated_Source\PSoC4/RTC.h **** /** @} api */
 413:Generated_Source\PSoC4/RTC.h **** 
 414:Generated_Source\PSoC4/RTC.h **** uint32 RTC_RelativeToFixed(uint32 dayOfWeek, uint32 weekOfMonth, uint32 month, uint32 year);
 415:Generated_Source\PSoC4/RTC.h **** 
 416:Generated_Source\PSoC4/RTC.h **** 
 417:Generated_Source\PSoC4/RTC.h **** #if defined(CYDEV_RTC_SOURCE_WDT)
 418:Generated_Source\PSoC4/RTC.h ****     #if((0u != CYDEV_WDT_GENERATE_ISR) && (0u == RTC_INITIAL_UPDATE_MODE))
 419:Generated_Source\PSoC4/RTC.h ****         static void RTC_CySysRtcSetCallback(uint32 wdtNumber);
 420:Generated_Source\PSoC4/RTC.h ****         static void RTC_CySysRtcResetCallback(uint32 wdtNumber);
 421:Generated_Source\PSoC4/RTC.h ****     #endif /* ((0u != CYDEV_WDT_GENERATE_ISR) && (0u == RTC_INITIAL_UPDATE_MODE)) */
 422:Generated_Source\PSoC4/RTC.h **** #endif /* (CYDEV_RTC_SOURCE_WDT) */
 423:Generated_Source\PSoC4/RTC.h **** 
 424:Generated_Source\PSoC4/RTC.h **** /*******************************************************************************
 425:Generated_Source\PSoC4/RTC.h **** * Function Name: RTC_IsBitSet
 426:Generated_Source\PSoC4/RTC.h **** ****************************************************************************//**
 427:Generated_Source\PSoC4/RTC.h **** *
 428:Generated_Source\PSoC4/RTC.h **** * \brief
 429:Generated_Source\PSoC4/RTC.h **** *  Checks the state of a bit passed through parameter.
 430:Generated_Source\PSoC4/RTC.h **** *
 431:Generated_Source\PSoC4/RTC.h **** * \param
 432:Generated_Source\PSoC4/RTC.h **** *  var The variable to be checked.
 433:Generated_Source\PSoC4/RTC.h **** * \param
 434:Generated_Source\PSoC4/RTC.h **** *  mask The mask for a bit to be checked.
 435:Generated_Source\PSoC4/RTC.h **** *
 436:Generated_Source\PSoC4/RTC.h **** * \return
 437:Generated_Source\PSoC4/RTC.h **** *  0u - Bit is not set.
 438:Generated_Source\PSoC4/RTC.h **** * \return
 439:Generated_Source\PSoC4/RTC.h **** *  1u - Bit is set.
 440:Generated_Source\PSoC4/RTC.h **** *
 441:Generated_Source\PSoC4/RTC.h **** *******************************************************************************/
 442:Generated_Source\PSoC4/RTC.h **** static CY_INLINE uint32 RTC_IsBitSet(uint32 var, uint32 mask)
 443:Generated_Source\PSoC4/RTC.h **** {
 444:Generated_Source\PSoC4/RTC.h ****     return ((mask == (var & mask)) ? 1Lu : 0Lu);
 445:Generated_Source\PSoC4/RTC.h **** }
 446:Generated_Source\PSoC4/RTC.h **** 
 447:Generated_Source\PSoC4/RTC.h **** 
 448:Generated_Source\PSoC4/RTC.h **** /*******************************************************************************
 449:Generated_Source\PSoC4/RTC.h **** * Function Name: RTC_LeapYear
 450:Generated_Source\PSoC4/RTC.h **** ****************************************************************************//**
 451:Generated_Source\PSoC4/RTC.h **** *
 452:Generated_Source\PSoC4/RTC.h **** * \brief
 453:Generated_Source\PSoC4/RTC.h **** * Checks whether the year passed through the parameter is
 454:Generated_Source\PSoC4/RTC.h **** * leap or no.
 455:Generated_Source\PSoC4/RTC.h **** *
 456:Generated_Source\PSoC4/RTC.h **** * \param
 457:Generated_Source\PSoC4/RTC.h **** *  year The year to be checked.
 458:Generated_Source\PSoC4/RTC.h **** *
 459:Generated_Source\PSoC4/RTC.h **** *
 460:Generated_Source\PSoC4/RTC.h **** * \return
 461:Generated_Source\PSoC4/RTC.h **** *  0u - The year is not leap.
 462:Generated_Source\PSoC4/RTC.h **** * \return
 463:Generated_Source\PSoC4/RTC.h **** *  1u - The year is leap.
ARM GAS  C:\Users\okuntso\AppData\Local\Temp\cceWmgJO.s 			page 17


 464:Generated_Source\PSoC4/RTC.h **** *
 465:Generated_Source\PSoC4/RTC.h **** *******************************************************************************/
 466:Generated_Source\PSoC4/RTC.h **** static CY_INLINE uint32 RTC_LeapYear(uint32 year)
 467:Generated_Source\PSoC4/RTC.h **** {
 468:Generated_Source\PSoC4/RTC.h ****     uint32 retVal;
 469:Generated_Source\PSoC4/RTC.h **** 
 470:Generated_Source\PSoC4/RTC.h ****     if(((0u == (year % 4Lu)) && (0u != (year % 100Lu))) || (0u == (year % 400Lu)))
 471:Generated_Source\PSoC4/RTC.h ****     {
 472:Generated_Source\PSoC4/RTC.h ****         retVal = 1uL;
 473:Generated_Source\PSoC4/RTC.h ****     }
 474:Generated_Source\PSoC4/RTC.h ****     else
 475:Generated_Source\PSoC4/RTC.h ****     {
 476:Generated_Source\PSoC4/RTC.h ****         retVal = 0uL;
 477:Generated_Source\PSoC4/RTC.h ****     }
 478:Generated_Source\PSoC4/RTC.h **** 
 479:Generated_Source\PSoC4/RTC.h ****     return(retVal);
 480:Generated_Source\PSoC4/RTC.h **** }
 481:Generated_Source\PSoC4/RTC.h **** 
 482:Generated_Source\PSoC4/RTC.h **** 
 483:Generated_Source\PSoC4/RTC.h **** /*******************************************************************************
 484:Generated_Source\PSoC4/RTC.h **** * Function Name: RTC_GetSecond
 485:Generated_Source\PSoC4/RTC.h **** ****************************************************************************//**
 486:Generated_Source\PSoC4/RTC.h **** *
 487:Generated_Source\PSoC4/RTC.h **** * \brief
 488:Generated_Source\PSoC4/RTC.h **** *  Returns the seconds value from the time value that is passed as a/the parameter.
 489:Generated_Source\PSoC4/RTC.h **** *
 490:Generated_Source\PSoC4/RTC.h **** * \param
 491:Generated_Source\PSoC4/RTC.h **** *  time The time value.
 492:Generated_Source\PSoC4/RTC.h **** *
 493:Generated_Source\PSoC4/RTC.h **** * \return
 494:Generated_Source\PSoC4/RTC.h **** *  The seconds value.
 495:Generated_Source\PSoC4/RTC.h **** *
 496:Generated_Source\PSoC4/RTC.h **** *******************************************************************************/
 497:Generated_Source\PSoC4/RTC.h **** static CY_INLINE uint32 RTC_GetSecond(uint32 inputTime)
 498:Generated_Source\PSoC4/RTC.h **** {
 499:Generated_Source\PSoC4/RTC.h ****     uint32 retVal;
 500:Generated_Source\PSoC4/RTC.h **** 
 501:Generated_Source\PSoC4/RTC.h ****     retVal  = ((inputTime & RTC_10_SECONDS_MASK) >> RTC_10_SECONDS_OFFSET) * 10u;
 502:Generated_Source\PSoC4/RTC.h ****     retVal += (inputTime & RTC_SECONDS_MASK) >> RTC_SECONDS_OFFSET;
 503:Generated_Source\PSoC4/RTC.h **** 
 504:Generated_Source\PSoC4/RTC.h ****     return (retVal);
 505:Generated_Source\PSoC4/RTC.h **** }
 506:Generated_Source\PSoC4/RTC.h **** 
 507:Generated_Source\PSoC4/RTC.h **** 
 508:Generated_Source\PSoC4/RTC.h **** /*******************************************************************************
 509:Generated_Source\PSoC4/RTC.h **** * Function Name: RTC_GetMinutes
 510:Generated_Source\PSoC4/RTC.h **** ****************************************************************************//**
 511:Generated_Source\PSoC4/RTC.h **** *
 512:Generated_Source\PSoC4/RTC.h **** * \brief
 513:Generated_Source\PSoC4/RTC.h **** *  Returns the minutes value from the time value that is passed as a/the 
 514:Generated_Source\PSoC4/RTC.h **** * parameter.
 515:Generated_Source\PSoC4/RTC.h **** *
 516:Generated_Source\PSoC4/RTC.h **** * \param
 517:Generated_Source\PSoC4/RTC.h **** *  time The time value.
 518:Generated_Source\PSoC4/RTC.h **** *
 519:Generated_Source\PSoC4/RTC.h **** * \return
 520:Generated_Source\PSoC4/RTC.h **** *  The minutes value.
ARM GAS  C:\Users\okuntso\AppData\Local\Temp\cceWmgJO.s 			page 18


 521:Generated_Source\PSoC4/RTC.h **** *
 522:Generated_Source\PSoC4/RTC.h **** *******************************************************************************/
 523:Generated_Source\PSoC4/RTC.h **** static CY_INLINE uint32 RTC_GetMinutes(uint32 inputTime)
 524:Generated_Source\PSoC4/RTC.h **** {
 525:Generated_Source\PSoC4/RTC.h ****     uint32 retVal;
 526:Generated_Source\PSoC4/RTC.h **** 
 527:Generated_Source\PSoC4/RTC.h ****     retVal  = ((inputTime & RTC_10_MINUTES_MASK) >> RTC_10_MINUTES_OFFSET) * 10u;
 276              		.loc 2 527 0
 277 000e 020B     		lsrs	r2, r0, #12
 278 0010 0724     		movs	r4, #7
 279 0012 2240     		ands	r2, r4
 280 0014 9300     		lsls	r3, r2, #2
 281 0016 9A18     		adds	r2, r3, r2
 282 0018 5300     		lsls	r3, r2, #1
 283              	.LVL37:
 528:Generated_Source\PSoC4/RTC.h ****     retVal += (inputTime & RTC_MINUTES_MASK) >> RTC_MINUTES_OFFSET;
 284              		.loc 2 528 0
 285 001a 010A     		lsrs	r1, r0, #8
 286 001c 0F22     		movs	r2, #15
 287 001e 1140     		ands	r1, r2
 288 0020 5918     		adds	r1, r3, r1
 289              	.LVL38:
 290              	.LBE7:
 291              	.LBE6:
 292              	.LBB8:
 293              	.LBB9:
 501:Generated_Source\PSoC4/RTC.h ****     retVal += (inputTime & RTC_SECONDS_MASK) >> RTC_SECONDS_OFFSET;
 294              		.loc 2 501 0
 295 0022 0309     		lsrs	r3, r0, #4
 296 0024 2340     		ands	r3, r4
 297 0026 9C00     		lsls	r4, r3, #2
 298 0028 E318     		adds	r3, r4, r3
 299 002a 5C00     		lsls	r4, r3, #1
 300              	.LVL39:
 502:Generated_Source\PSoC4/RTC.h **** 
 301              		.loc 2 502 0
 302 002c 1040     		ands	r0, r2
 303              	.LVL40:
 304 002e 2218     		adds	r2, r4, r0
 305              	.LVL41:
 306              	.LBE9:
 307              	.LBE8:
 159:main.c        ****     printf("%02lu:%02lu\r\n",RTC_GetMinutes(time), RTC_GetSecond(time));
 308              		.loc 1 159 0
 309 0030 0248     		ldr	r0, .L17+4
 310 0032 FFF7FEFF 		bl	printf
 311              	.LVL42:
 160:main.c        **** }
 312              		.loc 1 160 0
 313              		@ sp needed
 314 0036 10BD     		pop	{r4, pc}
 315              	.L18:
 316              		.align	2
 317              	.L17:
 318 0038 00000000 		.word	time
 319 003c 00000000 		.word	.LC4
 320              		.cfi_endproc
ARM GAS  C:\Users\okuntso\AppData\Local\Temp\cceWmgJO.s 			page 19


 321              	.LFE63:
 322              		.size	print_time, .-print_time
 323              		.section	.text.main,"ax",%progbits
 324              		.align	2
 325              		.global	main
 326              		.code	16
 327              		.thumb_func
 328              		.type	main, %function
 329              	main:
 330              	.LFB61:
  79:main.c        **** 
 331              		.loc 1 79 0
 332              		.cfi_startproc
 333              		@ Volatile: function does not return.
 334              		@ args = 0, pretend = 0, frame = 0
 335              		@ frame_needed = 0, uses_anonymous_args = 0
 336 0000 10B5     		push	{r4, lr}
 337              		.cfi_def_cfa_offset 8
 338              		.cfi_offset 4, -8
 339              		.cfi_offset 14, -4
  81:main.c        ****     
 340              		.loc 1 81 0
 341 0002 FFF7FEFF 		bl	D_UART_Start
 342              	.LVL43:
  83:main.c        ****     
 343              		.loc 1 83 0
 344 0006 1348     		ldr	r0, .L22
 345 0008 FFF7FEFF 		bl	isr_adc_StartEx
 346              	.LVL44:
  85:main.c        ****     ADC_Enable();
 347              		.loc 1 85 0
 348 000c FFF7FEFF 		bl	ADC_Timer_Start
 349              	.LVL45:
  86:main.c        ****     ADC_Init();
 350              		.loc 1 86 0
 351 0010 FFF7FEFF 		bl	ADC_Enable
 352              	.LVL46:
  87:main.c        ****     ADC_Start(); /* Initialize ADC */
 353              		.loc 1 87 0
 354 0014 FFF7FEFF 		bl	ADC_Init
 355              	.LVL47:
  88:main.c        ****     ADC_IRQ_Enable(); /* Enable ADC interrupts */
 356              		.loc 1 88 0
 357 0018 FFF7FEFF 		bl	ADC_Start
 358              	.LVL48:
  89:main.c        ****     ADC_StartConvert(); /* Start ADC conversions */
 359              		.loc 1 89 0
 360 001c FFF7FEFF 		bl	ADC_IRQ_Enable
 361              	.LVL49:
  90:main.c        ****     IDAC_Start();
 362              		.loc 1 90 0
 363 0020 FFF7FEFF 		bl	ADC_StartConvert
 364              	.LVL50:
  91:main.c        ****     
 365              		.loc 1 91 0
 366 0024 FFF7FEFF 		bl	IDAC_Start
 367              	.LVL51:
ARM GAS  C:\Users\okuntso\AppData\Local\Temp\cceWmgJO.s 			page 20


  93:main.c        ****     
 368              		.loc 1 93 0
 369 0028 0B48     		ldr	r0, .L22+4
 370 002a FFF7FEFF 		bl	puts
 371              	.LVL52:
  99:main.c        **** 
 372              		.loc 1 99 0
 373 002e FFF7FEFF 		bl	RTC_Start
 374              	.LVL53:
 102:main.c        **** 
 375              		.loc 1 102 0
 376 0032 0A49     		ldr	r1, .L22+8
 377 0034 0A48     		ldr	r0, .L22+12
 378 0036 FFF7FEFF 		bl	RTC_SetDateAndTime
 379              	.LVL54:
 108:main.c        ****     print_time();
 380              		.loc 1 108 0
 381              		.syntax divided
 382              	@ 108 "main.c" 1
 383 003a 62B6     		CPSIE   i
 384              	@ 0 "" 2
 109:main.c        ****     for(;;){
 385              		.loc 1 109 0
 386              		.thumb
 387              		.syntax unified
 388 003c FFF7FEFF 		bl	print_time
 389              	.LVL55:
 390              	.L20:
 111:main.c        ****         {
 391              		.loc 1 111 0
 392 0040 084B     		ldr	r3, .L22+16
 393 0042 1A68     		ldr	r2, [r3]
 394 0044 FA23     		movs	r3, #250
 395 0046 9B00     		lsls	r3, r3, #2
 396 0048 9A42     		cmp	r2, r3
 397 004a F9D1     		bne	.L20
 113:main.c        ****         }
 398              		.loc 1 113 0
 399 004c FFF7FEFF 		bl	print_time
 400              	.LVL56:
 401 0050 F6E7     		b	.L20
 402              	.L23:
 403 0052 C046     		.align	2
 404              	.L22:
 405 0054 00000000 		.word	MyADC
 406 0058 10000000 		.word	.LC7
 407 005c 14202203 		.word	52568084
 408 0060 50590200 		.word	153936
 409 0064 00000000 		.word	.LANCHOR1
 410              		.cfi_endproc
 411              	.LFE61:
 412              		.size	main, .-main
 413              		.global	cnt
 414              		.comm	time,4,4
 415              		.global	result
 416              		.comm	DigitalFilter_Buffer,12,4
 417              		.global	DigitalFilter_BCoefs
ARM GAS  C:\Users\okuntso\AppData\Local\Temp\cceWmgJO.s 			page 21


 418              		.global	DigitalFilter_ACoefs
 419              		.data
 420              		.align	2
 421              		.set	.LANCHOR0,. + 0
 422              		.type	DigitalFilter_ACoefs, %object
 423              		.size	DigitalFilter_ACoefs, 12
 424              	DigitalFilter_ACoefs:
 425 0000 0000803F 		.word	1065353216
 426 0004 8C4A92BF 		.word	-1080931700
 427 0008 865AD33E 		.word	1054038662
 428              		.type	DigitalFilter_BCoefs, %object
 429              		.size	DigitalFilter_BCoefs, 12
 430              	DigitalFilter_BCoefs:
 431 000c 03098A3D 		.word	1032456451
 432 0010 3A230A3E 		.word	1040851770
 433 0014 03098A3D 		.word	1032456451
 434              		.section	.rodata.str1.4,"aMS",%progbits,1
 435              		.align	2
 436              	.LC4:
 437 0000 2530326C 		.ascii	"%02lu:%02lu\015\012\000"
 437      753A2530 
 437      326C750D 
 437      0A00
 438 000e 0000     		.space	2
 439              	.LC7:
 440 0010 44656275 		.ascii	"Debug info start...\015\000"
 440      6720696E 
 440      666F2073 
 440      74617274 
 440      2E2E2E0D 
 441              		.bss
 442              		.align	2
 443              		.set	.LANCHOR1,. + 0
 444              		.type	cnt, %object
 445              		.size	cnt, 4
 446              	cnt:
 447 0000 00000000 		.space	4
 448              		.type	result, %object
 449              		.size	result, 2
 450              	result:
 451 0004 0000     		.space	2
 452              		.text
 453              	.Letext0:
 454              		.file 3 "Generated_Source\\PSoC4/cytypes.h"
 455              		.file 4 "Generated_Source\\PSoC4/D_UART_SPI_UART.h"
 456              		.file 5 "Generated_Source\\PSoC4/ADC.h"
 457              		.file 6 "Generated_Source\\PSoC4/IDAC.h"
 458              		.file 7 "c:\\program files (x86)\\cypress\\psoc creator\\4.3\\psoc creator\\import\\gnu\\arm\\5.4.
 459              		.file 8 "Generated_Source\\PSoC4/D_UART.h"
 460              		.file 9 "Generated_Source\\PSoC4/isr_adc.h"
 461              		.file 10 "Generated_Source\\PSoC4/ADC_Timer.h"
 462              		.file 11 "Generated_Source\\PSoC4/ADC_IRQ.h"
 463              		.file 12 "<built-in>"