ARM GAS  C:\Users\okuntso\AppData\Local\Temp\ccYKBjbx.s 			page 1


   1              		.syntax unified
   2              		.cpu cortex-m0
   3              		.fpu softvfp
   4              		.eabi_attribute 20, 1
   5              		.eabi_attribute 21, 1
   6              		.eabi_attribute 23, 3
   7              		.eabi_attribute 24, 1
   8              		.eabi_attribute 25, 1
   9              		.eabi_attribute 26, 1
  10              		.eabi_attribute 30, 1
  11              		.eabi_attribute 34, 0
  12              		.eabi_attribute 18, 4
  13              		.thumb
  14              		.syntax unified
  15              		.file	"main.c"
  16              		.text
  17              	.Ltext0:
  18              		.cfi_sections	.debug_frame
  19              		.syntax divided
  20              		.global _printf_float
  21              		.thumb
  22              		.syntax unified
  23              		.section	.text.ISR_SWITCH,"ax",%progbits
  24              		.align	2
  25              		.global	ISR_SWITCH
  26              		.code	16
  27              		.thumb_func
  28              		.type	ISR_SWITCH, %function
  29              	ISR_SWITCH:
  30              	.LFB34:
  31              		.file 1 "main.c"
   1:main.c        **** /*****************************************************************************
   2:main.c        **** * File Name: main.c
   3:main.c        **** *
   4:main.c        **** * Version: 1.10
   5:main.c        **** *
   6:main.c        **** * Description: This example demonstrates how to re-direct the printf function
   7:main.c        **** * to use the UART API for transmitting data to the terminal.
   8:main.c        **** *
   9:main.c        **** * Related Document: CE224423_PSoC4_UART_printf.pdf 
  10:main.c        **** *
  11:main.c        **** * Hardware Dependency: CY8CKIT-042 PSoC 4 PIONEER KIT
  12:main.c        **** *
  13:main.c        **** ******************************************************************************
  14:main.c        **** * Copyright (2018-2020), Cypress Semiconductor Corporation.
  15:main.c        **** ******************************************************************************
  16:main.c        **** * This software, including source code, documentation and related materials
  17:main.c        **** * ("Software") is owned by Cypress Semiconductor Corporation (Cypress) and is
  18:main.c        **** * protected by and subject to worldwide patent protection (United States and 
  19:main.c        **** * foreign), United States copyright laws and international treaty provisions. 
  20:main.c        **** * Cypress hereby grants to licensee a personal, non-exclusive, non-transferable
  21:main.c        **** * license to copy, use, modify, create derivative works of, and compile the 
  22:main.c        **** * Cypress source code and derivative works for the sole purpose of creating 
  23:main.c        **** * custom software in support of licensee product, such licensee product to be
  24:main.c        **** * used only in conjunction with Cypress's integrated circuit as specified in the
  25:main.c        **** * applicable agreement. Any reproduction, modification, translation, compilation,
  26:main.c        **** * or representation of this Software except as specified above is prohibited 
ARM GAS  C:\Users\okuntso\AppData\Local\Temp\ccYKBjbx.s 			page 2


  27:main.c        **** * without the express written permission of Cypress.
  28:main.c        **** * 
  29:main.c        **** * Disclaimer: THIS SOFTWARE IS PROVIDED AS-IS, WITH NO WARRANTY OF ANY KIND, 
  30:main.c        **** * EXPRESS OR IMPLIED, INCLUDING, BUT NOT LIMITED TO, NONINFRINGEMENT, IMPLIED 
  31:main.c        **** * WARRANTIES OF MERCHANTABILITY AND FITNESS FOR A PARTICULAR PURPOSE.
  32:main.c        **** * Cypress reserves the right to make changes to the Software without notice. 
  33:main.c        **** * Cypress does not assume any liability arising out of the application or use
  34:main.c        **** * of Software or any product or circuit described in the Software. Cypress does
  35:main.c        **** * not authorize its products for use as critical components in any products 
  36:main.c        **** * where a malfunction or failure may reasonably be expected to result in 
  37:main.c        **** * significant injury or death ("ACTIVE Risk Product"). By including Cypress's 
  38:main.c        **** * product in a ACTIVE Risk Product, the manufacturer of such system or application
  39:main.c        **** * assumes all risk of such use and in doing so indemnifies Cypress against all
  40:main.c        **** * liability. Use of this Software may be limited by and subject to the applicable
  41:main.c        **** * Cypress software license agreement.
  42:main.c        **** *****************************************************************************/
  43:main.c        **** 
  44:main.c        **** #include <project.h>
  45:main.c        **** #include <stdio.h>
  46:main.c        **** 
  47:main.c        **** /*******************************************************************************
  48:main.c        **** *            Global variables
  49:main.c        **** *******************************************************************************/
  50:main.c        **** uint8 pressCount  = 0; // Keeps track of button presses
  51:main.c        **** uint8 printStatus = 0; // Flag for printing
  52:main.c        **** 
  53:main.c        **** /*******************************************************************************
  54:main.c        **** * Function Name: _write
  55:main.c        **** ********************************************************************************
  56:main.c        **** *
  57:main.c        **** * Summary: 
  58:main.c        **** *   This version of _write sends text via UART. printf is redirected to 
  59:main.c        **** *   this function when GCC compiler is used to print data to terminal using UART. 
  60:main.c        **** *   Note that depending on your compiler you may need to rewrite a different
  61:main.c        **** *   function that is linked to printf.
  62:main.c        **** * 
  63:main.c        **** * Parameters:
  64:main.c        **** *   file: This variable is not used.
  65:main.c        **** *   *ptr: Pointer to the data which will be transfered through UART.
  66:main.c        **** *   len: Length of the data to be transfered through UART.
  67:main.c        **** * 
  68:main.c        **** * Returns: 
  69:main.c        **** *   returns the number of characters transferred using UART.
  70:main.c        **** *
  71:main.c        **** *******************************************************************************/
  72:main.c        **** #if defined (__GNUC__) 
  73:main.c        ****     
  74:main.c        ****     /* Add an explicit reference to the floating point printf library to allow 
  75:main.c        ****        use of floating point conversion specifier. */     
  76:main.c        ****     asm (".global _printf_float"); 
  77:main.c        ****  
  78:main.c        ****     /* For GCC compiler revise _write() function for printf functionality */     
  79:main.c        **** 	int _write(int file, char *ptr, int len) 
  80:main.c        ****     {       
  81:main.c        ****         /* Warning suppression for unused function parameter */
  82:main.c        **** 		file = file;
  83:main.c        **** 		
ARM GAS  C:\Users\okuntso\AppData\Local\Temp\ccYKBjbx.s 			page 3


  84:main.c        **** 		int i; 
  85:main.c        ****         /* Character is sent via UART */
  86:main.c        ****         for (i = 0; i < len; i++) 
  87:main.c        ****         { 
  88:main.c        ****             UART_UartPutChar(*(ptr++)); 
  89:main.c        ****         }          
  90:main.c        ****         return(len); 
  91:main.c        ****     } 
  92:main.c        **** #endif /* (__GNUC__) */
  93:main.c        **** 
  94:main.c        **** /***************************************************************************//**
  95:main.c        **** * Function Name: ISR_SWITCH
  96:main.c        **** ********************************************************************************
  97:main.c        **** *
  98:main.c        **** * Summary:
  99:main.c        **** * This function is executed when the GPIO interrupt is triggered by the switch
 100:main.c        **** * This ISR
 101:main.c        **** *   1. Clears the interrupt source.
 102:main.c        **** *   2. Increments the count and sets printStatus flag.
 103:main.c        **** *
 104:main.c        **** * Parameters:
 105:main.c        **** *  None
 106:main.c        **** *
 107:main.c        **** * Return:
 108:main.c        **** *  None
 109:main.c        **** *
 110:main.c        **** *******************************************************************************/
 111:main.c        **** CY_ISR(ISR_SWITCH)
 112:main.c        **** {
  32              		.loc 1 112 0
  33              		.cfi_startproc
  34              		@ args = 0, pretend = 0, frame = 0
  35              		@ frame_needed = 0, uses_anonymous_args = 0
  36 0000 10B5     		push	{r4, lr}
  37              		.cfi_def_cfa_offset 8
  38              		.cfi_offset 4, -8
  39              		.cfi_offset 14, -4
 113:main.c        **** 	/* Clears interrupt for button */
 114:main.c        ****     switch_pin_ClearInterrupt();
  40              		.loc 1 114 0
  41 0002 FFF7FEFF 		bl	switch_pin_ClearInterrupt
  42              	.LVL0:
 115:main.c        **** 	
 116:main.c        **** 	/* Clears pending interrupts */
 117:main.c        ****     InputInterrupt_ClearPending();
  43              		.loc 1 117 0
  44 0006 FFF7FEFF 		bl	InputInterrupt_ClearPending
  45              	.LVL1:
 118:main.c        **** 	
 119:main.c        **** 	/* Updates button count and printing state */
 120:main.c        ****     pressCount++;
  46              		.loc 1 120 0
  47 000a 034B     		ldr	r3, .L2
  48 000c 1A78     		ldrb	r2, [r3]
  49 000e 0132     		adds	r2, r2, #1
  50 0010 1A70     		strb	r2, [r3]
 121:main.c        ****     printStatus = 1;
ARM GAS  C:\Users\okuntso\AppData\Local\Temp\ccYKBjbx.s 			page 4


  51              		.loc 1 121 0
  52 0012 0122     		movs	r2, #1
  53 0014 5A70     		strb	r2, [r3, #1]
 122:main.c        ****     
 123:main.c        **** }
  54              		.loc 1 123 0
  55              		@ sp needed
  56 0016 10BD     		pop	{r4, pc}
  57              	.L3:
  58              		.align	2
  59              	.L2:
  60 0018 00000000 		.word	.LANCHOR0
  61              		.cfi_endproc
  62              	.LFE34:
  63              		.size	ISR_SWITCH, .-ISR_SWITCH
  64              		.section	.text._write,"ax",%progbits
  65              		.align	2
  66              		.global	_write
  67              		.code	16
  68              		.thumb_func
  69              		.type	_write, %function
  70              	_write:
  71              	.LFB33:
  80:main.c        ****         /* Warning suppression for unused function parameter */
  72              		.loc 1 80 0
  73              		.cfi_startproc
  74              		@ args = 0, pretend = 0, frame = 0
  75              		@ frame_needed = 0, uses_anonymous_args = 0
  76              	.LVL2:
  77 0000 70B5     		push	{r4, r5, r6, lr}
  78              		.cfi_def_cfa_offset 16
  79              		.cfi_offset 4, -16
  80              		.cfi_offset 5, -12
  81              		.cfi_offset 6, -8
  82              		.cfi_offset 14, -4
  83 0002 1600     		movs	r6, r2
  84              	.LVL3:
  86:main.c        ****         { 
  85              		.loc 1 86 0
  86 0004 0024     		movs	r4, #0
  87 0006 05E0     		b	.L5
  88              	.LVL4:
  89              	.L6:
  88:main.c        ****         }          
  90              		.loc 1 88 0 discriminator 3
  91 0008 4D1C     		adds	r5, r1, #1
  92              	.LVL5:
  93 000a 0878     		ldrb	r0, [r1]
  94 000c FFF7FEFF 		bl	UART_SpiUartWriteTxData
  95              	.LVL6:
  86:main.c        ****         { 
  96              		.loc 1 86 0 discriminator 3
  97 0010 0134     		adds	r4, r4, #1
  98              	.LVL7:
  88:main.c        ****         }          
  99              		.loc 1 88 0 discriminator 3
 100 0012 2900     		movs	r1, r5
ARM GAS  C:\Users\okuntso\AppData\Local\Temp\ccYKBjbx.s 			page 5


 101              	.LVL8:
 102              	.L5:
  86:main.c        ****         { 
 103              		.loc 1 86 0 discriminator 1
 104 0014 B442     		cmp	r4, r6
 105 0016 F7DB     		blt	.L6
  91:main.c        **** #endif /* (__GNUC__) */
 106              		.loc 1 91 0
 107 0018 3000     		movs	r0, r6
 108              		@ sp needed
 109              	.LVL9:
 110              	.LVL10:
 111 001a 70BD     		pop	{r4, r5, r6, pc}
 112              		.cfi_endproc
 113              	.LFE33:
 114              		.size	_write, .-_write
 115              		.section	.text.main,"ax",%progbits
 116              		.align	2
 117              		.global	main
 118              		.code	16
 119              		.thumb_func
 120              		.type	main, %function
 121              	main:
 122              	.LFB35:
 124:main.c        **** 
 125:main.c        **** /*******************************************************************************
 126:main.c        **** * Function Name: main
 127:main.c        **** ********************************************************************************
 128:main.c        **** *
 129:main.c        **** *  The main function performs the following actions:
 130:main.c        **** *   1. Input/switch interrupt is set up and enabled.
 131:main.c        **** *   2. Initializes the UART components.
 132:main.c        **** *   3. Global interrupt enabled.
 133:main.c        **** *   4. UART sends the header to the terminal.
 134:main.c        **** *   5. printf is tested once.
 135:main.c        **** *   6. Each time interrupt occurs/switch is pressed the count and flags are set.
 136:main.c        **** *   7. When printStatus is set high, printf is used to indicate number pressed.
 137:main.c        **** *
 138:main.c        **** *******************************************************************************/
 139:main.c        **** int main(void)
 140:main.c        **** {
 123              		.loc 1 140 0
 124              		.cfi_startproc
 125              		@ args = 0, pretend = 0, frame = 0
 126              		@ frame_needed = 0, uses_anonymous_args = 0
 127 0000 10B5     		push	{r4, lr}
 128              		.cfi_def_cfa_offset 8
 129              		.cfi_offset 4, -8
 130              		.cfi_offset 14, -4
 131              	.LVL11:
 141:main.c        ****     int32 integerNum = -212121; 
 142:main.c        ****     float floatNum = 37.37f;
 143:main.c        **** 
 144:main.c        ****     /* Input interrupt and sets the interrupt service routine*/
 145:main.c        ****     InputInterrupt_StartEx(ISR_SWITCH);
 132              		.loc 1 145 0
 133 0002 1548     		ldr	r0, .L10
ARM GAS  C:\Users\okuntso\AppData\Local\Temp\ccYKBjbx.s 			page 6


 134 0004 FFF7FEFF 		bl	InputInterrupt_StartEx
 135              	.LVL12:
 146:main.c        ****     
 147:main.c        ****     /* Ensure that interrupts are clear */
 148:main.c        ****     InputInterrupt_ClearPending();
 136              		.loc 1 148 0
 137 0008 FFF7FEFF 		bl	InputInterrupt_ClearPending
 138              	.LVL13:
 149:main.c        ****     
 150:main.c        ****     /* Start UART operation */
 151:main.c        ****     UART_Start();
 139              		.loc 1 151 0
 140 000c FFF7FEFF 		bl	UART_Start
 141              	.LVL14:
 152:main.c        ****     
 153:main.c        ****     /* Enable global interrupts */
 154:main.c        ****     CyGlobalIntEnable; 
 142              		.loc 1 154 0
 143              		.syntax divided
 144              	@ 154 "main.c" 1
 145 0010 62B6     		CPSIE   i
 146              	@ 0 "" 2
 155:main.c        ****     
 156:main.c        ****     /* Transmit header to the terminal */
 157:main.c        ****     UART_UartPutString("\r\n***********************************************************************
 147              		.loc 1 157 0
 148              		.thumb
 149              		.syntax unified
 150 0012 1248     		ldr	r0, .L10+4
 151 0014 FFF7FEFF 		bl	UART_UartPutString
 152              	.LVL15:
 158:main.c        ****     UART_UartPutString("This example demonstrates UART operation with printf \r\n");
 153              		.loc 1 158 0
 154 0018 1148     		ldr	r0, .L10+8
 155 001a FFF7FEFF 		bl	UART_UartPutString
 156              	.LVL16:
 159:main.c        ****     UART_UartPutString("If you see this text the terminal connection is configured correctly.\r\n")
 157              		.loc 1 159 0
 158 001e 1148     		ldr	r0, .L10+12
 159 0020 FFF7FEFF 		bl	UART_UartPutString
 160              	.LVL17:
 160:main.c        ****     UART_UartPutString("Push button to see printf function used to print on terminal.\r\n");
 161              		.loc 1 160 0
 162 0024 1048     		ldr	r0, .L10+16
 163 0026 FFF7FEFF 		bl	UART_UartPutString
 164              	.LVL18:
 161:main.c        ****     UART_UartPutString("\r\n");
 165              		.loc 1 161 0
 166 002a 1048     		ldr	r0, .L10+20
 167 002c FFF7FEFF 		bl	UART_UartPutString
 168              	.LVL19:
 162:main.c        ****     
 163:main.c        ****     printf("Testing printf function. long: %ld , float: %f \r\n", integerNum, floatNum);
 169              		.loc 1 163 0
 170 0030 8022     		movs	r2, #128
 171 0032 9205     		lsls	r2, r2, #22
 172 0034 0E4B     		ldr	r3, .L10+24
ARM GAS  C:\Users\okuntso\AppData\Local\Temp\ccYKBjbx.s 			page 7


 173 0036 0F49     		ldr	r1, .L10+28
 174 0038 0F48     		ldr	r0, .L10+32
 175 003a FFF7FEFF 		bl	printf
 176              	.LVL20:
 177              	.L8:
 164:main.c        ****     
 165:main.c        ****     for(;;)
 166:main.c        ****     {
 167:main.c        ****         /* Printf transmit via UART to terminal number of switch presses */
 168:main.c        ****         if(printStatus)
 178              		.loc 1 168 0
 179 003e 0F4B     		ldr	r3, .L10+36
 180 0040 5B78     		ldrb	r3, [r3, #1]
 181 0042 002B     		cmp	r3, #0
 182 0044 FBD0     		beq	.L8
 169:main.c        ****         {
 170:main.c        ****             printStatus = 0;
 183              		.loc 1 170 0
 184 0046 0D4B     		ldr	r3, .L10+36
 185 0048 0022     		movs	r2, #0
 186 004a 5A70     		strb	r2, [r3, #1]
 171:main.c        ****             printf("Number of times button has been pressed = %d\r\n", pressCount);
 187              		.loc 1 171 0
 188 004c 1978     		ldrb	r1, [r3]
 189 004e 0C48     		ldr	r0, .L10+40
 190 0050 FFF7FEFF 		bl	printf
 191              	.LVL21:
 192 0054 F3E7     		b	.L8
 193              	.L11:
 194 0056 C046     		.align	2
 195              	.L10:
 196 0058 00000000 		.word	ISR_SWITCH
 197 005c 00000000 		.word	.LC2
 198 0060 58000000 		.word	.LC4
 199 0064 90000000 		.word	.LC6
 200 0068 D8000000 		.word	.LC8
 201 006c 18010000 		.word	.LC10
 202 0070 5CAF4240 		.word	1078112092
 203 0074 67C3FCFF 		.word	-212121
 204 0078 1C010000 		.word	.LC12
 205 007c 00000000 		.word	.LANCHOR0
 206 0080 50010000 		.word	.LC15
 207              		.cfi_endproc
 208              	.LFE35:
 209              		.size	main, .-main
 210              		.global	printStatus
 211              		.global	pressCount
 212              		.section	.rodata.str1.4,"aMS",%progbits,1
 213              		.align	2
 214              	.LC2:
 215 0000 0D0A2A2A 		.ascii	"\015\012*******************************************"
 215      2A2A2A2A 
 215      2A2A2A2A 
 215      2A2A2A2A 
 215      2A2A2A2A 
 216 002d 2A2A2A2A 		.ascii	"***************************************\015\012\000"
 216      2A2A2A2A 
ARM GAS  C:\Users\okuntso\AppData\Local\Temp\ccYKBjbx.s 			page 8


 216      2A2A2A2A 
 216      2A2A2A2A 
 216      2A2A2A2A 
 217 0057 00       		.space	1
 218              	.LC4:
 219 0058 54686973 		.ascii	"This example demonstrates UART operation with print"
 219      20657861 
 219      6D706C65 
 219      2064656D 
 219      6F6E7374 
 220 008b 66200D0A 		.ascii	"f \015\012\000"
 220      00
 221              	.LC6:
 222 0090 49662079 		.ascii	"If you see this text the terminal connection is con"
 222      6F752073 
 222      65652074 
 222      68697320 
 222      74657874 
 223 00c3 66696775 		.ascii	"figured correctly.\015\012\000"
 223      72656420 
 223      636F7272 
 223      6563746C 
 223      792E0D0A 
 224              	.LC8:
 225 00d8 50757368 		.ascii	"Push button to see printf function used to print on"
 225      20627574 
 225      746F6E20 
 225      746F2073 
 225      65652070 
 226 010b 20746572 		.ascii	" terminal.\015\012\000"
 226      6D696E61 
 226      6C2E0D0A 
 226      00
 227              	.LC10:
 228 0118 0D0A00   		.ascii	"\015\012\000"
 229 011b 00       		.space	1
 230              	.LC12:
 231 011c 54657374 		.ascii	"Testing printf function. long: %ld , float: %f \015"
 231      696E6720 
 231      7072696E 
 231      74662066 
 231      756E6374 
 232 014c 0A00     		.ascii	"\012\000"
 233 014e 0000     		.space	2
 234              	.LC15:
 235 0150 4E756D62 		.ascii	"Number of times button has been pressed = %d\015\012"
 235      6572206F 
 235      66207469 
 235      6D657320 
 235      62757474 
 236 017e 00       		.ascii	"\000"
 237              		.bss
 238              		.set	.LANCHOR0,. + 0
 239              		.type	pressCount, %object
 240              		.size	pressCount, 1
 241              	pressCount:
 242 0000 00       		.space	1
ARM GAS  C:\Users\okuntso\AppData\Local\Temp\ccYKBjbx.s 			page 9


 243              		.type	printStatus, %object
 244              		.size	printStatus, 1
 245              	printStatus:
 246 0001 00       		.space	1
 247              		.text
 248              	.Letext0:
 249              		.file 2 "Generated_Source\\PSoC4/cytypes.h"
 250              		.file 3 "Generated_Source\\PSoC4/switch_pin.h"
 251              		.file 4 "Generated_Source\\PSoC4/InputInterrupt.h"
 252              		.file 5 "Generated_Source\\PSoC4/UART_SPI_UART.h"
 253              		.file 6 "Generated_Source\\PSoC4/UART.h"
 254              		.file 7 "c:\\program files (x86)\\cypress\\psoc creator\\4.3\\psoc creator\\import\\gnu\\arm\\5.4.